Archive member included to satisfy reference by file (symbol)

/home/vsts/work/1/edk2/Build/Lumia950XL-AARCH64/DEBUG_GCC5/AARCH64/ArmPkg/Library/CompilerIntrinsicsLib/CompilerIntrinsicsLib/OUTPUT/CompilerIntrinsicsLib.lib(memcpy.obj)
                              /home/vsts/work/1/edk2/ArmPkg/Library/GccLto/liblto-aarch64.a (memcpy)
/home/vsts/work/1/edk2/Build/Lumia950XL-AARCH64/DEBUG_GCC5/AARCH64/ArmPkg/Library/CompilerIntrinsicsLib/CompilerIntrinsicsLib/OUTPUT/CompilerIntrinsicsLib.lib(memset.obj)
                              /home/vsts/work/1/edk2/ArmPkg/Library/GccLto/liblto-aarch64.a (memset)
/home/vsts/work/1/edk2/Build/Lumia950XL-AARCH64/DEBUG_GCC5/AARCH64/MdePkg/Library/UefiApplicationEntryPoint/UefiApplicationEntryPoint/OUTPUT/UefiApplicationEntryPoint.lib(ApplicationEntryPoint.obj)
                              (_ModuleEntryPoint)
/home/vsts/work/1/edk2/Build/Lumia950XL-AARCH64/DEBUG_GCC5/AARCH64/ShellPkg/Application/Shell/Shell/OUTPUT/Shell.lib(AutoGen.obj)
                              ApplicationEntryPoint.obj (symbol from plugin) (ProcessLibraryConstructorList)
/home/vsts/work/1/edk2/Build/Lumia950XL-AARCH64/DEBUG_GCC5/AARCH64/ShellPkg/Application/Shell/Shell/OUTPUT/Shell.lib(Shell.obj)
                              AutoGen.obj (symbol from plugin) (UefiMain)
/home/vsts/work/1/edk2/Build/Lumia950XL-AARCH64/DEBUG_GCC5/AARCH64/ShellPkg/Application/Shell/Shell/OUTPUT/Shell.lib(ShellParametersProtocol.obj)
                              Shell.obj (symbol from plugin) (GetNextParameter)
/home/vsts/work/1/edk2/Build/Lumia950XL-AARCH64/DEBUG_GCC5/AARCH64/ShellPkg/Application/Shell/Shell/OUTPUT/Shell.lib(ShellProtocol.obj)
                              Shell.obj (symbol from plugin) (EfiShellGetEnv)
/home/vsts/work/1/edk2/Build/Lumia950XL-AARCH64/DEBUG_GCC5/AARCH64/ShellPkg/Application/Shell/Shell/OUTPUT/Shell.lib(FileHandleWrappers.obj)
                              ShellParametersProtocol.obj (symbol from plugin) (CreateFileInterfaceEnv)
/home/vsts/work/1/edk2/Build/Lumia950XL-AARCH64/DEBUG_GCC5/AARCH64/ShellPkg/Application/Shell/Shell/OUTPUT/Shell.lib(ShellEnvVar.obj)
                              ShellProtocol.obj (symbol from plugin) (gShellEnvVarList)
/home/vsts/work/1/edk2/Build/Lumia950XL-AARCH64/DEBUG_GCC5/AARCH64/ShellPkg/Application/Shell/Shell/OUTPUT/Shell.lib(ShellManParser.obj)
                              ShellProtocol.obj (symbol from plugin) (ProcessManFile)
/home/vsts/work/1/edk2/Build/Lumia950XL-AARCH64/DEBUG_GCC5/AARCH64/ShellPkg/Application/Shell/Shell/OUTPUT/Shell.lib(ConsoleLogger.obj)
                              Shell.obj (symbol from plugin) (ConsoleLoggerUninstall)
/home/vsts/work/1/edk2/Build/Lumia950XL-AARCH64/DEBUG_GCC5/AARCH64/ShellPkg/Application/Shell/Shell/OUTPUT/Shell.lib(ConsoleWrappers.obj)
                              Shell.obj (symbol from plugin) (CreateSimpleTextInOnFile)
/home/vsts/work/1/edk2/Build/Lumia950XL-AARCH64/DEBUG_GCC5/AARCH64/MdePkg/Library/BaseMemoryLib/BaseMemoryLib/OUTPUT/BaseMemoryLib.lib(ScanMem16Wrapper.obj)
                              Shell.obj (symbol from plugin) (ScanMem16)
/home/vsts/work/1/edk2/Build/Lumia950XL-AARCH64/DEBUG_GCC5/AARCH64/MdePkg/Library/BaseMemoryLib/BaseMemoryLib/OUTPUT/BaseMemoryLib.lib(ZeroMemWrapper.obj)
                              ShellProtocol.obj (symbol from plugin) (ZeroMem)
/home/vsts/work/1/edk2/Build/Lumia950XL-AARCH64/DEBUG_GCC5/AARCH64/MdePkg/Library/BaseMemoryLib/BaseMemoryLib/OUTPUT/BaseMemoryLib.lib(SetMem16Wrapper.obj)
                              ShellParametersProtocol.obj (symbol from plugin) (SetMem16)
/home/vsts/work/1/edk2/Build/Lumia950XL-AARCH64/DEBUG_GCC5/AARCH64/MdePkg/Library/BaseMemoryLib/BaseMemoryLib/OUTPUT/BaseMemoryLib.lib(SetMemWrapper.obj)
                              FileHandleWrappers.obj (symbol from plugin) (SetMem)
/home/vsts/work/1/edk2/Build/Lumia950XL-AARCH64/DEBUG_GCC5/AARCH64/MdePkg/Library/BaseMemoryLib/BaseMemoryLib/OUTPUT/BaseMemoryLib.lib(CopyMemWrapper.obj)
                              Shell.obj (symbol from plugin) (CopyMem)
/home/vsts/work/1/edk2/Build/Lumia950XL-AARCH64/DEBUG_GCC5/AARCH64/MdePkg/Library/BaseMemoryLib/BaseMemoryLib/OUTPUT/BaseMemoryLib.lib(MemLibGeneric.obj)
                              SetMem16Wrapper.obj (symbol from plugin) (InternalMemSetMem16)
/home/vsts/work/1/edk2/Build/Lumia950XL-AARCH64/DEBUG_GCC5/AARCH64/MdePkg/Library/BaseMemoryLib/BaseMemoryLib/OUTPUT/BaseMemoryLib.lib(MemLibGuid.obj)
                              ShellProtocol.obj (symbol from plugin) (CopyGuid)
/home/vsts/work/1/edk2/Build/Lumia950XL-AARCH64/DEBUG_GCC5/AARCH64/MdePkg/Library/BaseMemoryLib/BaseMemoryLib/OUTPUT/BaseMemoryLib.lib(CopyMem.obj)
                              CopyMemWrapper.obj (symbol from plugin) (InternalMemCopyMem)
/home/vsts/work/1/edk2/Build/Lumia950XL-AARCH64/DEBUG_GCC5/AARCH64/MdePkg/Library/BaseMemoryLib/BaseMemoryLib/OUTPUT/BaseMemoryLib.lib(SetMem.obj)
                              SetMemWrapper.obj (symbol from plugin) (InternalMemSetMem)
/home/vsts/work/1/edk2/Build/Lumia950XL-AARCH64/DEBUG_GCC5/AARCH64/MdePkg/Library/BaseMemoryLib/BaseMemoryLib/OUTPUT/BaseMemoryLib.lib(SetMem64Wrapper.obj)
                              SetMemWrapper.obj (symbol from plugin) (SetMem64)
/home/vsts/work/1/edk2/Build/Lumia950XL-AARCH64/DEBUG_GCC5/AARCH64/MdePkg/Library/BaseLib/BaseLib/OUTPUT/BaseLib.lib(LShiftU64.obj)
                              SetMem.obj (symbol from plugin) (LShiftU64)
/home/vsts/work/1/edk2/Build/Lumia950XL-AARCH64/DEBUG_GCC5/AARCH64/MdePkg/Library/BaseLib/BaseLib/OUTPUT/BaseLib.lib(LinkedList.obj)
                              Shell.obj (symbol from plugin) (InitializeListHead)
/home/vsts/work/1/edk2/Build/Lumia950XL-AARCH64/DEBUG_GCC5/AARCH64/MdePkg/Library/BaseLib/BaseLib/OUTPUT/BaseLib.lib(SafeString.obj)
                              Shell.obj (symbol from plugin) (StrCpyS)
/home/vsts/work/1/edk2/Build/Lumia950XL-AARCH64/DEBUG_GCC5/AARCH64/MdePkg/Library/BaseLib/BaseLib/OUTPUT/BaseLib.lib(String.obj)
                              Shell.obj (symbol from plugin) (StrLen)
/home/vsts/work/1/edk2/Build/Lumia950XL-AARCH64/DEBUG_GCC5/AARCH64/MdePkg/Library/BaseLib/BaseLib/OUTPUT/BaseLib.lib(FilePaths.obj)
                              Shell.obj (symbol from plugin) (PathRemoveLastItem)
/home/vsts/work/1/edk2/Build/Lumia950XL-AARCH64/DEBUG_GCC5/AARCH64/MdePkg/Library/BaseLib/BaseLib/OUTPUT/BaseLib.lib(Unaligned.obj)
                              MemLibGuid.obj (symbol from plugin) (ReadUnaligned64)
/home/vsts/work/1/edk2/Build/Lumia950XL-AARCH64/DEBUG_GCC5/AARCH64/MdePkg/Library/BaseLib/BaseLib/OUTPUT/BaseLib.lib(Math64.obj)
                              LShiftU64.obj (symbol from plugin) (InternalMathLShiftU64)
/home/vsts/work/1/edk2/Build/Lumia950XL-AARCH64/DEBUG_GCC5/AARCH64/MdePkg/Library/BaseLib/BaseLib/OUTPUT/BaseLib.lib(SwapBytes32.obj)
                              SafeString.obj (symbol from plugin) (SwapBytes32)
/home/vsts/work/1/edk2/Build/Lumia950XL-AARCH64/DEBUG_GCC5/AARCH64/MdePkg/Library/BaseLib/BaseLib/OUTPUT/BaseLib.lib(SwapBytes16.obj)
                              SafeString.obj (symbol from plugin) (SwapBytes16)
/home/vsts/work/1/edk2/Build/Lumia950XL-AARCH64/DEBUG_GCC5/AARCH64/MdePkg/Library/BaseLib/BaseLib/OUTPUT/BaseLib.lib(RShiftU64.obj)
                              SafeString.obj (symbol from plugin) (RShiftU64)
/home/vsts/work/1/edk2/Build/Lumia950XL-AARCH64/DEBUG_GCC5/AARCH64/MdePkg/Library/BaseLib/BaseLib/OUTPUT/BaseLib.lib(MultU64x32.obj)
                              SafeString.obj (symbol from plugin) (MultU64x32)
/home/vsts/work/1/edk2/Build/Lumia950XL-AARCH64/DEBUG_GCC5/AARCH64/MdePkg/Library/BaseLib/BaseLib/OUTPUT/BaseLib.lib(DivU64x32.obj)
                              SafeString.obj (symbol from plugin) (DivU64x32)
/home/vsts/work/1/edk2/Build/Lumia950XL-AARCH64/DEBUG_GCC5/AARCH64/MdePkg/Library/BasePrintLib/BasePrintLib/OUTPUT/BasePrintLib.lib(PrintLib.obj)
                              Shell.obj (symbol from plugin) (UnicodeSPrint)
/home/vsts/work/1/edk2/Build/Lumia950XL-AARCH64/DEBUG_GCC5/AARCH64/MdePkg/Library/BasePrintLib/BasePrintLib/OUTPUT/BasePrintLib.lib(PrintLibInternal.obj)
                              PrintLib.obj (symbol from plugin) (BasePrintLibConvertValueToString)
/home/vsts/work/1/edk2/Build/Lumia950XL-AARCH64/DEBUG_GCC5/AARCH64/MdePkg/Library/BaseDebugLibSerialPort/BaseDebugLibSerialPort/OUTPUT/BaseDebugLibSerialPort.lib(DebugLib.obj)
                              AutoGen.obj (symbol from plugin) (BaseDebugLibSerialPortConstructor)
/home/vsts/work/1/edk2/Build/Lumia950XL-AARCH64/DEBUG_GCC5/AARCH64/MdePkg/Library/UefiBootServicesTableLib/UefiBootServicesTableLib/OUTPUT/UefiBootServicesTableLib.lib(UefiBootServicesTableLib.obj)
                              AutoGen.obj (symbol from plugin) (UefiBootServicesTableLibConstructor)
/home/vsts/work/1/edk2/Build/Lumia950XL-AARCH64/DEBUG_GCC5/AARCH64/MdePkg/Library/UefiMemoryAllocationLib/UefiMemoryAllocationLib/OUTPUT/UefiMemoryAllocationLib.lib(MemoryAllocationLib.obj)
                              ShellProtocol.obj (symbol from plugin) (AllocatePool)
/home/vsts/work/1/edk2/Build/Lumia950XL-AARCH64/DEBUG_GCC5/AARCH64/MdePkg/Library/UefiDevicePathLib/UefiDevicePathLib/OUTPUT/UefiDevicePathLib.lib(DevicePathUtilities.obj)
                              ShellProtocol.obj (symbol from plugin) (DevicePathType)
/home/vsts/work/1/edk2/Build/Lumia950XL-AARCH64/DEBUG_GCC5/AARCH64/MdePkg/Library/UefiDevicePathLib/UefiDevicePathLib/OUTPUT/UefiDevicePathLib.lib(UefiDevicePathLib.obj)
                              DevicePathUtilities.obj (symbol from plugin) (GetDevicePathSize)
/home/vsts/work/1/edk2/Build/Lumia950XL-AARCH64/DEBUG_GCC5/AARCH64/MdePkg/Library/UefiDevicePathLib/UefiDevicePathLib/OUTPUT/UefiDevicePathLib.lib(DevicePathToText.obj)
                              UefiDevicePathLib.obj (symbol from plugin) (UefiDevicePathLibConvertDeviceNodeToText)
/home/vsts/work/1/edk2/Build/Lumia950XL-AARCH64/DEBUG_GCC5/AARCH64/MdePkg/Library/UefiDevicePathLib/UefiDevicePathLib/OUTPUT/UefiDevicePathLib.lib(DevicePathFromText.obj)
                              UefiDevicePathLib.obj (symbol from plugin) (UefiDevicePathLibConvertTextToDeviceNode)
/home/vsts/work/1/edk2/Build/Lumia950XL-AARCH64/DEBUG_GCC5/AARCH64/MdePkg/Library/UefiRuntimeServicesTableLib/UefiRuntimeServicesTableLib/OUTPUT/UefiRuntimeServicesTableLib.lib(UefiRuntimeServicesTableLib.obj)
                              AutoGen.obj (symbol from plugin) (UefiRuntimeServicesTableLibConstructor)
/home/vsts/work/1/edk2/Build/Lumia950XL-AARCH64/DEBUG_GCC5/AARCH64/MdePkg/Library/UefiLib/UefiLib/OUTPUT/UefiLib.lib(UefiLib.obj)
                              AutoGen.obj (symbol from plugin) (UefiLibConstructor)
/home/vsts/work/1/edk2/Build/Lumia950XL-AARCH64/DEBUG_GCC5/AARCH64/MdePkg/Library/DxeHobLib/DxeHobLib/OUTPUT/DxeHobLib.lib(HobLib.obj)
                              AutoGen.obj (symbol from plugin) (HobLibConstructor)
/home/vsts/work/1/edk2/Build/Lumia950XL-AARCH64/DEBUG_GCC5/AARCH64/MdeModulePkg/Library/UefiHiiServicesLib/UefiHiiServicesLib/OUTPUT/UefiHiiServicesLib.lib(UefiHiiServicesLib.obj)
                              AutoGen.obj (symbol from plugin) (UefiHiiServicesLibConstructor)
/home/vsts/work/1/edk2/Build/Lumia950XL-AARCH64/DEBUG_GCC5/AARCH64/MdeModulePkg/Library/UefiSortLib/UefiSortLib/OUTPUT/UefiSortLib.lib(UefiSortLib.obj)
                              ShellProtocol.obj (symbol from plugin) (DevicePathCompare)
/home/vsts/work/1/edk2/Build/Lumia950XL-AARCH64/DEBUG_GCC5/AARCH64/MdeModulePkg/Library/UefiHiiLib/UefiHiiLib/OUTPUT/UefiHiiLib.lib(HiiLib.obj)
                              Shell.obj (symbol from plugin) (HiiAddPackages)
/home/vsts/work/1/edk2/Build/Lumia950XL-AARCH64/DEBUG_GCC5/AARCH64/MdeModulePkg/Library/UefiHiiLib/UefiHiiLib/OUTPUT/UefiHiiLib.lib(HiiString.obj)
                              ShellManParser.obj (symbol from plugin) (HiiGetString)
/home/vsts/work/1/edk2/Build/Lumia950XL-AARCH64/DEBUG_GCC5/AARCH64/MdeModulePkg/Library/UefiHiiLib/UefiHiiLib/OUTPUT/UefiHiiLib.lib(HiiLanguage.obj)
                              HiiString.obj (symbol from plugin) (HiiGetSupportedLanguages)
/home/vsts/work/1/edk2/Build/Lumia950XL-AARCH64/DEBUG_GCC5/AARCH64/MdePkg/Library/UefiFileHandleLib/UefiFileHandleLib/OUTPUT/UefiFileHandleLib.lib(UefiFileHandleLib.obj)
                              ShellProtocol.obj (symbol from plugin) (FileHandleGetInfo)
/home/vsts/work/1/edk2/Build/Lumia950XL-AARCH64/DEBUG_GCC5/AARCH64/MdePkg/Library/DxeServicesTableLib/DxeServicesTableLib/OUTPUT/DxeServicesTableLib.lib(DxeServicesTableLib.obj)
                              AutoGen.obj (symbol from plugin) (DxeServicesTableLibConstructor)
/home/vsts/work/1/edk2/Build/Lumia950XL-AARCH64/DEBUG_GCC5/AARCH64/ShellPkg/Library/UefiShellLib/UefiShellLib/OUTPUT/UefiShellLib.lib(UefiShellLib.obj)
                              Shell.obj (symbol from plugin) (gEfiShellProtocol)
/home/vsts/work/1/edk2/Build/Lumia950XL-AARCH64/DEBUG_GCC5/AARCH64/ShellPkg/Library/UefiHandleParsingLib/UefiHandleParsingLib/OUTPUT/UefiHandleParsingLib.lib(UefiHandleParsingLib.obj)
                              AutoGen.obj (symbol from plugin) (HandleParsingLibConstructor)
/home/vsts/work/1/edk2/Build/Lumia950XL-AARCH64/DEBUG_GCC5/AARCH64/ShellPkg/Library/UefiHandleParsingLib/UefiHandleParsingLib/OUTPUT/UefiHandleParsingLib.lib(AutoGen.obj)
                              UefiHandleParsingLib.obj (symbol from plugin) (UefiHandleParsingLibStrings)
/home/vsts/work/1/edk2/Build/Lumia950XL-AARCH64/DEBUG_GCC5/AARCH64/ShellPkg/Library/UefiShellCommandLib/UefiShellCommandLib/OUTPUT/UefiShellCommandLib.lib(UefiShellCommandLib.obj)
                              Shell.obj (symbol from plugin) (CommandInit)
/home/vsts/work/1/edk2/Build/Lumia950XL-AARCH64/DEBUG_GCC5/AARCH64/ShellPkg/Library/UefiShellCommandLib/UefiShellCommandLib/OUTPUT/UefiShellCommandLib.lib(ConsistMapping.obj)
                              UefiShellCommandLib.obj (symbol from plugin) (ShellCommandConsistMappingInitialize)
/home/vsts/work/1/edk2/Build/Lumia950XL-AARCH64/DEBUG_GCC5/AARCH64/ShellPkg/Library/UefiShellLevel2CommandsLib/UefiShellLevel2CommandsLib/OUTPUT/UefiShellLevel2CommandsLib.lib(UefiShellLevel2CommandsLib.obj)
                              AutoGen.obj (symbol from plugin) (ShellLevel2CommandsLibConstructor)
/home/vsts/work/1/edk2/Build/Lumia950XL-AARCH64/DEBUG_GCC5/AARCH64/ShellPkg/Library/UefiShellLevel2CommandsLib/UefiShellLevel2CommandsLib/OUTPUT/UefiShellLevel2CommandsLib.lib(TimeDate.obj)
                              UefiShellLevel2CommandsLib.obj (symbol from plugin) (ShellCommandRunDate)
/home/vsts/work/1/edk2/Build/Lumia950XL-AARCH64/DEBUG_GCC5/AARCH64/ShellPkg/Library/UefiShellLevel2CommandsLib/UefiShellLevel2CommandsLib/OUTPUT/UefiShellLevel2CommandsLib.lib(Load.obj)
                              UefiShellLevel2CommandsLib.obj (symbol from plugin) (ShellCommandRunLoad)
/home/vsts/work/1/edk2/Build/Lumia950XL-AARCH64/DEBUG_GCC5/AARCH64/ShellPkg/Library/UefiShellLevel2CommandsLib/UefiShellLevel2CommandsLib/OUTPUT/UefiShellLevel2CommandsLib.lib(Ls.obj)
                              UefiShellLevel2CommandsLib.obj (symbol from plugin) (ShellCommandRunLs)
/home/vsts/work/1/edk2/Build/Lumia950XL-AARCH64/DEBUG_GCC5/AARCH64/ShellPkg/Library/UefiShellLevel2CommandsLib/UefiShellLevel2CommandsLib/OUTPUT/UefiShellLevel2CommandsLib.lib(Map.obj)
                              UefiShellLevel2CommandsLib.obj (symbol from plugin) (ShellCommandRunMap)
/home/vsts/work/1/edk2/Build/Lumia950XL-AARCH64/DEBUG_GCC5/AARCH64/ShellPkg/Library/UefiShellLevel2CommandsLib/UefiShellLevel2CommandsLib/OUTPUT/UefiShellLevel2CommandsLib.lib(Reset.obj)
                              UefiShellLevel2CommandsLib.obj (symbol from plugin) (ShellCommandRunReset)
/home/vsts/work/1/edk2/Build/Lumia950XL-AARCH64/DEBUG_GCC5/AARCH64/ShellPkg/Library/UefiShellLevel2CommandsLib/UefiShellLevel2CommandsLib/OUTPUT/UefiShellLevel2CommandsLib.lib(Set.obj)
                              UefiShellLevel2CommandsLib.obj (symbol from plugin) (ShellCommandRunSet)
/home/vsts/work/1/edk2/Build/Lumia950XL-AARCH64/DEBUG_GCC5/AARCH64/ShellPkg/Library/UefiShellLevel2CommandsLib/UefiShellLevel2CommandsLib/OUTPUT/UefiShellLevel2CommandsLib.lib(MkDir.obj)
                              UefiShellLevel2CommandsLib.obj (symbol from plugin) (ShellCommandRunMkDir)
/home/vsts/work/1/edk2/Build/Lumia950XL-AARCH64/DEBUG_GCC5/AARCH64/ShellPkg/Library/UefiShellLevel2CommandsLib/UefiShellLevel2CommandsLib/OUTPUT/UefiShellLevel2CommandsLib.lib(Cd.obj)
                              UefiShellLevel2CommandsLib.obj (symbol from plugin) (ShellCommandRunCd)
/home/vsts/work/1/edk2/Build/Lumia950XL-AARCH64/DEBUG_GCC5/AARCH64/ShellPkg/Library/UefiShellLevel2CommandsLib/UefiShellLevel2CommandsLib/OUTPUT/UefiShellLevel2CommandsLib.lib(Cp.obj)
                              UefiShellLevel2CommandsLib.obj (symbol from plugin) (ShellCommandRunCp)
/home/vsts/work/1/edk2/Build/Lumia950XL-AARCH64/DEBUG_GCC5/AARCH64/ShellPkg/Library/UefiShellLevel2CommandsLib/UefiShellLevel2CommandsLib/OUTPUT/UefiShellLevel2CommandsLib.lib(Parse.obj)
                              UefiShellLevel2CommandsLib.obj (symbol from plugin) (ShellCommandRunParse)
/home/vsts/work/1/edk2/Build/Lumia950XL-AARCH64/DEBUG_GCC5/AARCH64/ShellPkg/Library/UefiShellLevel2CommandsLib/UefiShellLevel2CommandsLib/OUTPUT/UefiShellLevel2CommandsLib.lib(Rm.obj)
                              UefiShellLevel2CommandsLib.obj (symbol from plugin) (ShellCommandRunRm)
/home/vsts/work/1/edk2/Build/Lumia950XL-AARCH64/DEBUG_GCC5/AARCH64/ShellPkg/Library/UefiShellLevel2CommandsLib/UefiShellLevel2CommandsLib/OUTPUT/UefiShellLevel2CommandsLib.lib(Mv.obj)
                              UefiShellLevel2CommandsLib.obj (symbol from plugin) (ShellCommandRunMv)
/home/vsts/work/1/edk2/Build/Lumia950XL-AARCH64/DEBUG_GCC5/AARCH64/ShellPkg/Library/UefiShellLevel2CommandsLib/UefiShellLevel2CommandsLib/OUTPUT/UefiShellLevel2CommandsLib.lib(Attrib.obj)
                              UefiShellLevel2CommandsLib.obj (symbol from plugin) (ShellCommandRunAttrib)
/home/vsts/work/1/edk2/Build/Lumia950XL-AARCH64/DEBUG_GCC5/AARCH64/ShellPkg/Library/UefiShellLevel2CommandsLib/UefiShellLevel2CommandsLib/OUTPUT/UefiShellLevel2CommandsLib.lib(Vol.obj)
                              UefiShellLevel2CommandsLib.obj (symbol from plugin) (ShellCommandRunVol)
/home/vsts/work/1/edk2/Build/Lumia950XL-AARCH64/DEBUG_GCC5/AARCH64/ShellPkg/Library/UefiShellLevel2CommandsLib/UefiShellLevel2CommandsLib/OUTPUT/UefiShellLevel2CommandsLib.lib(AutoGen.obj)
                              UefiShellLevel2CommandsLib.obj (symbol from plugin) (UefiShellLevel2CommandsLibStrings)
/home/vsts/work/1/edk2/Build/Lumia950XL-AARCH64/DEBUG_GCC5/AARCH64/ShellPkg/Library/UefiShellLevel1CommandsLib/UefiShellLevel1CommandsLib/OUTPUT/UefiShellLevel1CommandsLib.lib(UefiShellLevel1CommandsLib.obj)
                              AutoGen.obj (symbol from plugin) (ShellLevel1CommandsLibConstructor)
/home/vsts/work/1/edk2/Build/Lumia950XL-AARCH64/DEBUG_GCC5/AARCH64/ShellPkg/Library/UefiShellLevel1CommandsLib/UefiShellLevel1CommandsLib/OUTPUT/UefiShellLevel1CommandsLib.lib(Exit.obj)
                              UefiShellLevel1CommandsLib.obj (symbol from plugin) (ShellCommandRunExit)
/home/vsts/work/1/edk2/Build/Lumia950XL-AARCH64/DEBUG_GCC5/AARCH64/ShellPkg/Library/UefiShellLevel1CommandsLib/UefiShellLevel1CommandsLib/OUTPUT/UefiShellLevel1CommandsLib.lib(Goto.obj)
                              UefiShellLevel1CommandsLib.obj (symbol from plugin) (ShellCommandRunGoto)
/home/vsts/work/1/edk2/Build/Lumia950XL-AARCH64/DEBUG_GCC5/AARCH64/ShellPkg/Library/UefiShellLevel1CommandsLib/UefiShellLevel1CommandsLib/OUTPUT/UefiShellLevel1CommandsLib.lib(If.obj)
                              UefiShellLevel1CommandsLib.obj (symbol from plugin) (ShellCommandRunIf)
/home/vsts/work/1/edk2/Build/Lumia950XL-AARCH64/DEBUG_GCC5/AARCH64/ShellPkg/Library/UefiShellLevel1CommandsLib/UefiShellLevel1CommandsLib/OUTPUT/UefiShellLevel1CommandsLib.lib(For.obj)
                              UefiShellLevel1CommandsLib.obj (symbol from plugin) (ShellCommandRunEndFor)
/home/vsts/work/1/edk2/Build/Lumia950XL-AARCH64/DEBUG_GCC5/AARCH64/ShellPkg/Library/UefiShellLevel1CommandsLib/UefiShellLevel1CommandsLib/OUTPUT/UefiShellLevel1CommandsLib.lib(Shift.obj)
                              UefiShellLevel1CommandsLib.obj (symbol from plugin) (ShellCommandRunShift)
/home/vsts/work/1/edk2/Build/Lumia950XL-AARCH64/DEBUG_GCC5/AARCH64/ShellPkg/Library/UefiShellLevel1CommandsLib/UefiShellLevel1CommandsLib/OUTPUT/UefiShellLevel1CommandsLib.lib(Stall.obj)
                              UefiShellLevel1CommandsLib.obj (symbol from plugin) (ShellCommandRunStall)
/home/vsts/work/1/edk2/Build/Lumia950XL-AARCH64/DEBUG_GCC5/AARCH64/ShellPkg/Library/UefiShellLevel1CommandsLib/UefiShellLevel1CommandsLib/OUTPUT/UefiShellLevel1CommandsLib.lib(AutoGen.obj)
                              UefiShellLevel1CommandsLib.obj (symbol from plugin) (UefiShellLevel1CommandsLibStrings)
/home/vsts/work/1/edk2/Build/Lumia950XL-AARCH64/DEBUG_GCC5/AARCH64/ShellPkg/Library/UefiShellLevel3CommandsLib/UefiShellLevel3CommandsLib/OUTPUT/UefiShellLevel3CommandsLib.lib(UefiShellLevel3CommandsLib.obj)
                              AutoGen.obj (symbol from plugin) (ShellLevel3CommandsLibConstructor)
/home/vsts/work/1/edk2/Build/Lumia950XL-AARCH64/DEBUG_GCC5/AARCH64/ShellPkg/Library/UefiShellLevel3CommandsLib/UefiShellLevel3CommandsLib/OUTPUT/UefiShellLevel3CommandsLib.lib(Cls.obj)
                              UefiShellLevel3CommandsLib.obj (symbol from plugin) (ShellCommandRunCls)
/home/vsts/work/1/edk2/Build/Lumia950XL-AARCH64/DEBUG_GCC5/AARCH64/ShellPkg/Library/UefiShellLevel3CommandsLib/UefiShellLevel3CommandsLib/OUTPUT/UefiShellLevel3CommandsLib.lib(Alias.obj)
                              UefiShellLevel3CommandsLib.obj (symbol from plugin) (ShellCommandRunAlias)
/home/vsts/work/1/edk2/Build/Lumia950XL-AARCH64/DEBUG_GCC5/AARCH64/ShellPkg/Library/UefiShellLevel3CommandsLib/UefiShellLevel3CommandsLib/OUTPUT/UefiShellLevel3CommandsLib.lib(Echo.obj)
                              UefiShellLevel3CommandsLib.obj (symbol from plugin) (ShellCommandRunEcho)
/home/vsts/work/1/edk2/Build/Lumia950XL-AARCH64/DEBUG_GCC5/AARCH64/ShellPkg/Library/UefiShellLevel3CommandsLib/UefiShellLevel3CommandsLib/OUTPUT/UefiShellLevel3CommandsLib.lib(Pause.obj)
                              UefiShellLevel3CommandsLib.obj (symbol from plugin) (ShellCommandRunPause)
/home/vsts/work/1/edk2/Build/Lumia950XL-AARCH64/DEBUG_GCC5/AARCH64/ShellPkg/Library/UefiShellLevel3CommandsLib/UefiShellLevel3CommandsLib/OUTPUT/UefiShellLevel3CommandsLib.lib(GetMtc.obj)
                              UefiShellLevel3CommandsLib.obj (symbol from plugin) (ShellCommandRunGetMtc)
/home/vsts/work/1/edk2/Build/Lumia950XL-AARCH64/DEBUG_GCC5/AARCH64/ShellPkg/Library/UefiShellLevel3CommandsLib/UefiShellLevel3CommandsLib/OUTPUT/UefiShellLevel3CommandsLib.lib(Help.obj)
                              UefiShellLevel3CommandsLib.obj (symbol from plugin) (ShellCommandRunHelp)
/home/vsts/work/1/edk2/Build/Lumia950XL-AARCH64/DEBUG_GCC5/AARCH64/ShellPkg/Library/UefiShellLevel3CommandsLib/UefiShellLevel3CommandsLib/OUTPUT/UefiShellLevel3CommandsLib.lib(AutoGen.obj)
                              UefiShellLevel3CommandsLib.obj (symbol from plugin) (UefiShellLevel3CommandsLibStrings)
/home/vsts/work/1/edk2/Build/Lumia950XL-AARCH64/DEBUG_GCC5/AARCH64/ShellPkg/Library/UefiShellLevel3CommandsLib/UefiShellLevel3CommandsLib/OUTPUT/UefiShellLevel3CommandsLib.lib(Type.obj)
                              UefiShellLevel3CommandsLib.obj (symbol from plugin) (ShellCommandRunType)
/home/vsts/work/1/edk2/Build/Lumia950XL-AARCH64/DEBUG_GCC5/AARCH64/ShellPkg/Library/UefiShellLevel3CommandsLib/UefiShellLevel3CommandsLib/OUTPUT/UefiShellLevel3CommandsLib.lib(Touch.obj)
                              UefiShellLevel3CommandsLib.obj (symbol from plugin) (ShellCommandRunTouch)
/home/vsts/work/1/edk2/Build/Lumia950XL-AARCH64/DEBUG_GCC5/AARCH64/ShellPkg/Library/UefiShellLevel3CommandsLib/UefiShellLevel3CommandsLib/OUTPUT/UefiShellLevel3CommandsLib.lib(Ver.obj)
                              UefiShellLevel3CommandsLib.obj (symbol from plugin) (ShellCommandRunVer)
/home/vsts/work/1/edk2/Build/Lumia950XL-AARCH64/DEBUG_GCC5/AARCH64/ShellPkg/Library/UefiShellDriver1CommandsLib/UefiShellDriver1CommandsLib/OUTPUT/UefiShellDriver1CommandsLib.lib(UefiShellDriver1CommandsLib.obj)
                              AutoGen.obj (symbol from plugin) (UefiShellDriver1CommandsLibConstructor)
/home/vsts/work/1/edk2/Build/Lumia950XL-AARCH64/DEBUG_GCC5/AARCH64/ShellPkg/Library/UefiShellDriver1CommandsLib/UefiShellDriver1CommandsLib/OUTPUT/UefiShellDriver1CommandsLib.lib(AutoGen.obj)
                              UefiShellDriver1CommandsLib.obj (symbol from plugin) (UefiShellDriver1CommandsLibStrings)
/home/vsts/work/1/edk2/Build/Lumia950XL-AARCH64/DEBUG_GCC5/AARCH64/ShellPkg/Library/UefiShellDriver1CommandsLib/UefiShellDriver1CommandsLib/OUTPUT/UefiShellDriver1CommandsLib.lib(Connect.obj)
                              UefiShellDriver1CommandsLib.obj (symbol from plugin) (ShellCommandRunConnect)
/home/vsts/work/1/edk2/Build/Lumia950XL-AARCH64/DEBUG_GCC5/AARCH64/ShellPkg/Library/UefiShellDriver1CommandsLib/UefiShellDriver1CommandsLib/OUTPUT/UefiShellDriver1CommandsLib.lib(Devices.obj)
                              UefiShellDriver1CommandsLib.obj (symbol from plugin) (ShellCommandRunDevices)
/home/vsts/work/1/edk2/Build/Lumia950XL-AARCH64/DEBUG_GCC5/AARCH64/ShellPkg/Library/UefiShellDriver1CommandsLib/UefiShellDriver1CommandsLib/OUTPUT/UefiShellDriver1CommandsLib.lib(OpenInfo.obj)
                              UefiShellDriver1CommandsLib.obj (symbol from plugin) (ShellCommandRunOpenInfo)
/home/vsts/work/1/edk2/Build/Lumia950XL-AARCH64/DEBUG_GCC5/AARCH64/ShellPkg/Library/UefiShellDriver1CommandsLib/UefiShellDriver1CommandsLib/OUTPUT/UefiShellDriver1CommandsLib.lib(Disconnect.obj)
                              UefiShellDriver1CommandsLib.obj (symbol from plugin) (ShellCommandRunDisconnect)
/home/vsts/work/1/edk2/Build/Lumia950XL-AARCH64/DEBUG_GCC5/AARCH64/ShellPkg/Library/UefiShellDriver1CommandsLib/UefiShellDriver1CommandsLib/OUTPUT/UefiShellDriver1CommandsLib.lib(Reconnect.obj)
                              UefiShellDriver1CommandsLib.obj (symbol from plugin) (ShellCommandRunReconnect)
/home/vsts/work/1/edk2/Build/Lumia950XL-AARCH64/DEBUG_GCC5/AARCH64/ShellPkg/Library/UefiShellDriver1CommandsLib/UefiShellDriver1CommandsLib/OUTPUT/UefiShellDriver1CommandsLib.lib(Unload.obj)
                              UefiShellDriver1CommandsLib.obj (symbol from plugin) (ShellCommandRunUnload)
/home/vsts/work/1/edk2/Build/Lumia950XL-AARCH64/DEBUG_GCC5/AARCH64/ShellPkg/Library/UefiShellDriver1CommandsLib/UefiShellDriver1CommandsLib/OUTPUT/UefiShellDriver1CommandsLib.lib(DrvDiag.obj)
                              UefiShellDriver1CommandsLib.obj (symbol from plugin) (ShellCommandRunDrvDiag)
/home/vsts/work/1/edk2/Build/Lumia950XL-AARCH64/DEBUG_GCC5/AARCH64/ShellPkg/Library/UefiShellDriver1CommandsLib/UefiShellDriver1CommandsLib/OUTPUT/UefiShellDriver1CommandsLib.lib(Dh.obj)
                              UefiShellDriver1CommandsLib.obj (symbol from plugin) (ShellCommandRunDh)
/home/vsts/work/1/edk2/Build/Lumia950XL-AARCH64/DEBUG_GCC5/AARCH64/ShellPkg/Library/UefiShellDriver1CommandsLib/UefiShellDriver1CommandsLib/OUTPUT/UefiShellDriver1CommandsLib.lib(Drivers.obj)
                              UefiShellDriver1CommandsLib.obj (symbol from plugin) (ShellCommandRunDrivers)
/home/vsts/work/1/edk2/Build/Lumia950XL-AARCH64/DEBUG_GCC5/AARCH64/ShellPkg/Library/UefiShellDriver1CommandsLib/UefiShellDriver1CommandsLib/OUTPUT/UefiShellDriver1CommandsLib.lib(DevTree.obj)
                              UefiShellDriver1CommandsLib.obj (symbol from plugin) (ShellCommandRunDevTree)
/home/vsts/work/1/edk2/Build/Lumia950XL-AARCH64/DEBUG_GCC5/AARCH64/ShellPkg/Library/UefiShellDriver1CommandsLib/UefiShellDriver1CommandsLib/OUTPUT/UefiShellDriver1CommandsLib.lib(DrvCfg.obj)
                              UefiShellDriver1CommandsLib.obj (symbol from plugin) (ShellCommandRunDrvCfg)
/home/vsts/work/1/edk2/Build/Lumia950XL-AARCH64/DEBUG_GCC5/AARCH64/ShellPkg/Library/UefiShellDebug1CommandsLib/UefiShellDebug1CommandsLib/OUTPUT/UefiShellDebug1CommandsLib.lib(UefiShellDebug1CommandsLib.obj)
                              AutoGen.obj (symbol from plugin) (UefiShellDebug1CommandsLibConstructor)
/home/vsts/work/1/edk2/Build/Lumia950XL-AARCH64/DEBUG_GCC5/AARCH64/ShellPkg/Library/UefiShellDebug1CommandsLib/UefiShellDebug1CommandsLib/OUTPUT/UefiShellDebug1CommandsLib.lib(Edit.obj)
                              UefiShellDebug1CommandsLib.obj (symbol from plugin) (ShellCommandRunEdit)
/home/vsts/work/1/edk2/Build/Lumia950XL-AARCH64/DEBUG_GCC5/AARCH64/ShellPkg/Library/UefiShellDebug1CommandsLib/UefiShellDebug1CommandsLib/OUTPUT/UefiShellDebug1CommandsLib.lib(FileBuffer.obj)
                              Edit.obj (symbol from plugin) (FileBufferSetFileName)
/home/vsts/work/1/edk2/Build/Lumia950XL-AARCH64/DEBUG_GCC5/AARCH64/ShellPkg/Library/UefiShellDebug1CommandsLib/UefiShellDebug1CommandsLib/OUTPUT/UefiShellDebug1CommandsLib.lib(MainTextEditor.obj)
                              Edit.obj (symbol from plugin) (MainEditor)
/home/vsts/work/1/edk2/Build/Lumia950XL-AARCH64/DEBUG_GCC5/AARCH64/ShellPkg/Library/UefiShellDebug1CommandsLib/UefiShellDebug1CommandsLib/OUTPUT/UefiShellDebug1CommandsLib.lib(Misc.obj)
                              FileBuffer.obj (symbol from plugin) (LineDup)
/home/vsts/work/1/edk2/Build/Lumia950XL-AARCH64/DEBUG_GCC5/AARCH64/ShellPkg/Library/UefiShellDebug1CommandsLib/UefiShellDebug1CommandsLib/OUTPUT/UefiShellDebug1CommandsLib.lib(HexEdit.obj)
                              UefiShellDebug1CommandsLib.obj (symbol from plugin) (ShellCommandRunHexEdit)
/home/vsts/work/1/edk2/Build/Lumia950XL-AARCH64/DEBUG_GCC5/AARCH64/ShellPkg/Library/UefiShellDebug1CommandsLib/UefiShellDebug1CommandsLib/OUTPUT/UefiShellDebug1CommandsLib.lib(MainHexEditor.obj)
                              HexEdit.obj (symbol from plugin) (HMainEditorInit)
/home/vsts/work/1/edk2/Build/Lumia950XL-AARCH64/DEBUG_GCC5/AARCH64/ShellPkg/Library/UefiShellDebug1CommandsLib/UefiShellDebug1CommandsLib/OUTPUT/UefiShellDebug1CommandsLib.lib(Misc.obj)
                              MainHexEditor.obj (symbol from plugin) (HGetTextX)
/home/vsts/work/1/edk2/Build/Lumia950XL-AARCH64/DEBUG_GCC5/AARCH64/ShellPkg/Library/UefiShellDebug1CommandsLib/UefiShellDebug1CommandsLib/OUTPUT/UefiShellDebug1CommandsLib.lib(AutoGen.obj)
                              UefiShellDebug1CommandsLib.obj (symbol from plugin) (UefiShellDebug1CommandsLibStrings)
/home/vsts/work/1/edk2/Build/Lumia950XL-AARCH64/DEBUG_GCC5/AARCH64/ShellPkg/Library/UefiShellDebug1CommandsLib/UefiShellDebug1CommandsLib/OUTPUT/UefiShellDebug1CommandsLib.lib(SetSize.obj)
                              UefiShellDebug1CommandsLib.obj (symbol from plugin) (ShellCommandRunSetSize)
/home/vsts/work/1/edk2/Build/Lumia950XL-AARCH64/DEBUG_GCC5/AARCH64/ShellPkg/Library/UefiShellDebug1CommandsLib/UefiShellDebug1CommandsLib/OUTPUT/UefiShellDebug1CommandsLib.lib(Comp.obj)
                              UefiShellDebug1CommandsLib.obj (symbol from plugin) (ShellCommandRunComp)
/home/vsts/work/1/edk2/Build/Lumia950XL-AARCH64/DEBUG_GCC5/AARCH64/ShellPkg/Library/UefiShellDebug1CommandsLib/UefiShellDebug1CommandsLib/OUTPUT/UefiShellDebug1CommandsLib.lib(Mode.obj)
                              UefiShellDebug1CommandsLib.obj (symbol from plugin) (ShellCommandRunMode)
/home/vsts/work/1/edk2/Build/Lumia950XL-AARCH64/DEBUG_GCC5/AARCH64/ShellPkg/Library/UefiShellDebug1CommandsLib/UefiShellDebug1CommandsLib/OUTPUT/UefiShellDebug1CommandsLib.lib(MemMap.obj)
                              UefiShellDebug1CommandsLib.obj (symbol from plugin) (ShellCommandRunMemMap)
/home/vsts/work/1/edk2/Build/Lumia950XL-AARCH64/DEBUG_GCC5/AARCH64/ShellPkg/Library/UefiShellDebug1CommandsLib/UefiShellDebug1CommandsLib/OUTPUT/UefiShellDebug1CommandsLib.lib(EfiCompress.obj)
                              UefiShellDebug1CommandsLib.obj (symbol from plugin) (ShellCommandRunEfiCompress)
/home/vsts/work/1/edk2/Build/Lumia950XL-AARCH64/DEBUG_GCC5/AARCH64/ShellPkg/Library/UefiShellDebug1CommandsLib/UefiShellDebug1CommandsLib/OUTPUT/UefiShellDebug1CommandsLib.lib(EfiDecompress.obj)
                              UefiShellDebug1CommandsLib.obj (symbol from plugin) (ShellCommandRunEfiDecompress)
/home/vsts/work/1/edk2/Build/Lumia950XL-AARCH64/DEBUG_GCC5/AARCH64/ShellPkg/Library/UefiShellDebug1CommandsLib/UefiShellDebug1CommandsLib/OUTPUT/UefiShellDebug1CommandsLib.lib(Dmem.obj)
                              UefiShellDebug1CommandsLib.obj (symbol from plugin) (ShellCommandRunDmem)
/home/vsts/work/1/edk2/Build/Lumia950XL-AARCH64/DEBUG_GCC5/AARCH64/ShellPkg/Library/UefiShellDebug1CommandsLib/UefiShellDebug1CommandsLib/OUTPUT/UefiShellDebug1CommandsLib.lib(LoadPciRom.obj)
                              UefiShellDebug1CommandsLib.obj (symbol from plugin) (ShellCommandRunLoadPciRom)
/home/vsts/work/1/edk2/Build/Lumia950XL-AARCH64/DEBUG_GCC5/AARCH64/ShellPkg/Library/UefiShellDebug1CommandsLib/UefiShellDebug1CommandsLib/OUTPUT/UefiShellDebug1CommandsLib.lib(Mm.obj)
                              UefiShellDebug1CommandsLib.obj (symbol from plugin) (ShellCommandRunMm)
/home/vsts/work/1/edk2/Build/Lumia950XL-AARCH64/DEBUG_GCC5/AARCH64/ShellPkg/Library/UefiShellDebug1CommandsLib/UefiShellDebug1CommandsLib/OUTPUT/UefiShellDebug1CommandsLib.lib(SetVar.obj)
                              UefiShellDebug1CommandsLib.obj (symbol from plugin) (ShellCommandRunSetVar)
/home/vsts/work/1/edk2/Build/Lumia950XL-AARCH64/DEBUG_GCC5/AARCH64/ShellPkg/Library/UefiShellDebug1CommandsLib/UefiShellDebug1CommandsLib/OUTPUT/UefiShellDebug1CommandsLib.lib(SerMode.obj)
                              UefiShellDebug1CommandsLib.obj (symbol from plugin) (ShellCommandRunSerMode)
/home/vsts/work/1/edk2/Build/Lumia950XL-AARCH64/DEBUG_GCC5/AARCH64/ShellPkg/Library/UefiShellDebug1CommandsLib/UefiShellDebug1CommandsLib/OUTPUT/UefiShellDebug1CommandsLib.lib(Pci.obj)
                              UefiShellDebug1CommandsLib.obj (symbol from plugin) (ShellCommandRunPci)
/home/vsts/work/1/edk2/Build/Lumia950XL-AARCH64/DEBUG_GCC5/AARCH64/ShellPkg/Library/UefiShellDebug1CommandsLib/UefiShellDebug1CommandsLib/OUTPUT/UefiShellDebug1CommandsLib.lib(DmpStore.obj)
                              UefiShellDebug1CommandsLib.obj (symbol from plugin) (ShellCommandRunDmpStore)
/home/vsts/work/1/edk2/Build/Lumia950XL-AARCH64/DEBUG_GCC5/AARCH64/ShellPkg/Library/UefiShellDebug1CommandsLib/UefiShellDebug1CommandsLib/OUTPUT/UefiShellDebug1CommandsLib.lib(Dblk.obj)
                              UefiShellDebug1CommandsLib.obj (symbol from plugin) (ShellCommandRunDblk)
/home/vsts/work/1/edk2/Build/Lumia950XL-AARCH64/DEBUG_GCC5/AARCH64/ShellPkg/Library/UefiShellDebug1CommandsLib/UefiShellDebug1CommandsLib/OUTPUT/UefiShellDebug1CommandsLib.lib(SmbiosView.obj)
                              UefiShellDebug1CommandsLib.obj (symbol from plugin) (ShellCommandRunSmbiosView)
/home/vsts/work/1/edk2/Build/Lumia950XL-AARCH64/DEBUG_GCC5/AARCH64/ShellPkg/Library/UefiShellDebug1CommandsLib/UefiShellDebug1CommandsLib/OUTPUT/UefiShellDebug1CommandsLib.lib(LibSmbiosView.obj)
                              SmbiosView.obj (symbol from plugin) (LibSmbiosInit)
/home/vsts/work/1/edk2/Build/Lumia950XL-AARCH64/DEBUG_GCC5/AARCH64/ShellPkg/Library/UefiShellDebug1CommandsLib/UefiShellDebug1CommandsLib/OUTPUT/UefiShellDebug1CommandsLib.lib(EditTitleBar.obj)
                              MainTextEditor.obj (symbol from plugin) (MainTitleBarInit)
/home/vsts/work/1/edk2/Build/Lumia950XL-AARCH64/DEBUG_GCC5/AARCH64/ShellPkg/Library/UefiShellDebug1CommandsLib/UefiShellDebug1CommandsLib/OUTPUT/UefiShellDebug1CommandsLib.lib(EditInputBar.obj)
                              MainTextEditor.obj (symbol from plugin) (InputBarInit)
/home/vsts/work/1/edk2/Build/Lumia950XL-AARCH64/DEBUG_GCC5/AARCH64/ShellPkg/Library/UefiShellDebug1CommandsLib/UefiShellDebug1CommandsLib/OUTPUT/UefiShellDebug1CommandsLib.lib(EditStatusBar.obj)
                              MainTextEditor.obj (symbol from plugin) (StatusBarCleanup)
/home/vsts/work/1/edk2/Build/Lumia950XL-AARCH64/DEBUG_GCC5/AARCH64/ShellPkg/Library/UefiShellDebug1CommandsLib/UefiShellDebug1CommandsLib/OUTPUT/UefiShellDebug1CommandsLib.lib(EditMenuBar.obj)
                              MainTextEditor.obj (symbol from plugin) (MenuBarCleanup)
/home/vsts/work/1/edk2/Build/Lumia950XL-AARCH64/DEBUG_GCC5/AARCH64/ShellPkg/Library/UefiShellDebug1CommandsLib/UefiShellDebug1CommandsLib/OUTPUT/UefiShellDebug1CommandsLib.lib(BufferImage.obj)
                              MainHexEditor.obj (symbol from plugin) (HBufferImage)
/home/vsts/work/1/edk2/Build/Lumia950XL-AARCH64/DEBUG_GCC5/AARCH64/ShellPkg/Library/UefiShellDebug1CommandsLib/UefiShellDebug1CommandsLib/OUTPUT/UefiShellDebug1CommandsLib.lib(Clipboard.obj)
                              MainHexEditor.obj (symbol from plugin) (HClipBoardInit)
/home/vsts/work/1/edk2/Build/Lumia950XL-AARCH64/DEBUG_GCC5/AARCH64/ShellPkg/Library/UefiShellDebug1CommandsLib/UefiShellDebug1CommandsLib/OUTPUT/UefiShellDebug1CommandsLib.lib(DiskImage.obj)
                              BufferImage.obj (symbol from plugin) (HDiskImageInit)
/home/vsts/work/1/edk2/Build/Lumia950XL-AARCH64/DEBUG_GCC5/AARCH64/ShellPkg/Library/UefiShellDebug1CommandsLib/UefiShellDebug1CommandsLib/OUTPUT/UefiShellDebug1CommandsLib.lib(FileImage.obj)
                              BufferImage.obj (symbol from plugin) (HFileImageInit)
/home/vsts/work/1/edk2/Build/Lumia950XL-AARCH64/DEBUG_GCC5/AARCH64/ShellPkg/Library/UefiShellDebug1CommandsLib/UefiShellDebug1CommandsLib/OUTPUT/UefiShellDebug1CommandsLib.lib(MemImage.obj)
                              BufferImage.obj (symbol from plugin) (HMemImage)
/home/vsts/work/1/edk2/Build/Lumia950XL-AARCH64/DEBUG_GCC5/AARCH64/ShellPkg/Library/UefiShellDebug1CommandsLib/UefiShellDebug1CommandsLib/OUTPUT/UefiShellDebug1CommandsLib.lib(Compress.obj)
                              EfiCompress.obj (symbol from plugin) (Compress)
/home/vsts/work/1/edk2/Build/Lumia950XL-AARCH64/DEBUG_GCC5/AARCH64/ShellPkg/Library/UefiShellDebug1CommandsLib/UefiShellDebug1CommandsLib/OUTPUT/UefiShellDebug1CommandsLib.lib(PrintInfo.obj)
                              SmbiosView.obj (symbol from plugin) (SmbiosPrintEPSInfo)
/home/vsts/work/1/edk2/Build/Lumia950XL-AARCH64/DEBUG_GCC5/AARCH64/ShellPkg/Library/UefiShellDebug1CommandsLib/UefiShellDebug1CommandsLib/OUTPUT/UefiShellDebug1CommandsLib.lib(QueryTable.obj)
                              PrintInfo.obj (symbol from plugin) (DisplaySystemWakeupType)
/home/vsts/work/1/edk2/Build/Lumia950XL-AARCH64/DEBUG_GCC5/AARCH64/ShellPkg/Library/UefiShellDebug1CommandsLib/UefiShellDebug1CommandsLib/OUTPUT/UefiShellDebug1CommandsLib.lib(EventLogInfo.obj)
                              PrintInfo.obj (symbol from plugin) (DisplaySELAccessMethod)
/home/vsts/work/1/edk2/Build/Lumia950XL-AARCH64/DEBUG_GCC5/AARCH64/ShellPkg/Library/UefiShellInstall1CommandsLib/UefiShellInstall1CommandsLib/OUTPUT/UefiShellInstall1CommandsLib.lib(UefiShellInstall1CommandsLib.obj)
                              AutoGen.obj (symbol from plugin) (ShellInstall1CommandsLibConstructor)
/home/vsts/work/1/edk2/Build/Lumia950XL-AARCH64/DEBUG_GCC5/AARCH64/ShellPkg/Library/UefiShellNetwork1CommandsLib/UefiShellNetwork1CommandsLib/OUTPUT/UefiShellNetwork1CommandsLib.lib(UefiShellNetwork1CommandsLib.obj)
                              AutoGen.obj (symbol from plugin) (ShellNetwork1CommandsLibConstructor)
/home/vsts/work/1/edk2/Build/Lumia950XL-AARCH64/DEBUG_GCC5/AARCH64/ShellPkg/Library/UefiShellNetwork1CommandsLib/UefiShellNetwork1CommandsLib/OUTPUT/UefiShellNetwork1CommandsLib.lib(Ping.obj)
                              UefiShellNetwork1CommandsLib.obj (symbol from plugin) (ShellCommandRunPing)
/home/vsts/work/1/edk2/Build/Lumia950XL-AARCH64/DEBUG_GCC5/AARCH64/ShellPkg/Library/UefiShellNetwork1CommandsLib/UefiShellNetwork1CommandsLib/OUTPUT/UefiShellNetwork1CommandsLib.lib(Ifconfig.obj)
                              UefiShellNetwork1CommandsLib.obj (symbol from plugin) (ShellCommandRunIfconfig)
/home/vsts/work/1/edk2/Build/Lumia950XL-AARCH64/DEBUG_GCC5/AARCH64/ShellPkg/Library/UefiShellNetwork1CommandsLib/UefiShellNetwork1CommandsLib/OUTPUT/UefiShellNetwork1CommandsLib.lib(AutoGen.obj)
                              UefiShellNetwork1CommandsLib.obj (symbol from plugin) (UefiShellNetwork1CommandsLibStrings)
/home/vsts/work/1/edk2/Build/Lumia950XL-AARCH64/DEBUG_GCC5/AARCH64/MdePkg/Library/BaseMemoryLib/BaseMemoryLib/OUTPUT/BaseMemoryLib.lib(CompareMemWrapper.obj)
                              HiiLib.obj (symbol from plugin) (CompareMem)
/home/vsts/work/1/edk2/Build/Lumia950XL-AARCH64/DEBUG_GCC5/AARCH64/MdePkg/Library/BaseLib/BaseLib/OUTPUT/BaseLib.lib(SwapBytes64.obj)
                              DevicePathFromText.obj (symbol from plugin) (SwapBytes64)
/home/vsts/work/1/edk2/Build/Lumia950XL-AARCH64/DEBUG_GCC5/AARCH64/MdePkg/Library/BaseLib/BaseLib/OUTPUT/BaseLib.lib(MultU64x64.obj)
                              MemMap.obj (symbol from plugin) (MultU64x64)
/home/vsts/work/1/edk2/Build/Lumia950XL-AARCH64/DEBUG_GCC5/AARCH64/MdePkg/Library/BaseLib/BaseLib/OUTPUT/BaseLib.lib(ModU64x32.obj)
                              MainHexEditor.obj (symbol from plugin) (ModU64x32)
/home/vsts/work/1/edk2/Build/Lumia950XL-AARCH64/DEBUG_GCC5/AARCH64/MdePkg/Library/BaseLib/BaseLib/OUTPUT/BaseLib.lib(DivU64x64Remainder.obj)
                              Ping.obj (symbol from plugin) (DivU64x64Remainder)
/home/vsts/work/1/edk2/Build/Lumia950XL-AARCH64/DEBUG_GCC5/AARCH64/MdePkg/Library/BaseLib/BaseLib/OUTPUT/BaseLib.lib(DivU64x32Remainder.obj)
                              PrintLibInternal.obj (symbol from plugin) (DivU64x32Remainder)
/home/vsts/work/1/edk2/Build/Lumia950XL-AARCH64/DEBUG_GCC5/AARCH64/MdePkg/Library/BaseLib/BaseLib/OUTPUT/BaseLib.lib(BitField.obj)
                              HiiLib.obj (symbol from plugin) (BitFieldRead32)
/home/vsts/work/1/edk2/Build/Lumia950XL-AARCH64/DEBUG_GCC5/AARCH64/MdePkg/Library/BaseLib/BaseLib/OUTPUT/BaseLib.lib(CpuDeadLoop.obj)
                              DebugLib.obj (symbol from plugin) (CpuDeadLoop)
/home/vsts/work/1/edk2/Build/Lumia950XL-AARCH64/DEBUG_GCC5/AARCH64/MdePkg/Library/BaseLib/BaseLib/OUTPUT/BaseLib.lib(CpuBreakpoint.obj)
                              DebugLib.obj (symbol from plugin) (CpuBreakpoint)
/home/vsts/work/1/edk2/Build/Lumia950XL-AARCH64/DEBUG_GCC5/AARCH64/MdePkg/Library/BaseIoLibIntrinsic/BaseIoLibIntrinsic/OUTPUT/BaseIoLibIntrinsic.lib(IoLibArm.obj)
                              Mm.obj (symbol from plugin) (IoRead8)
/home/vsts/work/1/edk2/Build/Lumia950XL-AARCH64/DEBUG_GCC5/AARCH64/MdePkg/Library/BaseDebugPrintErrorLevelLib/BaseDebugPrintErrorLevelLib/OUTPUT/BaseDebugPrintErrorLevelLib.lib(BaseDebugPrintErrorLevelLib.obj)
                              DebugLib.obj (symbol from plugin) (GetDebugPrintErrorLevel)
/home/vsts/work/1/edk2/Build/Lumia950XL-AARCH64/DEBUG_GCC5/AARCH64/Lumia950XLPkg/Library/FrameBufferSerialPortLib/FrameBufferSerialPortLib/OUTPUT/FrameBufferSerialPortLib.lib(FrameBufferSerialPortLib.obj)
                              DebugLib.obj (symbol from plugin) (SerialPortInitialize)
/home/vsts/work/1/edk2/Build/Lumia950XL-AARCH64/DEBUG_GCC5/AARCH64/MdePkg/Library/UefiLib/UefiLib/OUTPUT/UefiLib.lib(UefiLibPrint.obj)
                              DrvCfg.obj (symbol from plugin) (Print)
/home/vsts/work/1/edk2/Build/Lumia950XL-AARCH64/DEBUG_GCC5/AARCH64/MdePkg/Library/UefiLib/UefiLib/OUTPUT/UefiLib.lib(UefiNotTiano.obj)
                              UefiHandleParsingLib.obj (symbol from plugin) (EfiGetNameGuidFromFwVolDevicePathNode)
/home/vsts/work/1/edk2/Build/Lumia950XL-AARCH64/DEBUG_GCC5/AARCH64/MdePkg/Library/BasePeCoffGetEntryPointLib/BasePeCoffGetEntryPointLib/OUTPUT/BasePeCoffGetEntryPointLib.lib(PeCoffGetEntryPoint.obj)
                              UefiHandleParsingLib.obj (symbol from plugin) (PeCoffLoaderGetPdbPointer)
/home/vsts/work/1/edk2/Build/Lumia950XL-AARCH64/DEBUG_GCC5/AARCH64/ShellPkg/Library/UefiShellBcfgCommandLib/UefiShellBcfgCommandLib/OUTPUT/UefiShellBcfgCommandLib.lib(UefiShellBcfgCommandLib.obj)
                              UefiShellDebug1CommandsLib.obj (symbol from plugin) (BcfgLibraryRegisterBcfgCommand)
/home/vsts/work/1/edk2/Build/Lumia950XL-AARCH64/DEBUG_GCC5/AARCH64/ShellPkg/Library/UefiShellBcfgCommandLib/UefiShellBcfgCommandLib/OUTPUT/UefiShellBcfgCommandLib.lib(AutoGen.obj)
                              UefiShellBcfgCommandLib.obj (symbol from plugin) (UefiShellBcfgCommandLibStrings)
/home/vsts/work/1/edk2/Build/Lumia950XL-AARCH64/DEBUG_GCC5/AARCH64/MdeModulePkg/Library/DxeNetLib/DxeNetLib/OUTPUT/DxeNetLib.lib(DxeNetLib.obj)
                              Ifconfig.obj (symbol from plugin) (NetIp4IsUnicast)
/home/vsts/work/1/edk2/Build/Lumia950XL-AARCH64/DEBUG_GCC5/AARCH64/MdeModulePkg/Library/DxeNetLib/DxeNetLib/OUTPUT/DxeNetLib.lib(NetBuffer.obj)
                              DxeNetLib.obj (symbol from plugin) (NetblockChecksum)
/home/vsts/work/1/edk2/Build/Lumia950XL-AARCH64/DEBUG_GCC5/AARCH64/ArmPkg/Library/ArmLib/ArmBaseLib/OUTPUT/ArmBaseLib.lib(ArmLibSupport.obj)
                              FrameBufferSerialPortLib.obj (symbol from plugin) (ArmGetInterruptState)
/home/vsts/work/1/edk2/Build/Lumia950XL-AARCH64/DEBUG_GCC5/AARCH64/ArmPkg/Library/ArmLib/ArmBaseLib/OUTPUT/ArmBaseLib.lib(ArmLibSupportV8.obj)
                              FrameBufferSerialPortLib.obj (symbol from plugin) (ArmEnableInterrupts)
/home/vsts/work/1/edk2/Build/Lumia950XL-AARCH64/DEBUG_GCC5/AARCH64/ArmPkg/Library/ArmCacheMaintenanceLib/ArmCacheMaintenanceLib/OUTPUT/ArmCacheMaintenanceLib.lib(ArmCacheMaintenanceLib.obj)
                              FrameBufferSerialPortLib.obj (symbol from plugin) (WriteBackInvalidateDataCacheRange)
/home/vsts/work/1/edk2/Build/Lumia950XL-AARCH64/DEBUG_GCC5/AARCH64/MdeModulePkg/Library/UefiBootManagerLib/UefiBootManagerLib/OUTPUT/UefiBootManagerLib.lib(BmLoadOption.obj)
                              UefiShellBcfgCommandLib.obj (symbol from plugin) (EfiBootManagerLoadOptionToVariable)
/home/vsts/work/1/edk2/Build/Lumia950XL-AARCH64/DEBUG_GCC5/AARCH64/MdeModulePkg/Library/UefiBootManagerLib/UefiBootManagerLib/OUTPUT/UefiBootManagerLib.lib(BmConnect.obj)
                              BmLoadOption.obj (symbol from plugin) (EfiBootManagerConnectDevicePath)
/home/vsts/work/1/edk2/Build/Lumia950XL-AARCH64/DEBUG_GCC5/AARCH64/MdeModulePkg/Library/UefiBootManagerLib/UefiBootManagerLib/OUTPUT/UefiBootManagerLib.lib(BmMisc.obj)
                              BmLoadOption.obj (symbol from plugin) (BmPrintDp)
/home/vsts/work/1/edk2/Build/Lumia950XL-AARCH64/DEBUG_GCC5/AARCH64/MdeModulePkg/Library/UefiBootManagerLib/UefiBootManagerLib/OUTPUT/UefiBootManagerLib.lib(BmConsole.obj)
                              BmConnect.obj (symbol from plugin) (EfiBootManagerConnectAllDefaultConsoles)
/home/vsts/work/1/edk2/Build/Lumia950XL-AARCH64/DEBUG_GCC5/AARCH64/MdeModulePkg/Library/UefiBootManagerLib/UefiBootManagerLib/OUTPUT/UefiBootManagerLib.lib(BmBoot.obj)
                              BmLoadOption.obj (symbol from plugin) (BmGetRamDiskDevicePath)
/home/vsts/work/1/edk2/Build/Lumia950XL-AARCH64/DEBUG_GCC5/AARCH64/MdeModulePkg/Library/UefiBootManagerLib/UefiBootManagerLib/OUTPUT/UefiBootManagerLib.lib(BmBootDescription.obj)
                              BmBoot.obj (symbol from plugin) (BmGetBootDescription)
/home/vsts/work/1/edk2/Build/Lumia950XL-AARCH64/DEBUG_GCC5/AARCH64/MdeModulePkg/Library/UefiBootManagerLib/UefiBootManagerLib/OUTPUT/UefiBootManagerLib.lib(BmHotkey.obj)
                              BmBoot.obj (symbol from plugin) (BmStopHotkeyService)
/home/vsts/work/1/edk2/Build/Lumia950XL-AARCH64/DEBUG_GCC5/AARCH64/MdeModulePkg/Library/UefiBootManagerLib/UefiBootManagerLib/OUTPUT/UefiBootManagerLib.lib(BmDriverHealth.obj)
                              BmBoot.obj (symbol from plugin) (BmRepairAllControllers)
/home/vsts/work/1/edk2/Build/Lumia950XL-AARCH64/DEBUG_GCC5/AARCH64/MdePkg/Library/BaseLib/BaseLib/OUTPUT/BaseLib.lib(LowBitSet32.obj)
                              BmHotkey.obj (symbol from plugin) (LowBitSet32)
/home/vsts/work/1/edk2/Build/Lumia950XL-AARCH64/DEBUG_GCC5/AARCH64/ArmPkg/Library/ArmLib/ArmBaseLib/OUTPUT/ArmBaseLib.lib(ArmLib.obj)
                              ArmCacheMaintenanceLib.obj (symbol from plugin) (ArmDataCacheLineLength)
/home/vsts/work/1/edk2/Build/Lumia950XL-AARCH64/DEBUG_GCC5/AARCH64/ArmPkg/Library/ArmLib/ArmBaseLib/OUTPUT/ArmBaseLib.lib(AArch64Support.obj)
                              ArmCacheMaintenanceLib.obj (symbol from plugin) (ArmInvalidateDataCacheEntryByMVA)
/home/vsts/work/1/edk2/Build/Lumia950XL-AARCH64/DEBUG_GCC5/AARCH64/MdeModulePkg/Library/DxeReportStatusCodeLib/DxeReportStatusCodeLib/OUTPUT/DxeReportStatusCodeLib.lib(ReportStatusCodeLib.obj)
                              BmMisc.obj (symbol from plugin) (ReportProgressCodeEnabled)
/home/vsts/work/1/edk2/Build/Lumia950XL-AARCH64/DEBUG_GCC5/AARCH64/MdePkg/Library/DxeServicesLib/DxeServicesLib/OUTPUT/DxeServicesLib.lib(DxeServicesLib.obj)
                              BmBoot.obj (symbol from plugin) (GetSectionFromFv)
/home/vsts/work/1/edk2/Build/Lumia950XL-AARCH64/DEBUG_GCC5/AARCH64/MdeModulePkg/Library/DxePerformanceLib/DxePerformanceLib/OUTPUT/DxePerformanceLib.lib(DxePerformanceLib.obj)
                              BmBoot.obj (symbol from plugin) (StartPerformanceMeasurementEx)

Discarded input sections

 .text          0x0000000000000000       0x10 /home/vsts/work/1/edk2/ArmPkg/Library/GccLto/liblto-aarch64.a
 .data          0x0000000000000000        0x0 /home/vsts/work/1/edk2/ArmPkg/Library/GccLto/liblto-aarch64.a
 .bss           0x0000000000000000        0x0 /home/vsts/work/1/edk2/ArmPkg/Library/GccLto/liblto-aarch64.a
 .text          0x0000000000000000        0x0 /tmp/ccfdZ3Du.ltrans0.ltrans.o
 .data          0x0000000000000000        0x0 /tmp/ccfdZ3Du.ltrans0.ltrans.o
 .bss           0x0000000000000000        0x0 /tmp/ccfdZ3Du.ltrans0.ltrans.o
 .comment       0x0000000000000000       0x2e /tmp/ccfdZ3Du.ltrans0.ltrans.o
 .text          0x0000000000000000        0x0 /tmp/ccfdZ3Du.ltrans1.ltrans.o
 .data          0x0000000000000000        0x0 /tmp/ccfdZ3Du.ltrans1.ltrans.o
 .bss           0x0000000000000000        0x0 /tmp/ccfdZ3Du.ltrans1.ltrans.o
 .rodata._gPcd_FixedAtBuild_PcdShellDecodeIScsiMapNames
                0x0000000000000000        0x1 /tmp/ccfdZ3Du.ltrans1.ltrans.o
 .rodata._gPcd_FixedAtBuild_PcdUsbExtendedDecode
                0x0000000000000000        0x1 /tmp/ccfdZ3Du.ltrans1.ltrans.o
 .comment       0x0000000000000000       0x2e /tmp/ccfdZ3Du.ltrans1.ltrans.o
 .text          0x0000000000000000        0x0 /tmp/ccfdZ3Du.ltrans2.ltrans.o
 .data          0x0000000000000000        0x0 /tmp/ccfdZ3Du.ltrans2.ltrans.o
 .bss           0x0000000000000000        0x0 /tmp/ccfdZ3Du.ltrans2.ltrans.o
 .rodata.SupportLevel
                0x0000000000000000       0x20 /tmp/ccfdZ3Du.ltrans2.ltrans.o
 .rodata._gPcd_FixedAtBuild_PcdShellFileOperationSize
                0x0000000000000000        0x4 /tmp/ccfdZ3Du.ltrans2.ltrans.o
 .rodata._gPcd_FixedAtBuild_PcdShellScreenLogCount
                0x0000000000000000        0x1 /tmp/ccfdZ3Du.ltrans2.ltrans.o
 .rodata.str2.2
                0x0000000000000000       0x30 /tmp/ccfdZ3Du.ltrans2.ltrans.o
 .comment       0x0000000000000000       0x2e /tmp/ccfdZ3Du.ltrans2.ltrans.o
 .text          0x0000000000000000        0x0 /tmp/ccfdZ3Du.ltrans3.ltrans.o
 .data          0x0000000000000000        0x0 /tmp/ccfdZ3Du.ltrans3.ltrans.o
 .bss           0x0000000000000000        0x0 /tmp/ccfdZ3Du.ltrans3.ltrans.o
 .text.__memset
                0x0000000000000000       0x1c /tmp/ccfdZ3Du.ltrans3.ltrans.o
 .comment       0x0000000000000000       0x2e /tmp/ccfdZ3Du.ltrans3.ltrans.o
 .text          0x0000000000000000        0x0 /tmp/ccfdZ3Du.ltrans4.ltrans.o
 .data          0x0000000000000000        0x0 /tmp/ccfdZ3Du.ltrans4.ltrans.o
 .bss           0x0000000000000000        0x0 /tmp/ccfdZ3Du.ltrans4.ltrans.o
 .comment       0x0000000000000000       0x2e /tmp/ccfdZ3Du.ltrans4.ltrans.o
 .text          0x0000000000000000        0x0 /tmp/ccfdZ3Du.ltrans5.ltrans.o
 .data          0x0000000000000000        0x0 /tmp/ccfdZ3Du.ltrans5.ltrans.o
 .bss           0x0000000000000000        0x0 /tmp/ccfdZ3Du.ltrans5.ltrans.o
 .comment       0x0000000000000000       0x2e /tmp/ccfdZ3Du.ltrans5.ltrans.o
 .text          0x0000000000000000        0x0 /tmp/ccfdZ3Du.ltrans6.ltrans.o
 .data          0x0000000000000000        0x0 /tmp/ccfdZ3Du.ltrans6.ltrans.o
 .bss           0x0000000000000000        0x0 /tmp/ccfdZ3Du.ltrans6.ltrans.o
 .comment       0x0000000000000000       0x2e /tmp/ccfdZ3Du.ltrans6.ltrans.o
 .text          0x0000000000000000        0x0 /tmp/ccfdZ3Du.ltrans7.ltrans.o
 .data          0x0000000000000000        0x0 /tmp/ccfdZ3Du.ltrans7.ltrans.o
 .bss           0x0000000000000000        0x0 /tmp/ccfdZ3Du.ltrans7.ltrans.o
 .rodata._gPcd_FixedAtBuild_PcdMaximumUnicodeStringLength
                0x0000000000000000        0x4 /tmp/ccfdZ3Du.ltrans7.ltrans.o
 .rodata._gPcd_FixedAtBuild_PcdShellPrintBufferSize
                0x0000000000000000        0x2 /tmp/ccfdZ3Du.ltrans7.ltrans.o
 .rodata._gUefiDriverRevision
                0x0000000000000000        0x4 /tmp/ccfdZ3Du.ltrans7.ltrans.o
 .rodata.gBpp   0x0000000000000000        0x8 /tmp/ccfdZ3Du.ltrans7.ltrans.o
 .rodata.gHeight
                0x0000000000000000        0x8 /tmp/ccfdZ3Du.ltrans7.ltrans.o
 .rodata.gWidth
                0x0000000000000000        0x8 /tmp/ccfdZ3Du.ltrans7.ltrans.o
 .comment       0x0000000000000000       0x2e /tmp/ccfdZ3Du.ltrans7.ltrans.o
 .text          0x0000000000000000        0x0 /tmp/ccfdZ3Du.ltrans8.ltrans.o
 .data          0x0000000000000000        0x0 /tmp/ccfdZ3Du.ltrans8.ltrans.o
 .bss           0x0000000000000000        0x0 /tmp/ccfdZ3Du.ltrans8.ltrans.o
 .text.IsNodeInList
                0x0000000000000000       0xb0 /tmp/ccfdZ3Du.ltrans8.ltrans.o
 .comment       0x0000000000000000       0x2e /tmp/ccfdZ3Du.ltrans8.ltrans.o
 .text          0x0000000000000000        0x0 /tmp/ccfdZ3Du.ltrans9.ltrans.o
 .data          0x0000000000000000        0x0 /tmp/ccfdZ3Du.ltrans9.ltrans.o
 .bss           0x0000000000000000        0x0 /tmp/ccfdZ3Du.ltrans9.ltrans.o
 .rodata._gPcd_FixedAtBuild_PcdShellProfileMask
                0x0000000000000000        0x1 /tmp/ccfdZ3Du.ltrans9.ltrans.o
 .comment       0x0000000000000000       0x2e /tmp/ccfdZ3Du.ltrans9.ltrans.o
 .text          0x0000000000000000        0x0 /tmp/ccfdZ3Du.ltrans10.ltrans.o
 .data          0x0000000000000000        0x0 /tmp/ccfdZ3Du.ltrans10.ltrans.o
 .bss           0x0000000000000000        0x0 /tmp/ccfdZ3Du.ltrans10.ltrans.o
 .comment       0x0000000000000000       0x2e /tmp/ccfdZ3Du.ltrans10.ltrans.o
 .text          0x0000000000000000        0x0 memcpy.obj (symbol from plugin)
 .text          0x0000000000000000        0x0 memset.obj (symbol from plugin)
 .text          0x0000000000000000        0x0 ApplicationEntryPoint.obj (symbol from plugin)
 .text          0x0000000000000000        0x0 AutoGen.obj (symbol from plugin)
 .text          0x0000000000000000        0x0 Shell.obj (symbol from plugin)
 .text          0x0000000000000000        0x0 ShellParametersProtocol.obj (symbol from plugin)
 .text          0x0000000000000000        0x0 ShellProtocol.obj (symbol from plugin)
 .text          0x0000000000000000        0x0 FileHandleWrappers.obj (symbol from plugin)
 .text          0x0000000000000000        0x0 ShellEnvVar.obj (symbol from plugin)
 .text          0x0000000000000000        0x0 ShellManParser.obj (symbol from plugin)
 .text          0x0000000000000000        0x0 ConsoleLogger.obj (symbol from plugin)
 .text          0x0000000000000000        0x0 ConsoleWrappers.obj (symbol from plugin)
 .text          0x0000000000000000        0x0 ScanMem16Wrapper.obj (symbol from plugin)
 .text          0x0000000000000000        0x0 ZeroMemWrapper.obj (symbol from plugin)
 .text          0x0000000000000000        0x0 SetMem16Wrapper.obj (symbol from plugin)
 .text          0x0000000000000000        0x0 SetMemWrapper.obj (symbol from plugin)
 .text          0x0000000000000000        0x0 CopyMemWrapper.obj (symbol from plugin)
 .text          0x0000000000000000        0x0 MemLibGeneric.obj (symbol from plugin)
 .text          0x0000000000000000        0x0 MemLibGuid.obj (symbol from plugin)
 .text          0x0000000000000000        0x0 CopyMem.obj (symbol from plugin)
 .text          0x0000000000000000        0x0 SetMem.obj (symbol from plugin)
 .text          0x0000000000000000        0x0 SetMem64Wrapper.obj (symbol from plugin)
 .text          0x0000000000000000        0x0 LShiftU64.obj (symbol from plugin)
 .text          0x0000000000000000        0x0 LinkedList.obj (symbol from plugin)
 .text          0x0000000000000000        0x0 SafeString.obj (symbol from plugin)
 .text          0x0000000000000000        0x0 String.obj (symbol from plugin)
 .text          0x0000000000000000        0x0 FilePaths.obj (symbol from plugin)
 .text          0x0000000000000000        0x0 Unaligned.obj (symbol from plugin)
 .text          0x0000000000000000        0x0 Math64.obj (symbol from plugin)
 .text          0x0000000000000000        0x0 SwapBytes32.obj (symbol from plugin)
 .text          0x0000000000000000        0x0 SwapBytes16.obj (symbol from plugin)
 .text          0x0000000000000000        0x0 RShiftU64.obj (symbol from plugin)
 .text          0x0000000000000000        0x0 MultU64x32.obj (symbol from plugin)
 .text          0x0000000000000000        0x0 DivU64x32.obj (symbol from plugin)
 .text          0x0000000000000000        0x0 PrintLib.obj (symbol from plugin)
 .text          0x0000000000000000        0x0 PrintLibInternal.obj (symbol from plugin)
 .text          0x0000000000000000        0x0 DebugLib.obj (symbol from plugin)
 .text          0x0000000000000000        0x0 UefiBootServicesTableLib.obj (symbol from plugin)
 .text          0x0000000000000000        0x0 MemoryAllocationLib.obj (symbol from plugin)
 .text          0x0000000000000000        0x0 DevicePathUtilities.obj (symbol from plugin)
 .text          0x0000000000000000        0x0 UefiDevicePathLib.obj (symbol from plugin)
 .text          0x0000000000000000        0x0 DevicePathToText.obj (symbol from plugin)
 .text          0x0000000000000000        0x0 DevicePathFromText.obj (symbol from plugin)
 .text          0x0000000000000000        0x0 UefiRuntimeServicesTableLib.obj (symbol from plugin)
 .text          0x0000000000000000        0x0 UefiLib.obj (symbol from plugin)
 .text          0x0000000000000000        0x0 HobLib.obj (symbol from plugin)
 .text          0x0000000000000000        0x0 UefiHiiServicesLib.obj (symbol from plugin)
 .text          0x0000000000000000        0x0 UefiSortLib.obj (symbol from plugin)
 .text          0x0000000000000000        0x0 HiiLib.obj (symbol from plugin)
 .text          0x0000000000000000        0x0 HiiString.obj (symbol from plugin)
 .text          0x0000000000000000        0x0 HiiLanguage.obj (symbol from plugin)
 .text          0x0000000000000000        0x0 UefiFileHandleLib.obj (symbol from plugin)
 .text          0x0000000000000000        0x0 DxeServicesTableLib.obj (symbol from plugin)
 .text          0x0000000000000000        0x0 UefiShellLib.obj (symbol from plugin)
 .text          0x0000000000000000        0x0 UefiHandleParsingLib.obj (symbol from plugin)
 .text          0x0000000000000000        0x0 AutoGen.obj (symbol from plugin)
 .text          0x0000000000000000        0x0 UefiShellCommandLib.obj (symbol from plugin)
 .text          0x0000000000000000        0x0 ConsistMapping.obj (symbol from plugin)
 .text          0x0000000000000000        0x0 UefiShellLevel2CommandsLib.obj (symbol from plugin)
 .text          0x0000000000000000        0x0 TimeDate.obj (symbol from plugin)
 .text          0x0000000000000000        0x0 Load.obj (symbol from plugin)
 .text          0x0000000000000000        0x0 Ls.obj (symbol from plugin)
 .text          0x0000000000000000        0x0 Map.obj (symbol from plugin)
 .text          0x0000000000000000        0x0 Reset.obj (symbol from plugin)
 .text          0x0000000000000000        0x0 Set.obj (symbol from plugin)
 .text          0x0000000000000000        0x0 MkDir.obj (symbol from plugin)
 .text          0x0000000000000000        0x0 Cd.obj (symbol from plugin)
 .text          0x0000000000000000        0x0 Cp.obj (symbol from plugin)
 .text          0x0000000000000000        0x0 Parse.obj (symbol from plugin)
 .text          0x0000000000000000        0x0 Rm.obj (symbol from plugin)
 .text          0x0000000000000000        0x0 Mv.obj (symbol from plugin)
 .text          0x0000000000000000        0x0 Attrib.obj (symbol from plugin)
 .text          0x0000000000000000        0x0 Vol.obj (symbol from plugin)
 .text          0x0000000000000000        0x0 AutoGen.obj (symbol from plugin)
 .text          0x0000000000000000        0x0 UefiShellLevel1CommandsLib.obj (symbol from plugin)
 .text          0x0000000000000000        0x0 Exit.obj (symbol from plugin)
 .text          0x0000000000000000        0x0 Goto.obj (symbol from plugin)
 .text          0x0000000000000000        0x0 If.obj (symbol from plugin)
 .text          0x0000000000000000        0x0 For.obj (symbol from plugin)
 .text          0x0000000000000000        0x0 Shift.obj (symbol from plugin)
 .text          0x0000000000000000        0x0 Stall.obj (symbol from plugin)
 .text          0x0000000000000000        0x0 AutoGen.obj (symbol from plugin)
 .text          0x0000000000000000        0x0 UefiShellLevel3CommandsLib.obj (symbol from plugin)
 .text          0x0000000000000000        0x0 Cls.obj (symbol from plugin)
 .text          0x0000000000000000        0x0 Alias.obj (symbol from plugin)
 .text          0x0000000000000000        0x0 Echo.obj (symbol from plugin)
 .text          0x0000000000000000        0x0 Pause.obj (symbol from plugin)
 .text          0x0000000000000000        0x0 GetMtc.obj (symbol from plugin)
 .text          0x0000000000000000        0x0 Help.obj (symbol from plugin)
 .text          0x0000000000000000        0x0 AutoGen.obj (symbol from plugin)
 .text          0x0000000000000000        0x0 Type.obj (symbol from plugin)
 .text          0x0000000000000000        0x0 Touch.obj (symbol from plugin)
 .text          0x0000000000000000        0x0 Ver.obj (symbol from plugin)
 .text          0x0000000000000000        0x0 UefiShellDriver1CommandsLib.obj (symbol from plugin)
 .text          0x0000000000000000        0x0 AutoGen.obj (symbol from plugin)
 .text          0x0000000000000000        0x0 Connect.obj (symbol from plugin)
 .text          0x0000000000000000        0x0 Devices.obj (symbol from plugin)
 .text          0x0000000000000000        0x0 OpenInfo.obj (symbol from plugin)
 .text          0x0000000000000000        0x0 Disconnect.obj (symbol from plugin)
 .text          0x0000000000000000        0x0 Reconnect.obj (symbol from plugin)
 .text          0x0000000000000000        0x0 Unload.obj (symbol from plugin)
 .text          0x0000000000000000        0x0 DrvDiag.obj (symbol from plugin)
 .text          0x0000000000000000        0x0 Dh.obj (symbol from plugin)
 .text          0x0000000000000000        0x0 Drivers.obj (symbol from plugin)
 .text          0x0000000000000000        0x0 DevTree.obj (symbol from plugin)
 .text          0x0000000000000000        0x0 DrvCfg.obj (symbol from plugin)
 .text          0x0000000000000000        0x0 UefiShellDebug1CommandsLib.obj (symbol from plugin)
 .text          0x0000000000000000        0x0 Edit.obj (symbol from plugin)
 .text          0x0000000000000000        0x0 FileBuffer.obj (symbol from plugin)
 .text          0x0000000000000000        0x0 MainTextEditor.obj (symbol from plugin)
 .text          0x0000000000000000        0x0 Misc.obj (symbol from plugin)
 .text          0x0000000000000000        0x0 HexEdit.obj (symbol from plugin)
 .text          0x0000000000000000        0x0 MainHexEditor.obj (symbol from plugin)
 .text          0x0000000000000000        0x0 Misc.obj (symbol from plugin)
 .text          0x0000000000000000        0x0 AutoGen.obj (symbol from plugin)
 .text          0x0000000000000000        0x0 SetSize.obj (symbol from plugin)
 .text          0x0000000000000000        0x0 Comp.obj (symbol from plugin)
 .text          0x0000000000000000        0x0 Mode.obj (symbol from plugin)
 .text          0x0000000000000000        0x0 MemMap.obj (symbol from plugin)
 .text          0x0000000000000000        0x0 EfiCompress.obj (symbol from plugin)
 .text          0x0000000000000000        0x0 EfiDecompress.obj (symbol from plugin)
 .text          0x0000000000000000        0x0 Dmem.obj (symbol from plugin)
 .text          0x0000000000000000        0x0 LoadPciRom.obj (symbol from plugin)
 .text          0x0000000000000000        0x0 Mm.obj (symbol from plugin)
 .text          0x0000000000000000        0x0 SetVar.obj (symbol from plugin)
 .text          0x0000000000000000        0x0 SerMode.obj (symbol from plugin)
 .text          0x0000000000000000        0x0 Pci.obj (symbol from plugin)
 .text          0x0000000000000000        0x0 DmpStore.obj (symbol from plugin)
 .text          0x0000000000000000        0x0 Dblk.obj (symbol from plugin)
 .text          0x0000000000000000        0x0 SmbiosView.obj (symbol from plugin)
 .text          0x0000000000000000        0x0 LibSmbiosView.obj (symbol from plugin)
 .text          0x0000000000000000        0x0 EditTitleBar.obj (symbol from plugin)
 .text          0x0000000000000000        0x0 EditInputBar.obj (symbol from plugin)
 .text          0x0000000000000000        0x0 EditStatusBar.obj (symbol from plugin)
 .text          0x0000000000000000        0x0 EditMenuBar.obj (symbol from plugin)
 .text          0x0000000000000000        0x0 BufferImage.obj (symbol from plugin)
 .text          0x0000000000000000        0x0 Clipboard.obj (symbol from plugin)
 .text          0x0000000000000000        0x0 DiskImage.obj (symbol from plugin)
 .text          0x0000000000000000        0x0 FileImage.obj (symbol from plugin)
 .text          0x0000000000000000        0x0 MemImage.obj (symbol from plugin)
 .text          0x0000000000000000        0x0 Compress.obj (symbol from plugin)
 .text          0x0000000000000000        0x0 PrintInfo.obj (symbol from plugin)
 .text          0x0000000000000000        0x0 QueryTable.obj (symbol from plugin)
 .text          0x0000000000000000        0x0 EventLogInfo.obj (symbol from plugin)
 .text          0x0000000000000000        0x0 UefiShellInstall1CommandsLib.obj (symbol from plugin)
 .text          0x0000000000000000        0x0 UefiShellNetwork1CommandsLib.obj (symbol from plugin)
 .text          0x0000000000000000        0x0 Ping.obj (symbol from plugin)
 .text          0x0000000000000000        0x0 Ifconfig.obj (symbol from plugin)
 .text          0x0000000000000000        0x0 AutoGen.obj (symbol from plugin)
 .text          0x0000000000000000        0x0 CompareMemWrapper.obj (symbol from plugin)
 .text          0x0000000000000000        0x0 SwapBytes64.obj (symbol from plugin)
 .text          0x0000000000000000        0x0 MultU64x64.obj (symbol from plugin)
 .text          0x0000000000000000        0x0 ModU64x32.obj (symbol from plugin)
 .text          0x0000000000000000        0x0 DivU64x64Remainder.obj (symbol from plugin)
 .text          0x0000000000000000        0x0 DivU64x32Remainder.obj (symbol from plugin)
 .text          0x0000000000000000        0x0 BitField.obj (symbol from plugin)
 .text          0x0000000000000000        0x0 CpuDeadLoop.obj (symbol from plugin)
 .data          0x0000000000000000        0x0 /home/vsts/work/1/edk2/Build/Lumia950XL-AARCH64/DEBUG_GCC5/AARCH64/MdePkg/Library/BaseLib/BaseLib/OUTPUT/BaseLib.lib(CpuBreakpoint.obj)
 .bss           0x0000000000000000        0x0 /home/vsts/work/1/edk2/Build/Lumia950XL-AARCH64/DEBUG_GCC5/AARCH64/MdePkg/Library/BaseLib/BaseLib/OUTPUT/BaseLib.lib(CpuBreakpoint.obj)
 .text          0x0000000000000000        0x0 IoLibArm.obj (symbol from plugin)
 .text          0x0000000000000000        0x0 BaseDebugPrintErrorLevelLib.obj (symbol from plugin)
 .text          0x0000000000000000        0x0 FrameBufferSerialPortLib.obj (symbol from plugin)
 .text          0x0000000000000000        0x0 UefiLibPrint.obj (symbol from plugin)
 .text          0x0000000000000000        0x0 UefiNotTiano.obj (symbol from plugin)
 .text          0x0000000000000000        0x0 PeCoffGetEntryPoint.obj (symbol from plugin)
 .text          0x0000000000000000        0x0 UefiShellBcfgCommandLib.obj (symbol from plugin)
 .text          0x0000000000000000        0x0 AutoGen.obj (symbol from plugin)
 .text          0x0000000000000000        0x0 DxeNetLib.obj (symbol from plugin)
 .text          0x0000000000000000        0x0 NetBuffer.obj (symbol from plugin)
 .text          0x0000000000000000        0x0 /home/vsts/work/1/edk2/Build/Lumia950XL-AARCH64/DEBUG_GCC5/AARCH64/ArmPkg/Library/ArmLib/ArmBaseLib/OUTPUT/ArmBaseLib.lib(ArmLibSupport.obj)
 .data          0x0000000000000000        0x0 /home/vsts/work/1/edk2/Build/Lumia950XL-AARCH64/DEBUG_GCC5/AARCH64/ArmPkg/Library/ArmLib/ArmBaseLib/OUTPUT/ArmBaseLib.lib(ArmLibSupport.obj)
 .bss           0x0000000000000000        0x0 /home/vsts/work/1/edk2/Build/Lumia950XL-AARCH64/DEBUG_GCC5/AARCH64/ArmPkg/Library/ArmLib/ArmBaseLib/OUTPUT/ArmBaseLib.lib(ArmLibSupport.obj)
 .text.ArmReadMidr
                0x0000000000000000        0x8 /home/vsts/work/1/edk2/Build/Lumia950XL-AARCH64/DEBUG_GCC5/AARCH64/ArmPkg/Library/ArmLib/ArmBaseLib/OUTPUT/ArmBaseLib.lib(ArmLibSupport.obj)
 .text.ArmGetFiqState
                0x0000000000000000       0x10 /home/vsts/work/1/edk2/Build/Lumia950XL-AARCH64/DEBUG_GCC5/AARCH64/ArmPkg/Library/ArmLib/ArmBaseLib/OUTPUT/ArmBaseLib.lib(ArmLibSupport.obj)
 .text.ArmWriteCpacr
                0x0000000000000000        0x8 /home/vsts/work/1/edk2/Build/Lumia950XL-AARCH64/DEBUG_GCC5/AARCH64/ArmPkg/Library/ArmLib/ArmBaseLib/OUTPUT/ArmBaseLib.lib(ArmLibSupport.obj)
 .text.ArmWriteAuxCr
                0x0000000000000000       0x28 /home/vsts/work/1/edk2/Build/Lumia950XL-AARCH64/DEBUG_GCC5/AARCH64/ArmPkg/Library/ArmLib/ArmBaseLib/OUTPUT/ArmBaseLib.lib(ArmLibSupport.obj)
 .text.ArmReadAuxCr
                0x0000000000000000       0x28 /home/vsts/work/1/edk2/Build/Lumia950XL-AARCH64/DEBUG_GCC5/AARCH64/ArmPkg/Library/ArmLib/ArmBaseLib/OUTPUT/ArmBaseLib.lib(ArmLibSupport.obj)
 .text.ArmSetTTBR0
                0x0000000000000000       0x34 /home/vsts/work/1/edk2/Build/Lumia950XL-AARCH64/DEBUG_GCC5/AARCH64/ArmPkg/Library/ArmLib/ArmBaseLib/OUTPUT/ArmBaseLib.lib(ArmLibSupport.obj)
 .text.ArmGetTTBR0BaseAddress
                0x0000000000000000       0x30 /home/vsts/work/1/edk2/Build/Lumia950XL-AARCH64/DEBUG_GCC5/AARCH64/ArmPkg/Library/ArmLib/ArmBaseLib/OUTPUT/ArmBaseLib.lib(ArmLibSupport.obj)
 .text.ArmGetTCR
                0x0000000000000000       0x34 /home/vsts/work/1/edk2/Build/Lumia950XL-AARCH64/DEBUG_GCC5/AARCH64/ArmPkg/Library/ArmLib/ArmBaseLib/OUTPUT/ArmBaseLib.lib(ArmLibSupport.obj)
 .text.ArmSetTCR
                0x0000000000000000       0x34 /home/vsts/work/1/edk2/Build/Lumia950XL-AARCH64/DEBUG_GCC5/AARCH64/ArmPkg/Library/ArmLib/ArmBaseLib/OUTPUT/ArmBaseLib.lib(ArmLibSupport.obj)
 .text.ArmGetMAIR
                0x0000000000000000       0x34 /home/vsts/work/1/edk2/Build/Lumia950XL-AARCH64/DEBUG_GCC5/AARCH64/ArmPkg/Library/ArmLib/ArmBaseLib/OUTPUT/ArmBaseLib.lib(ArmLibSupport.obj)
 .text.ArmSetMAIR
                0x0000000000000000       0x34 /home/vsts/work/1/edk2/Build/Lumia950XL-AARCH64/DEBUG_GCC5/AARCH64/ArmPkg/Library/ArmLib/ArmBaseLib/OUTPUT/ArmBaseLib.lib(ArmLibSupport.obj)
 .text.ArmUpdateTranslationTableEntry
                0x0000000000000000       0x40 /home/vsts/work/1/edk2/Build/Lumia950XL-AARCH64/DEBUG_GCC5/AARCH64/ArmPkg/Library/ArmLib/ArmBaseLib/OUTPUT/ArmBaseLib.lib(ArmLibSupport.obj)
 .text.ArmInvalidateTlb
                0x0000000000000000       0x38 /home/vsts/work/1/edk2/Build/Lumia950XL-AARCH64/DEBUG_GCC5/AARCH64/ArmPkg/Library/ArmLib/ArmBaseLib/OUTPUT/ArmBaseLib.lib(ArmLibSupport.obj)
 .text.ArmWriteCptr
                0x0000000000000000        0x8 /home/vsts/work/1/edk2/Build/Lumia950XL-AARCH64/DEBUG_GCC5/AARCH64/ArmPkg/Library/ArmLib/ArmBaseLib/OUTPUT/ArmBaseLib.lib(ArmLibSupport.obj)
 .text.ArmWriteScr
                0x0000000000000000        0xc /home/vsts/work/1/edk2/Build/Lumia950XL-AARCH64/DEBUG_GCC5/AARCH64/ArmPkg/Library/ArmLib/ArmBaseLib/OUTPUT/ArmBaseLib.lib(ArmLibSupport.obj)
 .text.ArmWriteMVBar
                0x0000000000000000        0x8 /home/vsts/work/1/edk2/Build/Lumia950XL-AARCH64/DEBUG_GCC5/AARCH64/ArmPkg/Library/ArmLib/ArmBaseLib/OUTPUT/ArmBaseLib.lib(ArmLibSupport.obj)
 .text.ArmCallWFE
                0x0000000000000000        0x8 /home/vsts/work/1/edk2/Build/Lumia950XL-AARCH64/DEBUG_GCC5/AARCH64/ArmPkg/Library/ArmLib/ArmBaseLib/OUTPUT/ArmBaseLib.lib(ArmLibSupport.obj)
 .text.ArmCallSEV
                0x0000000000000000        0x8 /home/vsts/work/1/edk2/Build/Lumia950XL-AARCH64/DEBUG_GCC5/AARCH64/ArmPkg/Library/ArmLib/ArmBaseLib/OUTPUT/ArmBaseLib.lib(ArmLibSupport.obj)
 .text.ArmReadCpuActlr
                0x0000000000000000        0x8 /home/vsts/work/1/edk2/Build/Lumia950XL-AARCH64/DEBUG_GCC5/AARCH64/ArmPkg/Library/ArmLib/ArmBaseLib/OUTPUT/ArmBaseLib.lib(ArmLibSupport.obj)
 .text.ArmWriteCpuActlr
                0x0000000000000000       0x10 /home/vsts/work/1/edk2/Build/Lumia950XL-AARCH64/DEBUG_GCC5/AARCH64/ArmPkg/Library/ArmLib/ArmBaseLib/OUTPUT/ArmBaseLib.lib(ArmLibSupport.obj)
 .text.ArmReadSctlr
                0x0000000000000000       0x30 /home/vsts/work/1/edk2/Build/Lumia950XL-AARCH64/DEBUG_GCC5/AARCH64/ArmPkg/Library/ArmLib/ArmBaseLib/OUTPUT/ArmBaseLib.lib(ArmLibSupport.obj)
 .text          0x0000000000000000        0x0 /home/vsts/work/1/edk2/Build/Lumia950XL-AARCH64/DEBUG_GCC5/AARCH64/ArmPkg/Library/ArmLib/ArmBaseLib/OUTPUT/ArmBaseLib.lib(ArmLibSupportV8.obj)
 .data          0x0000000000000000        0x0 /home/vsts/work/1/edk2/Build/Lumia950XL-AARCH64/DEBUG_GCC5/AARCH64/ArmPkg/Library/ArmLib/ArmBaseLib/OUTPUT/ArmBaseLib.lib(ArmLibSupportV8.obj)
 .bss           0x0000000000000000        0x0 /home/vsts/work/1/edk2/Build/Lumia950XL-AARCH64/DEBUG_GCC5/AARCH64/ArmPkg/Library/ArmLib/ArmBaseLib/OUTPUT/ArmBaseLib.lib(ArmLibSupportV8.obj)
 .text.ArmIsMpCore
                0x0000000000000000       0x14 /home/vsts/work/1/edk2/Build/Lumia950XL-AARCH64/DEBUG_GCC5/AARCH64/ArmPkg/Library/ArmLib/ArmBaseLib/OUTPUT/ArmBaseLib.lib(ArmLibSupportV8.obj)
 .text.ArmEnableAsynchronousAbort
                0x0000000000000000        0xc /home/vsts/work/1/edk2/Build/Lumia950XL-AARCH64/DEBUG_GCC5/AARCH64/ArmPkg/Library/ArmLib/ArmBaseLib/OUTPUT/ArmBaseLib.lib(ArmLibSupportV8.obj)
 .text.ArmDisableAsynchronousAbort
                0x0000000000000000        0xc /home/vsts/work/1/edk2/Build/Lumia950XL-AARCH64/DEBUG_GCC5/AARCH64/ArmPkg/Library/ArmLib/ArmBaseLib/OUTPUT/ArmBaseLib.lib(ArmLibSupportV8.obj)
 .text.ArmEnableIrq
                0x0000000000000000        0xc /home/vsts/work/1/edk2/Build/Lumia950XL-AARCH64/DEBUG_GCC5/AARCH64/ArmPkg/Library/ArmLib/ArmBaseLib/OUTPUT/ArmBaseLib.lib(ArmLibSupportV8.obj)
 .text.ArmDisableIrq
                0x0000000000000000        0xc /home/vsts/work/1/edk2/Build/Lumia950XL-AARCH64/DEBUG_GCC5/AARCH64/ArmPkg/Library/ArmLib/ArmBaseLib/OUTPUT/ArmBaseLib.lib(ArmLibSupportV8.obj)
 .text.ArmEnableFiq
                0x0000000000000000        0xc /home/vsts/work/1/edk2/Build/Lumia950XL-AARCH64/DEBUG_GCC5/AARCH64/ArmPkg/Library/ArmLib/ArmBaseLib/OUTPUT/ArmBaseLib.lib(ArmLibSupportV8.obj)
 .text.ArmDisableFiq
                0x0000000000000000        0xc /home/vsts/work/1/edk2/Build/Lumia950XL-AARCH64/DEBUG_GCC5/AARCH64/ArmPkg/Library/ArmLib/ArmBaseLib/OUTPUT/ArmBaseLib.lib(ArmLibSupportV8.obj)
 .text.ArmDisableAllExceptions
                0x0000000000000000        0xc /home/vsts/work/1/edk2/Build/Lumia950XL-AARCH64/DEBUG_GCC5/AARCH64/ArmPkg/Library/ArmLib/ArmBaseLib/OUTPUT/ArmBaseLib.lib(ArmLibSupportV8.obj)
 .text.ReadCCSIDR
                0x0000000000000000       0x10 /home/vsts/work/1/edk2/Build/Lumia950XL-AARCH64/DEBUG_GCC5/AARCH64/ArmPkg/Library/ArmLib/ArmBaseLib/OUTPUT/ArmBaseLib.lib(ArmLibSupportV8.obj)
 .text.ReadCLIDR
                0x0000000000000000        0x8 /home/vsts/work/1/edk2/Build/Lumia950XL-AARCH64/DEBUG_GCC5/AARCH64/ArmPkg/Library/ArmLib/ArmBaseLib/OUTPUT/ArmBaseLib.lib(ArmLibSupportV8.obj)
 .text          0x0000000000000000        0x0 ArmCacheMaintenanceLib.obj (symbol from plugin)
 .text          0x0000000000000000        0x0 BmLoadOption.obj (symbol from plugin)
 .text          0x0000000000000000        0x0 BmConnect.obj (symbol from plugin)
 .text          0x0000000000000000        0x0 BmMisc.obj (symbol from plugin)
 .text          0x0000000000000000        0x0 BmConsole.obj (symbol from plugin)
 .text          0x0000000000000000        0x0 BmBoot.obj (symbol from plugin)
 .text          0x0000000000000000        0x0 BmBootDescription.obj (symbol from plugin)
 .text          0x0000000000000000        0x0 BmHotkey.obj (symbol from plugin)
 .text          0x0000000000000000        0x0 BmDriverHealth.obj (symbol from plugin)
 .text          0x0000000000000000        0x0 LowBitSet32.obj (symbol from plugin)
 .text          0x0000000000000000        0x0 ArmLib.obj (symbol from plugin)
 .text          0x0000000000000000        0x0 /home/vsts/work/1/edk2/Build/Lumia950XL-AARCH64/DEBUG_GCC5/AARCH64/ArmPkg/Library/ArmLib/ArmBaseLib/OUTPUT/ArmBaseLib.lib(AArch64Support.obj)
 .data          0x0000000000000000        0x0 /home/vsts/work/1/edk2/Build/Lumia950XL-AARCH64/DEBUG_GCC5/AARCH64/ArmPkg/Library/ArmLib/ArmBaseLib/OUTPUT/ArmBaseLib.lib(AArch64Support.obj)
 .bss           0x0000000000000000        0x0 /home/vsts/work/1/edk2/Build/Lumia950XL-AARCH64/DEBUG_GCC5/AARCH64/ArmPkg/Library/ArmLib/ArmBaseLib/OUTPUT/ArmBaseLib.lib(AArch64Support.obj)
 .text.ArmInvalidateDataCacheEntryByMVA
                0x0000000000000000        0x8 /home/vsts/work/1/edk2/Build/Lumia950XL-AARCH64/DEBUG_GCC5/AARCH64/ArmPkg/Library/ArmLib/ArmBaseLib/OUTPUT/ArmBaseLib.lib(AArch64Support.obj)
 .text.ArmCleanDataCacheEntryByMVA
                0x0000000000000000        0x8 /home/vsts/work/1/edk2/Build/Lumia950XL-AARCH64/DEBUG_GCC5/AARCH64/ArmPkg/Library/ArmLib/ArmBaseLib/OUTPUT/ArmBaseLib.lib(AArch64Support.obj)
 .text.ArmCleanDataCacheEntryToPoUByMVA
                0x0000000000000000        0x8 /home/vsts/work/1/edk2/Build/Lumia950XL-AARCH64/DEBUG_GCC5/AARCH64/ArmPkg/Library/ArmLib/ArmBaseLib/OUTPUT/ArmBaseLib.lib(AArch64Support.obj)
 .text.ArmInvalidateInstructionCacheEntryToPoUByMVA
                0x0000000000000000        0x8 /home/vsts/work/1/edk2/Build/Lumia950XL-AARCH64/DEBUG_GCC5/AARCH64/ArmPkg/Library/ArmLib/ArmBaseLib/OUTPUT/ArmBaseLib.lib(AArch64Support.obj)
 .text.ArmInvalidateDataCacheEntryBySetWay
                0x0000000000000000        0x8 /home/vsts/work/1/edk2/Build/Lumia950XL-AARCH64/DEBUG_GCC5/AARCH64/ArmPkg/Library/ArmLib/ArmBaseLib/OUTPUT/ArmBaseLib.lib(AArch64Support.obj)
 .text.ArmCleanInvalidateDataCacheEntryBySetWay
                0x0000000000000000        0x8 /home/vsts/work/1/edk2/Build/Lumia950XL-AARCH64/DEBUG_GCC5/AARCH64/ArmPkg/Library/ArmLib/ArmBaseLib/OUTPUT/ArmBaseLib.lib(AArch64Support.obj)
 .text.ArmCleanDataCacheEntryBySetWay
                0x0000000000000000        0x8 /home/vsts/work/1/edk2/Build/Lumia950XL-AARCH64/DEBUG_GCC5/AARCH64/ArmPkg/Library/ArmLib/ArmBaseLib/OUTPUT/ArmBaseLib.lib(AArch64Support.obj)
 .text.ArmInvalidateInstructionCache
                0x0000000000000000       0x10 /home/vsts/work/1/edk2/Build/Lumia950XL-AARCH64/DEBUG_GCC5/AARCH64/ArmPkg/Library/ArmLib/ArmBaseLib/OUTPUT/ArmBaseLib.lib(AArch64Support.obj)
 .text.ArmEnableMmu
                0x0000000000000000       0x88 /home/vsts/work/1/edk2/Build/Lumia950XL-AARCH64/DEBUG_GCC5/AARCH64/ArmPkg/Library/ArmLib/ArmBaseLib/OUTPUT/ArmBaseLib.lib(AArch64Support.obj)
 .text.ArmDisableMmu
                0x0000000000000000       0x74 /home/vsts/work/1/edk2/Build/Lumia950XL-AARCH64/DEBUG_GCC5/AARCH64/ArmPkg/Library/ArmLib/ArmBaseLib/OUTPUT/ArmBaseLib.lib(AArch64Support.obj)
 .text.ArmDisableCachesAndMmu
                0x0000000000000000       0x6c /home/vsts/work/1/edk2/Build/Lumia950XL-AARCH64/DEBUG_GCC5/AARCH64/ArmPkg/Library/ArmLib/ArmBaseLib/OUTPUT/ArmBaseLib.lib(AArch64Support.obj)
 .text.ArmMmuEnabled
                0x0000000000000000       0x34 /home/vsts/work/1/edk2/Build/Lumia950XL-AARCH64/DEBUG_GCC5/AARCH64/ArmPkg/Library/ArmLib/ArmBaseLib/OUTPUT/ArmBaseLib.lib(AArch64Support.obj)
 .text.ArmEnableDataCache
                0x0000000000000000       0x68 /home/vsts/work/1/edk2/Build/Lumia950XL-AARCH64/DEBUG_GCC5/AARCH64/ArmPkg/Library/ArmLib/ArmBaseLib/OUTPUT/ArmBaseLib.lib(AArch64Support.obj)
 .text.ArmDisableDataCache
                0x0000000000000000       0x68 /home/vsts/work/1/edk2/Build/Lumia950XL-AARCH64/DEBUG_GCC5/AARCH64/ArmPkg/Library/ArmLib/ArmBaseLib/OUTPUT/ArmBaseLib.lib(AArch64Support.obj)
 .text.ArmEnableInstructionCache
                0x0000000000000000       0x68 /home/vsts/work/1/edk2/Build/Lumia950XL-AARCH64/DEBUG_GCC5/AARCH64/ArmPkg/Library/ArmLib/ArmBaseLib/OUTPUT/ArmBaseLib.lib(AArch64Support.obj)
 .text.ArmDisableInstructionCache
                0x0000000000000000       0x68 /home/vsts/work/1/edk2/Build/Lumia950XL-AARCH64/DEBUG_GCC5/AARCH64/ArmPkg/Library/ArmLib/ArmBaseLib/OUTPUT/ArmBaseLib.lib(AArch64Support.obj)
 .text.ArmEnableAlignmentCheck
                0x0000000000000000       0x58 /home/vsts/work/1/edk2/Build/Lumia950XL-AARCH64/DEBUG_GCC5/AARCH64/ArmPkg/Library/ArmLib/ArmBaseLib/OUTPUT/ArmBaseLib.lib(AArch64Support.obj)
 .text.ArmDisableAlignmentCheck
                0x0000000000000000       0x68 /home/vsts/work/1/edk2/Build/Lumia950XL-AARCH64/DEBUG_GCC5/AARCH64/ArmPkg/Library/ArmLib/ArmBaseLib/OUTPUT/ArmBaseLib.lib(AArch64Support.obj)
 .text.ArmEnableStackAlignmentCheck
                0x0000000000000000       0x58 /home/vsts/work/1/edk2/Build/Lumia950XL-AARCH64/DEBUG_GCC5/AARCH64/ArmPkg/Library/ArmLib/ArmBaseLib/OUTPUT/ArmBaseLib.lib(AArch64Support.obj)
 .text.ArmDisableStackAlignmentCheck
                0x0000000000000000       0x68 /home/vsts/work/1/edk2/Build/Lumia950XL-AARCH64/DEBUG_GCC5/AARCH64/ArmPkg/Library/ArmLib/ArmBaseLib/OUTPUT/ArmBaseLib.lib(AArch64Support.obj)
 .text.ArmEnableBranchPrediction
                0x0000000000000000        0x4 /home/vsts/work/1/edk2/Build/Lumia950XL-AARCH64/DEBUG_GCC5/AARCH64/ArmPkg/Library/ArmLib/ArmBaseLib/OUTPUT/ArmBaseLib.lib(AArch64Support.obj)
 .text.ArmDisableBranchPrediction
                0x0000000000000000        0x4 /home/vsts/work/1/edk2/Build/Lumia950XL-AARCH64/DEBUG_GCC5/AARCH64/ArmPkg/Library/ArmLib/ArmBaseLib/OUTPUT/ArmBaseLib.lib(AArch64Support.obj)
 .text.AArch64AllDataCachesOperation
                0x0000000000000000       0xa8 /home/vsts/work/1/edk2/Build/Lumia950XL-AARCH64/DEBUG_GCC5/AARCH64/ArmPkg/Library/ArmLib/ArmBaseLib/OUTPUT/ArmBaseLib.lib(AArch64Support.obj)
 .text.ArmDataMemoryBarrier
                0x0000000000000000        0x8 /home/vsts/work/1/edk2/Build/Lumia950XL-AARCH64/DEBUG_GCC5/AARCH64/ArmPkg/Library/ArmLib/ArmBaseLib/OUTPUT/ArmBaseLib.lib(AArch64Support.obj)
 .text.ArmInstructionSynchronizationBarrier
                0x0000000000000000        0x8 /home/vsts/work/1/edk2/Build/Lumia950XL-AARCH64/DEBUG_GCC5/AARCH64/ArmPkg/Library/ArmLib/ArmBaseLib/OUTPUT/ArmBaseLib.lib(AArch64Support.obj)
 .text.ArmWriteVBar
                0x0000000000000000       0x34 /home/vsts/work/1/edk2/Build/Lumia950XL-AARCH64/DEBUG_GCC5/AARCH64/ArmPkg/Library/ArmLib/ArmBaseLib/OUTPUT/ArmBaseLib.lib(AArch64Support.obj)
 .text.ArmReadVBar
                0x0000000000000000       0x30 /home/vsts/work/1/edk2/Build/Lumia950XL-AARCH64/DEBUG_GCC5/AARCH64/ArmPkg/Library/ArmLib/ArmBaseLib/OUTPUT/ArmBaseLib.lib(AArch64Support.obj)
 .text.ArmEnableVFP
                0x0000000000000000       0x64 /home/vsts/work/1/edk2/Build/Lumia950XL-AARCH64/DEBUG_GCC5/AARCH64/ArmPkg/Library/ArmLib/ArmBaseLib/OUTPUT/ArmBaseLib.lib(AArch64Support.obj)
 .text.ArmCallWFI
                0x0000000000000000        0x8 /home/vsts/work/1/edk2/Build/Lumia950XL-AARCH64/DEBUG_GCC5/AARCH64/ArmPkg/Library/ArmLib/ArmBaseLib/OUTPUT/ArmBaseLib.lib(AArch64Support.obj)
 .text.ArmReadMpidr
                0x0000000000000000        0x8 /home/vsts/work/1/edk2/Build/Lumia950XL-AARCH64/DEBUG_GCC5/AARCH64/ArmPkg/Library/ArmLib/ArmBaseLib/OUTPUT/ArmBaseLib.lib(AArch64Support.obj)
 .text.ArmReadTpidrurw
                0x0000000000000000        0x8 /home/vsts/work/1/edk2/Build/Lumia950XL-AARCH64/DEBUG_GCC5/AARCH64/ArmPkg/Library/ArmLib/ArmBaseLib/OUTPUT/ArmBaseLib.lib(AArch64Support.obj)
 .text.ArmWriteTpidrurw
                0x0000000000000000        0x8 /home/vsts/work/1/edk2/Build/Lumia950XL-AARCH64/DEBUG_GCC5/AARCH64/ArmPkg/Library/ArmLib/ArmBaseLib/OUTPUT/ArmBaseLib.lib(AArch64Support.obj)
 .text.ArmIsArchTimerImplemented
                0x0000000000000000        0x8 /home/vsts/work/1/edk2/Build/Lumia950XL-AARCH64/DEBUG_GCC5/AARCH64/ArmPkg/Library/ArmLib/ArmBaseLib/OUTPUT/ArmBaseLib.lib(AArch64Support.obj)
 .text.ArmReadIdPfr0
                0x0000000000000000        0x8 /home/vsts/work/1/edk2/Build/Lumia950XL-AARCH64/DEBUG_GCC5/AARCH64/ArmPkg/Library/ArmLib/ArmBaseLib/OUTPUT/ArmBaseLib.lib(AArch64Support.obj)
 .text.ArmReadIdPfr1
                0x0000000000000000        0x8 /home/vsts/work/1/edk2/Build/Lumia950XL-AARCH64/DEBUG_GCC5/AARCH64/ArmPkg/Library/ArmLib/ArmBaseLib/OUTPUT/ArmBaseLib.lib(AArch64Support.obj)
 .text.ArmWriteHcr
                0x0000000000000000        0x8 /home/vsts/work/1/edk2/Build/Lumia950XL-AARCH64/DEBUG_GCC5/AARCH64/ArmPkg/Library/ArmLib/ArmBaseLib/OUTPUT/ArmBaseLib.lib(AArch64Support.obj)
 .text.ArmReadHcr
                0x0000000000000000        0x8 /home/vsts/work/1/edk2/Build/Lumia950XL-AARCH64/DEBUG_GCC5/AARCH64/ArmPkg/Library/ArmLib/ArmBaseLib/OUTPUT/ArmBaseLib.lib(AArch64Support.obj)
 .text.ArmReadCurrentEL
                0x0000000000000000        0x8 /home/vsts/work/1/edk2/Build/Lumia950XL-AARCH64/DEBUG_GCC5/AARCH64/ArmPkg/Library/ArmLib/ArmBaseLib/OUTPUT/ArmBaseLib.lib(AArch64Support.obj)
 .text.ArmReadCntHctl
                0x0000000000000000        0x8 /home/vsts/work/1/edk2/Build/Lumia950XL-AARCH64/DEBUG_GCC5/AARCH64/ArmPkg/Library/ArmLib/ArmBaseLib/OUTPUT/ArmBaseLib.lib(AArch64Support.obj)
 .text.ArmWriteCntHctl
                0x0000000000000000        0x8 /home/vsts/work/1/edk2/Build/Lumia950XL-AARCH64/DEBUG_GCC5/AARCH64/ArmPkg/Library/ArmLib/ArmBaseLib/OUTPUT/ArmBaseLib.lib(AArch64Support.obj)
 .text          0x0000000000000000        0x0 ReportStatusCodeLib.obj (symbol from plugin)
 .text          0x0000000000000000        0x0 DxeServicesLib.obj (symbol from plugin)
 .text          0x0000000000000000        0x0 DxePerformanceLib.obj (symbol from plugin)

Memory Configuration

Name             Origin             Length             Attributes
*default*        0x0000000000000000 0xffffffffffffffff

Linker script and memory map

LOAD /home/vsts/work/1/edk2/ArmPkg/Library/GccLto/liblto-aarch64.a
LOAD /tmp/ccfdZ3Du.ltrans0.ltrans.o
LOAD /tmp/ccfdZ3Du.ltrans1.ltrans.o
LOAD /tmp/ccfdZ3Du.ltrans2.ltrans.o
LOAD /tmp/ccfdZ3Du.ltrans3.ltrans.o
LOAD /tmp/ccfdZ3Du.ltrans4.ltrans.o
LOAD /tmp/ccfdZ3Du.ltrans5.ltrans.o
LOAD /tmp/ccfdZ3Du.ltrans6.ltrans.o
LOAD /tmp/ccfdZ3Du.ltrans7.ltrans.o
LOAD /tmp/ccfdZ3Du.ltrans8.ltrans.o
LOAD /tmp/ccfdZ3Du.ltrans9.ltrans.o
LOAD /tmp/ccfdZ3Du.ltrans10.ltrans.o
START GROUP
LOAD /home/vsts/work/1/edk2/Build/Lumia950XL-AARCH64/DEBUG_GCC5/AARCH64/MdePkg/Library/DxePcdLib/DxePcdLib/OUTPUT/DxePcdLib.lib
LOAD /home/vsts/work/1/edk2/Build/Lumia950XL-AARCH64/DEBUG_GCC5/AARCH64/MdePkg/Library/BaseMemoryLib/BaseMemoryLib/OUTPUT/BaseMemoryLib.lib
LOAD /home/vsts/work/1/edk2/Build/Lumia950XL-AARCH64/DEBUG_GCC5/AARCH64/MdePkg/Library/BaseLib/BaseLib/OUTPUT/BaseLib.lib
LOAD /home/vsts/work/1/edk2/Build/Lumia950XL-AARCH64/DEBUG_GCC5/AARCH64/ArmPkg/Library/ArmLib/ArmBaseLib/OUTPUT/ArmBaseLib.lib
LOAD /home/vsts/work/1/edk2/Build/Lumia950XL-AARCH64/DEBUG_GCC5/AARCH64/ArmPkg/Library/ArmCacheMaintenanceLib/ArmCacheMaintenanceLib/OUTPUT/ArmCacheMaintenanceLib.lib
LOAD /home/vsts/work/1/edk2/Build/Lumia950XL-AARCH64/DEBUG_GCC5/AARCH64/ArmPkg/Library/CompilerIntrinsicsLib/CompilerIntrinsicsLib/OUTPUT/CompilerIntrinsicsLib.lib
LOAD /home/vsts/work/1/edk2/Build/Lumia950XL-AARCH64/DEBUG_GCC5/AARCH64/MdePkg/Library/BaseIoLibIntrinsic/BaseIoLibIntrinsic/OUTPUT/BaseIoLibIntrinsic.lib
LOAD /home/vsts/work/1/edk2/Build/Lumia950XL-AARCH64/DEBUG_GCC5/AARCH64/MdePkg/Library/BaseDebugPrintErrorLevelLib/BaseDebugPrintErrorLevelLib/OUTPUT/BaseDebugPrintErrorLevelLib.lib
LOAD /home/vsts/work/1/edk2/Build/Lumia950XL-AARCH64/DEBUG_GCC5/AARCH64/Lumia950XLPkg/Library/FrameBufferSerialPortLib/FrameBufferSerialPortLib/OUTPUT/FrameBufferSerialPortLib.lib
LOAD /home/vsts/work/1/edk2/Build/Lumia950XL-AARCH64/DEBUG_GCC5/AARCH64/MdePkg/Library/BasePrintLib/BasePrintLib/OUTPUT/BasePrintLib.lib
LOAD /home/vsts/work/1/edk2/Build/Lumia950XL-AARCH64/DEBUG_GCC5/AARCH64/MdePkg/Library/BaseDebugLibSerialPort/BaseDebugLibSerialPort/OUTPUT/BaseDebugLibSerialPort.lib
LOAD /home/vsts/work/1/edk2/Build/Lumia950XL-AARCH64/DEBUG_GCC5/AARCH64/MdePkg/Library/UefiBootServicesTableLib/UefiBootServicesTableLib/OUTPUT/UefiBootServicesTableLib.lib
LOAD /home/vsts/work/1/edk2/Build/Lumia950XL-AARCH64/DEBUG_GCC5/AARCH64/MdePkg/Library/UefiMemoryAllocationLib/UefiMemoryAllocationLib/OUTPUT/UefiMemoryAllocationLib.lib
LOAD /home/vsts/work/1/edk2/Build/Lumia950XL-AARCH64/DEBUG_GCC5/AARCH64/MdePkg/Library/UefiDevicePathLib/UefiDevicePathLib/OUTPUT/UefiDevicePathLib.lib
LOAD /home/vsts/work/1/edk2/Build/Lumia950XL-AARCH64/DEBUG_GCC5/AARCH64/MdePkg/Library/UefiRuntimeServicesTableLib/UefiRuntimeServicesTableLib/OUTPUT/UefiRuntimeServicesTableLib.lib
LOAD /home/vsts/work/1/edk2/Build/Lumia950XL-AARCH64/DEBUG_GCC5/AARCH64/MdePkg/Library/UefiLib/UefiLib/OUTPUT/UefiLib.lib
LOAD /home/vsts/work/1/edk2/Build/Lumia950XL-AARCH64/DEBUG_GCC5/AARCH64/MdePkg/Library/DxeHobLib/DxeHobLib/OUTPUT/DxeHobLib.lib
LOAD /home/vsts/work/1/edk2/Build/Lumia950XL-AARCH64/DEBUG_GCC5/AARCH64/MdeModulePkg/Library/UefiHiiServicesLib/UefiHiiServicesLib/OUTPUT/UefiHiiServicesLib.lib
LOAD /home/vsts/work/1/edk2/Build/Lumia950XL-AARCH64/DEBUG_GCC5/AARCH64/MdeModulePkg/Library/UefiSortLib/UefiSortLib/OUTPUT/UefiSortLib.lib
LOAD /home/vsts/work/1/edk2/Build/Lumia950XL-AARCH64/DEBUG_GCC5/AARCH64/MdeModulePkg/Library/UefiHiiLib/UefiHiiLib/OUTPUT/UefiHiiLib.lib
LOAD /home/vsts/work/1/edk2/Build/Lumia950XL-AARCH64/DEBUG_GCC5/AARCH64/MdePkg/Library/UefiFileHandleLib/UefiFileHandleLib/OUTPUT/UefiFileHandleLib.lib
LOAD /home/vsts/work/1/edk2/Build/Lumia950XL-AARCH64/DEBUG_GCC5/AARCH64/MdePkg/Library/BasePeCoffGetEntryPointLib/BasePeCoffGetEntryPointLib/OUTPUT/BasePeCoffGetEntryPointLib.lib
LOAD /home/vsts/work/1/edk2/Build/Lumia950XL-AARCH64/DEBUG_GCC5/AARCH64/MdeModulePkg/Library/DxeReportStatusCodeLib/DxeReportStatusCodeLib/OUTPUT/DxeReportStatusCodeLib.lib
LOAD /home/vsts/work/1/edk2/Build/Lumia950XL-AARCH64/DEBUG_GCC5/AARCH64/MdePkg/Library/DxeServicesLib/DxeServicesLib/OUTPUT/DxeServicesLib.lib
LOAD /home/vsts/work/1/edk2/Build/Lumia950XL-AARCH64/DEBUG_GCC5/AARCH64/MdePkg/Library/DxeServicesTableLib/DxeServicesTableLib/OUTPUT/DxeServicesTableLib.lib
LOAD /home/vsts/work/1/edk2/Build/Lumia950XL-AARCH64/DEBUG_GCC5/AARCH64/MdeModulePkg/Library/DxePerformanceLib/DxePerformanceLib/OUTPUT/DxePerformanceLib.lib
LOAD /home/vsts/work/1/edk2/Build/Lumia950XL-AARCH64/DEBUG_GCC5/AARCH64/ShellPkg/Library/UefiShellLib/UefiShellLib/OUTPUT/UefiShellLib.lib
LOAD /home/vsts/work/1/edk2/Build/Lumia950XL-AARCH64/DEBUG_GCC5/AARCH64/ShellPkg/Library/UefiHandleParsingLib/UefiHandleParsingLib/OUTPUT/UefiHandleParsingLib.lib
LOAD /home/vsts/work/1/edk2/Build/Lumia950XL-AARCH64/DEBUG_GCC5/AARCH64/MdeModulePkg/Library/UefiBootManagerLib/UefiBootManagerLib/OUTPUT/UefiBootManagerLib.lib
LOAD /home/vsts/work/1/edk2/Build/Lumia950XL-AARCH64/DEBUG_GCC5/AARCH64/ShellPkg/Library/UefiShellCommandLib/UefiShellCommandLib/OUTPUT/UefiShellCommandLib.lib
LOAD /home/vsts/work/1/edk2/Build/Lumia950XL-AARCH64/DEBUG_GCC5/AARCH64/ShellPkg/Library/UefiShellBcfgCommandLib/UefiShellBcfgCommandLib/OUTPUT/UefiShellBcfgCommandLib.lib
LOAD /home/vsts/work/1/edk2/Build/Lumia950XL-AARCH64/DEBUG_GCC5/AARCH64/MdeModulePkg/Library/DxeNetLib/DxeNetLib/OUTPUT/DxeNetLib.lib
LOAD /home/vsts/work/1/edk2/Build/Lumia950XL-AARCH64/DEBUG_GCC5/AARCH64/MdePkg/Library/UefiApplicationEntryPoint/UefiApplicationEntryPoint/OUTPUT/UefiApplicationEntryPoint.lib
LOAD /home/vsts/work/1/edk2/Build/Lumia950XL-AARCH64/DEBUG_GCC5/AARCH64/ShellPkg/Library/UefiShellLevel2CommandsLib/UefiShellLevel2CommandsLib/OUTPUT/UefiShellLevel2CommandsLib.lib
LOAD /home/vsts/work/1/edk2/Build/Lumia950XL-AARCH64/DEBUG_GCC5/AARCH64/ShellPkg/Library/UefiShellLevel1CommandsLib/UefiShellLevel1CommandsLib/OUTPUT/UefiShellLevel1CommandsLib.lib
LOAD /home/vsts/work/1/edk2/Build/Lumia950XL-AARCH64/DEBUG_GCC5/AARCH64/ShellPkg/Library/UefiShellLevel3CommandsLib/UefiShellLevel3CommandsLib/OUTPUT/UefiShellLevel3CommandsLib.lib
LOAD /home/vsts/work/1/edk2/Build/Lumia950XL-AARCH64/DEBUG_GCC5/AARCH64/ShellPkg/Library/UefiShellDriver1CommandsLib/UefiShellDriver1CommandsLib/OUTPUT/UefiShellDriver1CommandsLib.lib
LOAD /home/vsts/work/1/edk2/Build/Lumia950XL-AARCH64/DEBUG_GCC5/AARCH64/ShellPkg/Library/UefiShellDebug1CommandsLib/UefiShellDebug1CommandsLib/OUTPUT/UefiShellDebug1CommandsLib.lib
LOAD /home/vsts/work/1/edk2/Build/Lumia950XL-AARCH64/DEBUG_GCC5/AARCH64/ShellPkg/Library/UefiShellInstall1CommandsLib/UefiShellInstall1CommandsLib/OUTPUT/UefiShellInstall1CommandsLib.lib
LOAD /home/vsts/work/1/edk2/Build/Lumia950XL-AARCH64/DEBUG_GCC5/AARCH64/ShellPkg/Library/UefiShellNetwork1CommandsLib/UefiShellNetwork1CommandsLib/OUTPUT/UefiShellNetwork1CommandsLib.lib
LOAD /home/vsts/work/1/edk2/Build/Lumia950XL-AARCH64/DEBUG_GCC5/AARCH64/ShellPkg/Application/Shell/Shell/OUTPUT/Shell.lib
END GROUP
                0x0000000000000228                . = PECOFF_HEADER_SIZE

.text           0x0000000000001000    0x7b38c
 *(.text .text.* .stub .gnu.linkonce.t.*)
 .text.CountLen
                0x0000000000001000       0x90 /tmp/ccfdZ3Du.ltrans0.ltrans.o
 .text.DownHeap
                0x0000000000001090       0x80 /tmp/ccfdZ3Du.ltrans0.ltrans.o
 .text.MakeChild
                0x0000000000001110       0x6c /tmp/ccfdZ3Du.ltrans0.ltrans.o
 .text.Child    0x000000000000117c       0x44 /tmp/ccfdZ3Du.ltrans0.ltrans.o
 .text.HBufferImageRestorePosition
                0x00000000000011c0       0x3c /tmp/ccfdZ3Du.ltrans0.ltrans.o
 .text.HBufferImageIsInSelectedArea
                0x00000000000011fc       0xd8 /tmp/ccfdZ3Du.ltrans0.ltrans.o
 .text.PciGetProtocolAndResource
                0x00000000000012d4       0x64 /tmp/ccfdZ3Du.ltrans0.ltrans.o
 .text.PciGetClassStrings
                0x0000000000001338       0x9c /tmp/ccfdZ3Du.ltrans0.ltrans.o
 .text.HBufferImageCreateLine
                0x00000000000013d4       0xb8 /tmp/ccfdZ3Du.ltrans0.ltrans.o
 .text.HBufferImagePrintLine
                0x000000000000148c      0x418 /tmp/ccfdZ3Du.ltrans0.ltrans.o
 .text.ExplainPcieRootStatus
                0x00000000000018a4       0x70 /tmp/ccfdZ3Du.ltrans0.ltrans.o
 .text.ExplainPcieRootCap
                0x0000000000001914       0x30 /tmp/ccfdZ3Du.ltrans0.ltrans.o
 .text.ExplainPcieRootControl
                0x0000000000001944       0xac /tmp/ccfdZ3Du.ltrans0.ltrans.o
 .text.ExplainPcieSlotStatus
                0x00000000000019f0      0x17c /tmp/ccfdZ3Du.ltrans0.ltrans.o
 .text.ExplainPcieSlotControl
                0x0000000000001b6c      0x184 /tmp/ccfdZ3Du.ltrans0.ltrans.o
 .text.ExplainPcieSlotCap
                0x0000000000001cf0      0x184 /tmp/ccfdZ3Du.ltrans0.ltrans.o
 .text.ExplainPcieLinkStatus
                0x0000000000001e74      0x110 /tmp/ccfdZ3Du.ltrans0.ltrans.o
 .text.ExplainPcieLinkControl
                0x0000000000001f84      0x168 /tmp/ccfdZ3Du.ltrans0.ltrans.o
 .text.ExplainPcieLinkCap
                0x00000000000020ec      0x18c /tmp/ccfdZ3Du.ltrans0.ltrans.o
 .text.ExplainPcieDeviceStatus
                0x0000000000002278       0xc8 /tmp/ccfdZ3Du.ltrans0.ltrans.o
 .text.ExplainPcieDeviceControl
                0x0000000000002340      0x200 /tmp/ccfdZ3Du.ltrans0.ltrans.o
 .text.ExplainPcieDeviceCap
                0x0000000000002540      0x250 /tmp/ccfdZ3Du.ltrans0.ltrans.o
 .text.ExplainPcieCapReg
                0x0000000000002790       0xc4 /tmp/ccfdZ3Du.ltrans0.ltrans.o
 .text.InputBarPrintInput
                0x0000000000002854      0x118 /tmp/ccfdZ3Du.ltrans0.ltrans.o
 .text.ShellCommandRunDblk
                0x000000000000296c      0x570 /tmp/ccfdZ3Du.ltrans0.ltrans.o
                0x000000000000296c                ShellCommandRunDblk
 .text.GetAttrType
                0x0000000000002edc      0x118 /tmp/ccfdZ3Du.ltrans0.ltrans.o
 .text.CascadeProcessVariables
                0x0000000000002ff4      0x5f4 /tmp/ccfdZ3Du.ltrans0.ltrans.o
 .text.ShellCommandRunDmpStore
                0x00000000000035e8      0xc30 /tmp/ccfdZ3Du.ltrans0.ltrans.o
                0x00000000000035e8                ShellCommandRunDmpStore
 .text.ShellCommandRunPci
                0x0000000000004218     0x16b0 /tmp/ccfdZ3Du.ltrans0.ltrans.o
                0x0000000000004218                ShellCommandRunPci
 .text.DisplaySettings
                0x00000000000058c8      0x210 /tmp/ccfdZ3Du.ltrans0.ltrans.o
 .text.ShellCommandRunSerMode
                0x0000000000005ad8      0x554 /tmp/ccfdZ3Du.ltrans0.ltrans.o
                0x0000000000005ad8                ShellCommandRunSerMode
 .text.IsStringOfHexNibbles
                0x000000000000602c       0x3c /tmp/ccfdZ3Du.ltrans0.ltrans.o
 .text.ParseParameterData
                0x0000000000006068      0x634 /tmp/ccfdZ3Du.ltrans0.ltrans.o
 .text.ShellCommandRunSetVar
                0x000000000000669c      0x768 /tmp/ccfdZ3Du.ltrans0.ltrans.o
                0x000000000000669c                ShellCommandRunSetVar
 .text.ShellMmAccess
                0x0000000000006e04      0x4a0 /tmp/ccfdZ3Du.ltrans0.ltrans.o
 .text.ShellCommandRunMm
                0x00000000000072a4      0x90c /tmp/ccfdZ3Du.ltrans0.ltrans.o
                0x00000000000072a4                ShellCommandRunMm
 .text.PutBits  0x0000000000007bb0       0xc8 /tmp/ccfdZ3Du.ltrans0.ltrans.o
                0x0000000000007bb0                PutBits
 .text.MakeTree
                0x0000000000007c78      0x304 /tmp/ccfdZ3Du.ltrans0.ltrans.o
                0x0000000000007c78                MakeTree
 .text.FreadCrc
                0x0000000000007f7c       0x94 /tmp/ccfdZ3Du.ltrans0.ltrans.o
                0x0000000000007f7c                FreadCrc
 .text.InsertNode
                0x0000000000008010      0x340 /tmp/ccfdZ3Du.ltrans0.ltrans.o
                0x0000000000008010                InsertNode
 .text.GetNextMatch
                0x0000000000008350      0x248 /tmp/ccfdZ3Du.ltrans0.ltrans.o
                0x0000000000008350                GetNextMatch
 .text.FreeMemory
                0x0000000000008598       0xb8 /tmp/ccfdZ3Du.ltrans0.ltrans.o
                0x0000000000008598                FreeMemory
 .text.PutDword
                0x0000000000008650       0x7c /tmp/ccfdZ3Du.ltrans0.ltrans.o
                0x0000000000008650                PutDword
 .text.HFileImageSetFileName
                0x00000000000086cc       0x60 /tmp/ccfdZ3Du.ltrans0.ltrans.o
                0x00000000000086cc                HFileImageSetFileName
 .text.HBufferImageListToBuffer
                0x000000000000872c       0xec /tmp/ccfdZ3Du.ltrans0.ltrans.o
                0x000000000000872c                HBufferImageListToBuffer
 .text.HBufferImageBufferToList
                0x0000000000008818       0xac /tmp/ccfdZ3Du.ltrans0.ltrans.o
                0x0000000000008818                HBufferImageBufferToList
 .text.HBufferImageGetTotalSize
                0x00000000000088c4       0x94 /tmp/ccfdZ3Du.ltrans0.ltrans.o
                0x00000000000088c4                HBufferImageGetTotalSize
 .text.HBufferImageMovePosition
                0x0000000000008958       0xf4 /tmp/ccfdZ3Du.ltrans0.ltrans.o
                0x0000000000008958                HBufferImageMovePosition
 .text.HBufferImageIsAtHighBits
                0x0000000000008a4c       0x50 /tmp/ccfdZ3Du.ltrans0.ltrans.o
                0x0000000000008a4c                HBufferImageIsAtHighBits
 .text.HBufferImageRestoreMousePosition
                0x0000000000008a9c      0x2d8 /tmp/ccfdZ3Du.ltrans0.ltrans.o
 .text.HBufferImageRefresh
                0x0000000000008d74      0x2fc /tmp/ccfdZ3Du.ltrans0.ltrans.o
                0x0000000000008d74                HBufferImageRefresh
 .text.HBufferImageFreeLines
                0x0000000000009070       0xbc /tmp/ccfdZ3Du.ltrans0.ltrans.o
                0x0000000000009070                HBufferImageFreeLines
 .text.HBufferImageDeleteCharacterFromBuffer
                0x000000000000912c      0x1d0 /tmp/ccfdZ3Du.ltrans0.ltrans.o
                0x000000000000912c                HBufferImageDeleteCharacterFromBuffer
 .text.HBufferImageBackup
                0x00000000000092fc      0x114 /tmp/ccfdZ3Du.ltrans0.ltrans.o
                0x00000000000092fc                HBufferImageBackup
 .text.MenuBarDispatchControlHotKey
                0x0000000000009410       0x9c /tmp/ccfdZ3Du.ltrans0.ltrans.o
                0x0000000000009410                MenuBarDispatchControlHotKey
 .text.MenuBarInit
                0x00000000000094ac       0x94 /tmp/ccfdZ3Du.ltrans0.ltrans.o
                0x00000000000094ac                MenuBarInit
 .text.MenuBarCleanup
                0x0000000000009540       0x2c /tmp/ccfdZ3Du.ltrans0.ltrans.o
                0x0000000000009540                MenuBarCleanup
 .text.StatusBarSetStatusString
                0x000000000000956c       0x64 /tmp/ccfdZ3Du.ltrans0.ltrans.o
                0x000000000000956c                StatusBarSetStatusString
 .text.HMemImageRead
                0x00000000000095d0      0x1e0 /tmp/ccfdZ3Du.ltrans0.ltrans.o
                0x00000000000095d0                HMemImageRead
 .text.HFileImageRead
                0x00000000000097b0      0x2e8 /tmp/ccfdZ3Du.ltrans0.ltrans.o
                0x00000000000097b0                HFileImageRead
 .text.HDiskImageRead
                0x0000000000009a98      0x304 /tmp/ccfdZ3Du.ltrans0.ltrans.o
                0x0000000000009a98                HDiskImageRead
 .text.HBufferImageRead
                0x0000000000009d9c       0x94 /tmp/ccfdZ3Du.ltrans0.ltrans.o
                0x0000000000009d9c                HBufferImageRead
 .text.HBufferImageHandleInput
                0x0000000000009e30      0x53c /tmp/ccfdZ3Du.ltrans0.ltrans.o
                0x0000000000009e30                HBufferImageHandleInput
 .text.MenuBarDispatchFunctionKey
                0x000000000000a36c       0x54 /tmp/ccfdZ3Du.ltrans0.ltrans.o
                0x000000000000a36c                MenuBarDispatchFunctionKey
 .text.StatusBarCleanup
                0x000000000000a3c0       0x2c /tmp/ccfdZ3Du.ltrans0.ltrans.o
                0x000000000000a3c0                StatusBarCleanup
 .text.InputBarSetStringSize
                0x000000000000a3ec       0x58 /tmp/ccfdZ3Du.ltrans0.ltrans.o
                0x000000000000a3ec                InputBarSetStringSize
 .text.InputBarSetPrompt
                0x000000000000a444       0x58 /tmp/ccfdZ3Du.ltrans0.ltrans.o
                0x000000000000a444                InputBarSetPrompt
 .text.InputBarRefresh
                0x000000000000a49c      0x268 /tmp/ccfdZ3Du.ltrans0.ltrans.o
                0x000000000000a49c                InputBarRefresh
 .text.InputBarCleanup
                0x000000000000a704       0x48 /tmp/ccfdZ3Du.ltrans0.ltrans.o
                0x000000000000a704                InputBarCleanup
 .text.MainTitleBarRefresh
                0x000000000000a74c      0x248 /tmp/ccfdZ3Du.ltrans0.ltrans.o
                0x000000000000a74c                MainTitleBarRefresh
 .text.MainTitleBarCleanup
                0x000000000000a994       0x30 /tmp/ccfdZ3Du.ltrans0.ltrans.o
                0x000000000000a994                MainTitleBarCleanup
 .text.LibGetSmbiosString
                0x000000000000a9c4       0x60 /tmp/ccfdZ3Du.ltrans0.ltrans.o
                0x000000000000a9c4                LibGetSmbiosString
 .text.LibGetSmbios64BitStructure.part.3
                0x000000000000aa24       0xac /tmp/ccfdZ3Du.ltrans0.ltrans.o
 .text.LibGetSmbiosStructure.part.2
                0x000000000000aad0       0xb0 /tmp/ccfdZ3Du.ltrans0.ltrans.o
 .text.ShellCommandRunSmbiosView
                0x000000000000ab80      0xf78 /tmp/ccfdZ3Du.ltrans0.ltrans.o
                0x000000000000ab80                ShellCommandRunSmbiosView
 .text.InternalIsTimeLikeString
                0x000000000000baf8       0x7c /tmp/ccfdZ3Du.ltrans1.ltrans.o
 .text.ShellCommandGetManFileNameLevel2
                0x000000000000bb74        0xc /tmp/ccfdZ3Du.ltrans1.ltrans.o
                0x000000000000bb74                ShellCommandGetManFileNameLevel2
 .text.DevPathSerialDefault
                0x000000000000bb80        0x8 /tmp/ccfdZ3Du.ltrans1.ltrans.o
 .text.DevPathCompareAcpi
                0x000000000000bb88       0x50 /tmp/ccfdZ3Du.ltrans1.ltrans.o
 .text.FileTimeToLocalTime
                0x000000000000bbd8      0x1b0 /tmp/ccfdZ3Du.ltrans1.ltrans.o
 .text.DevPathComparePci
                0x000000000000bd88       0x9c /tmp/ccfdZ3Du.ltrans1.ltrans.o
 .text.InternalPrintTo
                0x000000000000be24       0xbc /tmp/ccfdZ3Du.ltrans1.ltrans.o
 .text.GetHIDevicePath
                0x000000000000bee0      0x160 /tmp/ccfdZ3Du.ltrans1.ltrans.o
 .text.DriverEfiVersionProtocolDumpInformation
                0x000000000000c040       0xbc /tmp/ccfdZ3Du.ltrans1.ltrans.o
 .text.DevPathCompareDefault
                0x000000000000c0fc       0xb4 /tmp/ccfdZ3Du.ltrans1.ltrans.o
 .text.CatPrint
                0x000000000000c1b0      0x128 /tmp/ccfdZ3Du.ltrans1.ltrans.o
 .text.AppendCSDStr
                0x000000000000c2d8      0x190 /tmp/ccfdZ3Du.ltrans1.ltrans.o
 .text.DevPathSerial1394
                0x000000000000c468       0x88 /tmp/ccfdZ3Du.ltrans1.ltrans.o
 .text.DevPathSerialMacAddr
                0x000000000000c4f0       0xc8 /tmp/ccfdZ3Du.ltrans1.ltrans.o
 .text.AppendCSDNum2
                0x000000000000c5b8       0x5c /tmp/ccfdZ3Du.ltrans1.ltrans.o
 .text.AppendCSDNum
                0x000000000000c614       0x84 /tmp/ccfdZ3Du.ltrans1.ltrans.o
 .text.DevPathSerialAcpi
                0x000000000000c698       0xa0 /tmp/ccfdZ3Du.ltrans1.ltrans.o
 .text.DevPathSerialScsi
                0x000000000000c738       0x88 /tmp/ccfdZ3Du.ltrans1.ltrans.o
 .text.DevPathSerialIPv6
                0x000000000000c7c0      0x108 /tmp/ccfdZ3Du.ltrans1.ltrans.o
 .text.DevPathSerialIPv4
                0x000000000000c8c8       0xf0 /tmp/ccfdZ3Du.ltrans1.ltrans.o
 .text.DevPathSerialInfiniBand
                0x000000000000c9b8       0xdc /tmp/ccfdZ3Du.ltrans1.ltrans.o
 .text.DevPathSerialI2O
                0x000000000000ca94       0x6c /tmp/ccfdZ3Du.ltrans1.ltrans.o
 .text.DevPathSerialIScsi
                0x000000000000cb00       0x68 /tmp/ccfdZ3Du.ltrans1.ltrans.o
 .text.DevPathSerialSata
                0x000000000000cb68       0x98 /tmp/ccfdZ3Du.ltrans1.ltrans.o
 .text.DevPathSerialLun
                0x000000000000cc00       0x6c /tmp/ccfdZ3Du.ltrans1.ltrans.o
 .text.DevPathSerialVendor
                0x000000000000cc6c      0x134 /tmp/ccfdZ3Du.ltrans1.ltrans.o
 .text.DevPathSerialUsb
                0x000000000000cda0      0x174 /tmp/ccfdZ3Du.ltrans1.ltrans.o
 .text.DevPathSerialUart
                0x000000000000cf14       0xa8 /tmp/ccfdZ3Du.ltrans1.ltrans.o
 .text.DevPathSerialFibre
                0x000000000000cfbc       0x88 /tmp/ccfdZ3Du.ltrans1.ltrans.o
 .text.DevPathSerialCdRom
                0x000000000000d044       0x74 /tmp/ccfdZ3Du.ltrans1.ltrans.o
 .text.DevPathSerialAtapi
                0x000000000000d0b8       0x78 /tmp/ccfdZ3Du.ltrans1.ltrans.o
 .text.DevPathSerialHardDrive
                0x000000000000d130       0x7c /tmp/ccfdZ3Du.ltrans1.ltrans.o
 .text.InternalShellInitHandleList.part.5
                0x000000000000d1ac      0x120 /tmp/ccfdZ3Du.ltrans1.ltrans.o
 .text.FirmwareManagementDumpInformation
                0x000000000000d2cc      0x780 /tmp/ccfdZ3Du.ltrans1.ltrans.o
 .text.EdidActiveProtocolDumpInformation
                0x000000000000da4c      0x114 /tmp/ccfdZ3Du.ltrans1.ltrans.o
 .text.EdidDiscoveredProtocolDumpInformation
                0x000000000000db60      0x114 /tmp/ccfdZ3Du.ltrans1.ltrans.o
 .text.InternalShellIsHexOrDecimalNumber
                0x000000000000dc74       0xe4 /tmp/ccfdZ3Du.ltrans1.ltrans.o
 .text.InternalShellPrintWorker
                0x000000000000dd58      0x4d0 /tmp/ccfdZ3Du.ltrans1.ltrans.o
 .text.StrniCmp.part.0
                0x000000000000e228       0xdc /tmp/ccfdZ3Du.ltrans1.ltrans.o
                0x000000000000e228                StrniCmp.part.0
 .text.ShellCommandFindMapItem
                0x000000000000e304       0x84 /tmp/ccfdZ3Du.ltrans1.ltrans.o
                0x000000000000e304                ShellCommandFindMapItem
 .text.ShellCommandConsistMappingGenMappingName
                0x000000000000e388      0x26c /tmp/ccfdZ3Du.ltrans1.ltrans.o
                0x000000000000e388                ShellCommandConsistMappingGenMappingName
 .text.ShellCommandConsistMappingUnInitialize
                0x000000000000e5f4       0x64 /tmp/ccfdZ3Du.ltrans1.ltrans.o
                0x000000000000e5f4                ShellCommandConsistMappingUnInitialize
 .text.ShellCommandConsistMappingInitialize
                0x000000000000e658      0x1d4 /tmp/ccfdZ3Du.ltrans1.ltrans.o
                0x000000000000e658                ShellCommandConsistMappingInitialize
 .text.FreeBufferList.part.3
                0x000000000000e82c       0x58 /tmp/ccfdZ3Du.ltrans1.ltrans.o
                0x000000000000e82c                FreeBufferList.part.3
 .text.ShellFileHandleEof
                0x000000000000e884       0xb4 /tmp/ccfdZ3Du.ltrans1.ltrans.o
                0x000000000000e884                ShellFileHandleEof
 .text.ShellFileHandleRemove
                0x000000000000e938       0xb4 /tmp/ccfdZ3Du.ltrans1.ltrans.o
                0x000000000000e938                ShellFileHandleRemove
 .text.ShellFileHandleGetPath
                0x000000000000e9ec       0x7c /tmp/ccfdZ3Du.ltrans1.ltrans.o
                0x000000000000e9ec                ShellFileHandleGetPath
 .text.ShellCommandCreateNewMappingName
                0x000000000000ea68       0x70 /tmp/ccfdZ3Du.ltrans1.ltrans.o
                0x000000000000ea68                ShellCommandCreateNewMappingName
 .text.ShellCommandGetCurrentScriptFile
                0x000000000000ead8       0x44 /tmp/ccfdZ3Du.ltrans1.ltrans.o
                0x000000000000ead8                ShellCommandGetCurrentScriptFile
 .text.DeleteScriptFileStruct
                0x000000000000eb1c       0xf0 /tmp/ccfdZ3Du.ltrans1.ltrans.o
                0x000000000000eb1c                DeleteScriptFileStruct
 .text.ShellCommandSetNewScript
                0x000000000000ec0c       0x8c /tmp/ccfdZ3Du.ltrans1.ltrans.o
                0x000000000000ec0c                ShellCommandSetNewScript
 .text.ShellCommandRegisterExit
                0x000000000000ec98       0x2c /tmp/ccfdZ3Du.ltrans1.ltrans.o
                0x000000000000ec98                ShellCommandRegisterExit
 .text.ShellCommandIsOnAliasList
                0x000000000000ecc4      0x120 /tmp/ccfdZ3Du.ltrans1.ltrans.o
                0x000000000000ecc4                ShellCommandIsOnAliasList
 .text.ShellCommandRegisterAlias
                0x000000000000ede4      0x114 /tmp/ccfdZ3Du.ltrans1.ltrans.o
                0x000000000000ede4                ShellCommandRegisterAlias
 .text.CommandInit
                0x000000000000eef8      0x120 /tmp/ccfdZ3Du.ltrans1.ltrans.o
                0x000000000000eef8                CommandInit
 .text.GetAllMappingGuids
                0x000000000000f018       0xf8 /tmp/ccfdZ3Du.ltrans1.ltrans.o
                0x000000000000f018                GetAllMappingGuids
 .text.GetHandleListByProtocolList
                0x000000000000f110      0x198 /tmp/ccfdZ3Du.ltrans1.ltrans.o
                0x000000000000f110                GetHandleListByProtocolList
 .text.GetHandleListByProtocol
                0x000000000000f2a8      0x118 /tmp/ccfdZ3Du.ltrans1.ltrans.o
                0x000000000000f2a8                GetHandleListByProtocol
 .text.ShellCommandCreateInitialMappingsAndPaths
                0x000000000000f3c0      0x46c /tmp/ccfdZ3Du.ltrans1.ltrans.o
                0x000000000000f3c0                ShellCommandCreateInitialMappingsAndPaths
 .text.ShellCommandFindDynamicCommand
                0x000000000000f82c       0xb0 /tmp/ccfdZ3Du.ltrans1.ltrans.o
                0x000000000000f82c                ShellCommandFindDynamicCommand
 .text.ShellCommandIsCommandOnList
                0x000000000000f8dc       0xf0 /tmp/ccfdZ3Du.ltrans1.ltrans.o
                0x000000000000f8dc                ShellCommandIsCommandOnList
 .text.ParseHandleDatabaseByRelationshipWithType
                0x000000000000f9cc      0x720 /tmp/ccfdZ3Du.ltrans1.ltrans.o
                0x000000000000f9cc                ParseHandleDatabaseByRelationshipWithType
 .text.ParseHandleDatabaseByRelationship
                0x00000000000100ec      0x1cc /tmp/ccfdZ3Du.ltrans1.ltrans.o
                0x00000000000100ec                ParseHandleDatabaseByRelationship
 .text.ParseHandleDatabaseForChildControllers
                0x00000000000102b8      0x16c /tmp/ccfdZ3Du.ltrans1.ltrans.o
                0x00000000000102b8                ParseHandleDatabaseForChildControllers
 .text.ConvertHandleIndexToHandle
                0x0000000000010424       0xc4 /tmp/ccfdZ3Du.ltrans1.ltrans.o
                0x0000000000010424                ConvertHandleIndexToHandle
 .text.ConvertHandleToHandleIndex
                0x00000000000104e8      0x11c /tmp/ccfdZ3Du.ltrans1.ltrans.o
                0x00000000000104e8                ConvertHandleToHandleIndex
 .text.GetStringNameFromHandle
                0x0000000000010604      0x114 /tmp/ccfdZ3Du.ltrans1.ltrans.o
                0x0000000000010604                GetStringNameFromHandle
 .text.InternalShellGetNodeFromGuid
                0x0000000000010718       0xf4 /tmp/ccfdZ3Du.ltrans1.ltrans.o
                0x0000000000010718                InternalShellGetNodeFromGuid
 .text.GetProtocolInformationDump
                0x000000000001080c       0xb4 /tmp/ccfdZ3Du.ltrans1.ltrans.o
                0x000000000001080c                GetProtocolInformationDump
 .text.HandleParsingHiiInit
                0x00000000000108c0       0x7c /tmp/ccfdZ3Du.ltrans1.ltrans.o
                0x00000000000108c0                HandleParsingHiiInit
 .text.GetGuidFromStringName
                0x000000000001093c      0x1c0 /tmp/ccfdZ3Du.ltrans1.ltrans.o
                0x000000000001093c                GetGuidFromStringName
 .text.GetStringNameFromGuid
                0x0000000000010afc       0x4c /tmp/ccfdZ3Du.ltrans1.ltrans.o
                0x0000000000010afc                GetStringNameFromGuid
 .text.AdapterInformationDumpInformation
                0x0000000000010b48      0x508 /tmp/ccfdZ3Du.ltrans1.ltrans.o
 .text.PartitionInfoProtocolDumpInformation
                0x0000000000011050      0x128 /tmp/ccfdZ3Du.ltrans1.ltrans.o
 .text.UsbIoProtocolDumpInformation
                0x0000000000011178       0xb4 /tmp/ccfdZ3Du.ltrans1.ltrans.o
 .text.PciIoProtocolDumpInformation
                0x000000000001122c      0x178 /tmp/ccfdZ3Du.ltrans1.ltrans.o
 .text.DebugSupportProtocolDumpInformation
                0x00000000000113a4      0x108 /tmp/ccfdZ3Du.ltrans1.ltrans.o
 .text.BlockIoProtocolDumpInformation
                0x00000000000114ac      0x198 /tmp/ccfdZ3Du.ltrans1.ltrans.o
 .text.TxtOutProtocolDumpInformation
                0x0000000000011644      0x210 /tmp/ccfdZ3Du.ltrans1.ltrans.o
 .text.PciRootBridgeIoDumpInformation
                0x0000000000011854      0x2f4 /tmp/ccfdZ3Du.ltrans1.ltrans.o
 .text.InternalShellStripQuotes.part.19
                0x0000000000011b48       0x7c /tmp/ccfdZ3Du.ltrans1.ltrans.o
                0x0000000000011b48                InternalShellStripQuotes.part.19
 .text.ShellFileHandleReadLine
                0x0000000000011bc4      0x298 /tmp/ccfdZ3Du.ltrans1.ltrans.o
                0x0000000000011bc4                ShellFileHandleReadLine
 .text.ShellFileHandleReturnLine
                0x0000000000011e5c       0xc4 /tmp/ccfdZ3Du.ltrans1.ltrans.o
                0x0000000000011e5c                ShellFileHandleReturnLine
 .text.ShellConvertStringToUint64
                0x0000000000011f20      0x2e8 /tmp/ccfdZ3Du.ltrans1.ltrans.o
                0x0000000000011f20                ShellConvertStringToUint64
 .text.StrnCatGrow
                0x0000000000012208      0x164 /tmp/ccfdZ3Du.ltrans1.ltrans.o
                0x0000000000012208                StrnCatGrow
 .text.VerifyIntermediateDirectories
                0x000000000001236c      0x124 /tmp/ccfdZ3Du.ltrans1.ltrans.o
                0x000000000001236c                VerifyIntermediateDirectories
 .text.GetFullyQualifiedPath
                0x0000000000012490       0xdc /tmp/ccfdZ3Du.ltrans1.ltrans.o
 .text.ConvertEfiFileProtocolToShellHandle.part.2
                0x000000000001256c       0x9c /tmp/ccfdZ3Du.ltrans1.ltrans.o
                0x000000000001256c                ConvertEfiFileProtocolToShellHandle.part.2
 .text.ShellCommandRegisterCommandName
                0x0000000000012608      0x220 /tmp/ccfdZ3Du.ltrans1.ltrans.o
                0x0000000000012608                ShellCommandRegisterCommandName
 .text.BusSpecificDriverOverrideProtocolDumpInformation
                0x0000000000012828      0x13c /tmp/ccfdZ3Du.ltrans1.ltrans.o
 .text.DevicePathProtocolDumpInformationEx
                0x0000000000012964      0x174 /tmp/ccfdZ3Du.ltrans1.ltrans.o
 .text.LoadedImageDevicePathProtocolDumpInformation
                0x0000000000012ad8        0xc /tmp/ccfdZ3Du.ltrans1.ltrans.o
 .text.DevicePathProtocolDumpInformation
                0x0000000000012ae4        0xc /tmp/ccfdZ3Du.ltrans1.ltrans.o
 .text.GraphicsOutputProtocolDumpInformation
                0x0000000000012af0      0x2e0 /tmp/ccfdZ3Du.ltrans1.ltrans.o
 .text.ConvertMemoryType
                0x0000000000012dd0      0x158 /tmp/ccfdZ3Du.ltrans1.ltrans.o
 .text.LoadedImageProtocolDumpInformation
                0x0000000000012f28      0x228 /tmp/ccfdZ3Du.ltrans1.ltrans.o
 .text.ShellStrToUintn
                0x0000000000013150       0x50 /tmp/ccfdZ3Du.ltrans1.ltrans.o
                0x0000000000013150                ShellStrToUintn
 .text.ShellIsFile
                0x00000000000131a0       0x90 /tmp/ccfdZ3Du.ltrans1.ltrans.o
                0x00000000000131a0                ShellIsFile
 .text.ShellIsDirectory
                0x0000000000013230      0x160 /tmp/ccfdZ3Du.ltrans1.ltrans.o
                0x0000000000013230                ShellIsDirectory
 .text.ShellPrintHiiEx
                0x0000000000013390       0xc0 /tmp/ccfdZ3Du.ltrans1.ltrans.o
                0x0000000000013390                ShellPrintHiiEx
 .text.LoadDriver
                0x0000000000013450      0x2f0 /tmp/ccfdZ3Du.ltrans1.ltrans.o
 .text.ShellPrintEx
                0x0000000000013740       0x84 /tmp/ccfdZ3Du.ltrans1.ltrans.o
                0x0000000000013740                ShellPrintEx
 .text.DumpHex  0x00000000000137c4      0x108 /tmp/ccfdZ3Du.ltrans1.ltrans.o
                0x00000000000137c4                DumpHex
 .text.ShellPrintHelp
                0x00000000000138cc      0x118 /tmp/ccfdZ3Du.ltrans1.ltrans.o
                0x00000000000138cc                ShellPrintHelp
 .text.ShellPromptForResponse
                0x00000000000139e4      0x600 /tmp/ccfdZ3Du.ltrans1.ltrans.o
                0x00000000000139e4                ShellPromptForResponse
 .text.ShellPromptForResponseHii
                0x0000000000013fe4       0x58 /tmp/ccfdZ3Du.ltrans1.ltrans.o
                0x0000000000013fe4                ShellPromptForResponseHii
 .text.ShellCommandLineGetCount
                0x000000000001403c       0x74 /tmp/ccfdZ3Du.ltrans1.ltrans.o
                0x000000000001403c                ShellCommandLineGetCount
 .text.ShellCommandLineGetRawValue
                0x00000000000140b0       0x78 /tmp/ccfdZ3Du.ltrans1.ltrans.o
                0x00000000000140b0                ShellCommandLineGetRawValue
 .text.ShellCommandLineGetValue
                0x0000000000014128      0x114 /tmp/ccfdZ3Du.ltrans1.ltrans.o
                0x0000000000014128                ShellCommandLineGetValue
 .text.ShellCommandLineGetFlag
                0x000000000001423c      0x104 /tmp/ccfdZ3Du.ltrans1.ltrans.o
                0x000000000001423c                ShellCommandLineGetFlag
 .text.ShellCommandLineFreeVarList
                0x0000000000014340       0x70 /tmp/ccfdZ3Du.ltrans1.ltrans.o
                0x0000000000014340                ShellCommandLineFreeVarList
 .text.ShellCommandRunTimeZone
                0x00000000000143b0      0x6b4 /tmp/ccfdZ3Du.ltrans1.ltrans.o
                0x00000000000143b0                ShellCommandRunTimeZone
 .text.ShellCommandRunTime
                0x0000000000014a64      0x74c /tmp/ccfdZ3Du.ltrans1.ltrans.o
                0x0000000000014a64                ShellCommandRunTime
 .text.ShellCommandRunDate
                0x00000000000151b0      0x424 /tmp/ccfdZ3Du.ltrans1.ltrans.o
                0x00000000000151b0                ShellCommandRunDate
 .text.InternalIsFlag
                0x00000000000155d4       0xac /tmp/ccfdZ3Du.ltrans1.ltrans.o
                0x00000000000155d4                InternalIsFlag
 .text.ShellFindFilePath
                0x0000000000015680      0x330 /tmp/ccfdZ3Du.ltrans1.ltrans.o
                0x0000000000015680                ShellFindFilePath
 .text.ShellCloseFileMetaArg
                0x00000000000159b0       0xb4 /tmp/ccfdZ3Du.ltrans1.ltrans.o
                0x00000000000159b0                ShellCloseFileMetaArg
 .text.PrintLsOutput
                0x0000000000015a64      0xaf8 /tmp/ccfdZ3Du.ltrans1.ltrans.o
                0x0000000000015a64                PrintLsOutput
 .text.ShellCommandRunLoad
                0x000000000001655c      0x2bc /tmp/ccfdZ3Du.ltrans1.ltrans.o
                0x000000000001655c                ShellCommandRunLoad
 .text.ShellFileExists
                0x0000000000016818       0x6c /tmp/ccfdZ3Du.ltrans1.ltrans.o
                0x0000000000016818                ShellFileExists
 .text.ShellDeleteFileByName
                0x0000000000016884       0x44 /tmp/ccfdZ3Du.ltrans1.ltrans.o
                0x0000000000016884                ShellDeleteFileByName
 .text.ShellCommandGetManFileNameDriver1
                0x00000000000168c8        0xc /tmp/ccfdZ3Du.ltrans2.ltrans.o
                0x00000000000168c8                ShellCommandGetManFileNameDriver1
 .text.ShellCommandGetManFileNameLevel3
                0x00000000000168d4        0xc /tmp/ccfdZ3Du.ltrans2.ltrans.o
                0x00000000000168d4                ShellCommandGetManFileNameLevel3
 .text.ShellLevel3CommandsLibSetAlias
                0x00000000000168e0       0xc4 /tmp/ccfdZ3Du.ltrans2.ltrans.o
 .text.unlikely.ReturnUintn
                0x00000000000169a4       0x2c /tmp/ccfdZ3Du.ltrans2.ltrans.o
 .text.ShellCommandRunGetMtc
                0x00000000000169d0      0x1ec /tmp/ccfdZ3Du.ltrans2.ltrans.o
                0x00000000000169d0                ShellCommandRunGetMtc
 .text.ShellCommandRunStall
                0x0000000000016bbc      0x270 /tmp/ccfdZ3Du.ltrans2.ltrans.o
                0x0000000000016bbc                ShellCommandRunStall
 .text.GetDriverImageName
                0x0000000000016e2c       0x78 /tmp/ccfdZ3Du.ltrans2.ltrans.o
 .text.ShellCmdDriverConfigurationProcessActionRequired
                0x0000000000016ea4      0x214 /tmp/ccfdZ3Du.ltrans2.ltrans.o
 .text.PreHiiDrvCfg
                0x00000000000170b8      0x89c /tmp/ccfdZ3Du.ltrans2.ltrans.o
 .text.ShellCommandRunVer
                0x0000000000017954      0x398 /tmp/ccfdZ3Du.ltrans2.ltrans.o
                0x0000000000017954                ShellCommandRunVer
 .text.DoDevTreeForHandle
                0x0000000000017cec      0x21c /tmp/ccfdZ3Du.ltrans2.ltrans.o
 .text.ShellCommandRunDevTree
                0x0000000000017f08      0x3ac /tmp/ccfdZ3Du.ltrans2.ltrans.o
                0x0000000000017f08                ShellCommandRunDevTree
 .text.ShellCommandRunDevices
                0x00000000000182b4      0x5b4 /tmp/ccfdZ3Du.ltrans2.ltrans.o
                0x00000000000182b4                ShellCommandRunDevices
 .text.ShellCommandRunDrivers
                0x0000000000018868      0x8b4 /tmp/ccfdZ3Du.ltrans2.ltrans.o
                0x0000000000018868                ShellCommandRunDrivers
 .text.ShellCommandRunOpenInfo
                0x000000000001911c      0x4f4 /tmp/ccfdZ3Du.ltrans2.ltrans.o
                0x000000000001911c                ShellCommandRunOpenInfo
 .text.ShellCommandRunEcho
                0x0000000000019610      0x268 /tmp/ccfdZ3Du.ltrans2.ltrans.o
                0x0000000000019610                ShellCommandRunEcho
 .text.GetProtocolInfoString
                0x0000000000019878      0x2f4 /tmp/ccfdZ3Du.ltrans2.ltrans.o
 .text.ShellCommandRunUnload
                0x0000000000019b6c      0x370 /tmp/ccfdZ3Du.ltrans2.ltrans.o
                0x0000000000019b6c                ShellCommandRunUnload
 .text.GetDriverName
                0x0000000000019edc       0xf4 /tmp/ccfdZ3Du.ltrans2.ltrans.o
 .text.DoDhByHandle
                0x0000000000019fd0      0xa98 /tmp/ccfdZ3Du.ltrans2.ltrans.o
 .text.DoDhByProtocolGuid
                0x000000000001aa68      0x100 /tmp/ccfdZ3Du.ltrans2.ltrans.o
 .text.ShellCommandRunDrvDiag
                0x000000000001ab68      0xa64 /tmp/ccfdZ3Du.ltrans2.ltrans.o
                0x000000000001ab68                ShellCommandRunDrvDiag
 .text.ConvertStrToGuid
                0x000000000001b5cc      0x1ac /tmp/ccfdZ3Du.ltrans2.ltrans.o
 .text.ShellCommandRunDh
                0x000000000001b778      0x640 /tmp/ccfdZ3Du.ltrans2.ltrans.o
                0x000000000001b778                ShellCommandRunDh
 .text.ShellConnectFromDevPaths
                0x000000000001bdb8      0x3c0 /tmp/ccfdZ3Du.ltrans2.ltrans.o
 .text.ShellCommandRunDisconnect
                0x000000000001c178      0x55c /tmp/ccfdZ3Du.ltrans2.ltrans.o
                0x000000000001c178                ShellCommandRunDisconnect
 .text.ShellCommandRunConnect
                0x000000000001c6d4      0x68c /tmp/ccfdZ3Du.ltrans2.ltrans.o
                0x000000000001c6d4                ShellCommandRunConnect
 .text.ShellCommandRunReconnect
                0x000000000001cd60      0x200 /tmp/ccfdZ3Du.ltrans2.ltrans.o
                0x000000000001cd60                ShellCommandRunReconnect
 .text.InternalIsAliasOnList
                0x000000000001cf60       0xf0 /tmp/ccfdZ3Du.ltrans2.ltrans.o
 .text.DoTouchByHandle
                0x000000000001d050      0x288 /tmp/ccfdZ3Du.ltrans2.ltrans.o
 .text.ShellCommandRunTouch
                0x000000000001d2d8      0x3f0 /tmp/ccfdZ3Du.ltrans2.ltrans.o
                0x000000000001d2d8                ShellCommandRunTouch
 .text.ShellCommandRunType
                0x000000000001d6c8      0x6f0 /tmp/ccfdZ3Du.ltrans2.ltrans.o
                0x000000000001d6c8                ShellCommandRunType
 .text.ShellCommandRunCls
                0x000000000001ddb8      0x4c4 /tmp/ccfdZ3Du.ltrans2.ltrans.o
                0x000000000001ddb8                ShellCommandRunCls
 .text.LexicalInsertIntoList
                0x000000000001e27c      0x128 /tmp/ccfdZ3Du.ltrans2.ltrans.o
 .text.ShellCommandRunHelp
                0x000000000001e3a4      0x87c /tmp/ccfdZ3Du.ltrans2.ltrans.o
                0x000000000001e3a4                ShellCommandRunHelp
 .text.ShellCommandRunPause
                0x000000000001ec20      0x2a8 /tmp/ccfdZ3Du.ltrans2.ltrans.o
                0x000000000001ec20                ShellCommandRunPause
 .text.PrintSingleShellAlias
                0x000000000001eec8       0xbc /tmp/ccfdZ3Du.ltrans2.ltrans.o
 .text.ShellCommandRunAlias
                0x000000000001ef84      0x3f8 /tmp/ccfdZ3Du.ltrans2.ltrans.o
                0x000000000001ef84                ShellCommandRunAlias
 .text.ShellCommandRunShift
                0x000000000001f37c      0x170 /tmp/ccfdZ3Du.ltrans2.ltrans.o
                0x000000000001f37c                ShellCommandRunShift
 .text.InternalRemoveAliasFromList
                0x000000000001f4ec      0x110 /tmp/ccfdZ3Du.ltrans2.ltrans.o
 .text.ShellCommandRunFor
                0x000000000001f5fc      0xd60 /tmp/ccfdZ3Du.ltrans2.ltrans.o
                0x000000000001f5fc                ShellCommandRunFor
 .text.FindHiiHandleViaDevPath
                0x000000000002035c      0x290 /tmp/ccfdZ3Du.ltrans2.ltrans.o
                0x000000000002035c                FindHiiHandleViaDevPath
 .text.ShellCommandRunDrvCfg
                0x00000000000205ec      0xdb0 /tmp/ccfdZ3Du.ltrans2.ltrans.o
                0x00000000000205ec                ShellCommandRunDrvCfg
 .text.EfiShellEnablePageBreak
                0x000000000002139c       0x10 /tmp/ccfdZ3Du.ltrans3.ltrans.o
 .text.EfiShellDisablePageBreak
                0x00000000000213ac        0xc /tmp/ccfdZ3Du.ltrans3.ltrans.o
 .text.CalculateEfiHdrCrc
                0x00000000000213b8       0x44 /tmp/ccfdZ3Du.ltrans3.ltrans.o
 .text.unlikely.IsUnicodeFile
                0x00000000000213fc       0xd4 /tmp/ccfdZ3Du.ltrans3.ltrans.o
 .text.unlikely.WriteFileTag
                0x00000000000214d0       0x7c /tmp/ccfdZ3Du.ltrans3.ltrans.o
 .text.FindFirstCharacter
                0x000000000002154c       0xb0 /tmp/ccfdZ3Du.ltrans3.ltrans.o
 .text.FixFileName
                0x00000000000215fc       0x78 /tmp/ccfdZ3Du.ltrans3.ltrans.o
 .text.FixVarName
                0x0000000000021674       0x48 /tmp/ccfdZ3Du.ltrans3.ltrans.o
 .text.EfiShellGetGuidFromName
                0x00000000000216bc       0x58 /tmp/ccfdZ3Du.ltrans3.ltrans.o
 .text.IsCommand
                0x0000000000021714       0x30 /tmp/ccfdZ3Du.ltrans3.ltrans.o
 .text.IsScriptOnlyCommand
                0x0000000000021744       0xb0 /tmp/ccfdZ3Du.ltrans3.ltrans.o
 .text.TrimSpaces
                0x00000000000217f4       0xdc /tmp/ccfdZ3Du.ltrans3.ltrans.o
 .text.EfiShellClose
                0x00000000000218d0       0x24 /tmp/ccfdZ3Du.ltrans3.ltrans.o
                0x00000000000218d0                EfiShellClose
 .text.EfiShellRegisterGuidName
                0x00000000000218f4      0x218 /tmp/ccfdZ3Du.ltrans3.ltrans.o
 .text.EfiShellGetFilePathFromDevicePath
                0x0000000000021b0c      0x288 /tmp/ccfdZ3Du.ltrans3.ltrans.o
 .text.EfiShellBatchIsActive
                0x0000000000021d94       0x1c /tmp/ccfdZ3Du.ltrans3.ltrans.o
 .text.EfiShellGetDeviceName
                0x0000000000021db0      0x34c /tmp/ccfdZ3Du.ltrans3.ltrans.o
 .text.EfiShellGetDevicePathFromMap
                0x00000000000220fc       0x90 /tmp/ccfdZ3Du.ltrans3.ltrans.o
 .text.EfiShellGetDevicePathFromFilePath
                0x000000000002218c      0x200 /tmp/ccfdZ3Du.ltrans3.ltrans.o
 .text.EfiShellSetMap
                0x000000000002238c      0x184 /tmp/ccfdZ3Du.ltrans3.ltrans.o
 .text.GetNextParameter
                0x0000000000022510      0x1c4 /tmp/ccfdZ3Du.ltrans3.ltrans.o
 .text.ContainsSplit
                0x00000000000226d4       0xec /tmp/ccfdZ3Du.ltrans3.ltrans.o
 .text.ProcessCommandLineToFinal
                0x00000000000227c0      0x7d8 /tmp/ccfdZ3Du.ltrans3.ltrans.o
 .text.GetOperationType
                0x0000000000022f98       0xf0 /tmp/ccfdZ3Du.ltrans3.ltrans.o
 .text.SetLastError
                0x0000000000023088       0x60 /tmp/ccfdZ3Du.ltrans3.ltrans.o
 .text.ProcessLibraryDestructorList
                0x00000000000230e8      0x3e4 /tmp/ccfdZ3Du.ltrans3.ltrans.o
 .text.ProcessLibraryConstructorList
                0x00000000000234cc     0x1524 /tmp/ccfdZ3Du.ltrans3.ltrans.o
 .text.InternalDuplicateShellFileInfo
                0x00000000000249f0       0xdc /tmp/ccfdZ3Du.ltrans3.ltrans.o
                0x00000000000249f0                InternalDuplicateShellFileInfo
 .text.InternalFreeShellFileInfoNode
                0x0000000000024acc       0x5c /tmp/ccfdZ3Du.ltrans3.ltrans.o
                0x0000000000024acc                InternalFreeShellFileInfoNode
 .text.EfiShellRemoveDupInFileList
                0x0000000000024b28       0xf0 /tmp/ccfdZ3Du.ltrans3.ltrans.o
 .text.EfiShellFreeFileList
                0x0000000000024c18       0x80 /tmp/ccfdZ3Du.ltrans3.ltrans.o
                0x0000000000024c18                EfiShellFreeFileList
 .text.EfiShellFindFilesInDir
                0x0000000000024c98      0x424 /tmp/ccfdZ3Du.ltrans3.ltrans.o
                0x0000000000024c98                EfiShellFindFilesInDir
 .text.RestoreArgcArgv
                0x00000000000250bc       0x9c /tmp/ccfdZ3Du.ltrans3.ltrans.o
                0x00000000000250bc                RestoreArgcArgv
 .text.ParseCommandLineToArgs
                0x0000000000025158      0x210 /tmp/ccfdZ3Du.ltrans3.ltrans.o
                0x0000000000025158                ParseCommandLineToArgs
 .text.InternalShellExecuteDevicePath
                0x0000000000025368      0x480 /tmp/ccfdZ3Du.ltrans3.ltrans.o
 .text.RunShellCommand
                0x00000000000257e8     0x1b9c /tmp/ccfdZ3Du.ltrans3.ltrans.o
                0x00000000000257e8                RunShellCommand
 .text.EfiShellExecute
                0x0000000000027384      0x2b0 /tmp/ccfdZ3Du.ltrans3.ltrans.o
 .text.RunSplitCommand
                0x0000000000027634      0x2cc /tmp/ccfdZ3Du.ltrans3.ltrans.o
 .text.RestoreBufferList
                0x0000000000027900       0x38 /tmp/ccfdZ3Du.ltrans3.ltrans.o
                0x0000000000027900                RestoreBufferList
 .text.AddBufferToFreeList
                0x0000000000027938       0x4c /tmp/ccfdZ3Du.ltrans3.ltrans.o
                0x0000000000027938                AddBufferToFreeList
 .text.EfiShellGetEnvEx
                0x0000000000027984      0x2c8 /tmp/ccfdZ3Du.ltrans3.ltrans.o
                0x0000000000027984                EfiShellGetEnvEx
 .text.EfiShellGetGuidName
                0x0000000000027c4c       0x70 /tmp/ccfdZ3Du.ltrans3.ltrans.o
 .text.EfiShellGetMapFromDevicePath
                0x0000000000027cbc      0x144 /tmp/ccfdZ3Du.ltrans3.ltrans.o
 .text.EfiShellOpenRootByHandle
                0x0000000000027e00       0xcc /tmp/ccfdZ3Du.ltrans3.ltrans.o
 .text.EfiShellOpenRoot
                0x0000000000027ecc       0x68 /tmp/ccfdZ3Du.ltrans3.ltrans.o
 .text.EfiShellFindFiles
                0x0000000000027f34      0x1ac /tmp/ccfdZ3Du.ltrans3.ltrans.o
 .text.InternalOpenFileDevicePath
                0x00000000000280e0      0x208 /tmp/ccfdZ3Du.ltrans3.ltrans.o
                0x00000000000280e0                InternalOpenFileDevicePath
 .text.EfiShellOpenFileByName
                0x00000000000282e8      0x1a4 /tmp/ccfdZ3Du.ltrans3.ltrans.o
                0x00000000000282e8                EfiShellOpenFileByName
 .text.EfiShellOpenFileList
                0x000000000002848c      0x224 /tmp/ccfdZ3Du.ltrans3.ltrans.o
 .text.EfiShellCreateFile
                0x00000000000286b0       0xb8 /tmp/ccfdZ3Du.ltrans3.ltrans.o
 .text.EfiShellDeleteFileByName
                0x0000000000028768       0x40 /tmp/ccfdZ3Du.ltrans3.ltrans.o
 .text._ModuleEntryPoint
                0x00000000000287a8     0x2144 /tmp/ccfdZ3Du.ltrans3.ltrans.o
                0x00000000000287a8                _ModuleEntryPoint
 .text.__memcpy
                0x000000000002a8ec       0x20 /tmp/ccfdZ3Du.ltrans3.ltrans.o
                0x000000000002a8ec                memcpy
 .text.ShellCommandGetManFileNameLevel1
                0x000000000002a90c        0xc /tmp/ccfdZ3Du.ltrans4.ltrans.o
                0x000000000002a90c                ShellCommandGetManFileNameLevel1
 .text.unlikely.IsNumberLetterOnly
                0x000000000002a918       0x58 /tmp/ccfdZ3Du.ltrans4.ltrans.o
 .text.PerformResultOperation
                0x000000000002a970      0x1b4 /tmp/ccfdZ3Du.ltrans4.ltrans.o
 .text.TestNodeForMove
                0x000000000002ab24      0x16c /tmp/ccfdZ3Du.ltrans4.ltrans.o
 .text.IsNextFragment
                0x000000000002ac90       0xe4 /tmp/ccfdZ3Du.ltrans4.ltrans.o
 .text.ShellCommandRunExit
                0x000000000002ad74      0x244 /tmp/ccfdZ3Du.ltrans4.ltrans.o
                0x000000000002ad74                ShellCommandRunExit
 .text.ShellCommandRunSet
                0x000000000002afb8      0x440 /tmp/ccfdZ3Du.ltrans4.ltrans.o
                0x000000000002afb8                ShellCommandRunSet
 .text.ShellCommandRunVol
                0x000000000002b3f8      0x828 /tmp/ccfdZ3Du.ltrans4.ltrans.o
                0x000000000002b3f8                ShellCommandRunVol
 .text.ShellCommandRunAttrib
                0x000000000002bc20      0x67c /tmp/ccfdZ3Du.ltrans4.ltrans.o
                0x000000000002bc20                ShellCommandRunAttrib
 .text.CascadeDelete
                0x000000000002c29c      0x444 /tmp/ccfdZ3Du.ltrans4.ltrans.o
 .text.ShellCommandRunRm
                0x000000000002c6e0      0x41c /tmp/ccfdZ3Du.ltrans4.ltrans.o
                0x000000000002c6e0                ShellCommandRunRm
 .text.ShellCommandRunParse
                0x000000000002cafc      0x61c /tmp/ccfdZ3Du.ltrans4.ltrans.o
                0x000000000002cafc                ShellCommandRunParse
 .text.CopySingleFile
                0x000000000002d118      0x420 /tmp/ccfdZ3Du.ltrans4.ltrans.o
 .text.ValidateAndMoveFiles
                0x000000000002d538      0xe1c /tmp/ccfdZ3Du.ltrans4.ltrans.o
 .text.ShellCommandRunMv
                0x000000000002e354      0x454 /tmp/ccfdZ3Du.ltrans4.ltrans.o
                0x000000000002e354                ShellCommandRunMv
 .text.ValidateAndCopyFiles
                0x000000000002e7a8      0x8d0 /tmp/ccfdZ3Du.ltrans4.ltrans.o
 .text.ProcessValidateAndCopyFiles
                0x000000000002f078      0x1f0 /tmp/ccfdZ3Du.ltrans4.ltrans.o
 .text.ShellCommandRunCp
                0x000000000002f268      0x4ec /tmp/ccfdZ3Du.ltrans4.ltrans.o
                0x000000000002f268                ShellCommandRunCp
 .text.ShellCommandRunMkDir
                0x000000000002f754      0x30c /tmp/ccfdZ3Du.ltrans4.ltrans.o
                0x000000000002f754                ShellCommandRunMkDir
 .text.ShellCommandRunCd
                0x000000000002fa60      0x650 /tmp/ccfdZ3Du.ltrans4.ltrans.o
                0x000000000002fa60                ShellCommandRunCd
 .text.ShellCommandRunReset
                0x00000000000300b0      0x3fc /tmp/ccfdZ3Du.ltrans4.ltrans.o
                0x00000000000300b0                ShellCommandRunReset
 .text.PerformSingleMappingDelete
                0x00000000000304ac       0x84 /tmp/ccfdZ3Du.ltrans4.ltrans.o
 .text.PerformSingleMappingDisplay
                0x0000000000030530      0x6a4 /tmp/ccfdZ3Du.ltrans4.ltrans.o
 .text.PerformMappingDisplay
                0x0000000000030bd4      0x3ac /tmp/ccfdZ3Du.ltrans4.ltrans.o
 .text.ShellCommandRunMap
                0x0000000000030f80      0xc7c /tmp/ccfdZ3Du.ltrans4.ltrans.o
                0x0000000000030f80                ShellCommandRunMap
 .text.ShellCommandRunLs
                0x0000000000031bfc      0x6e0 /tmp/ccfdZ3Du.ltrans4.ltrans.o
                0x0000000000031bfc                ShellCommandRunLs
 .text.InternalUpdateAliasOnList
                0x00000000000322dc      0x1bc /tmp/ccfdZ3Du.ltrans4.ltrans.o
                0x00000000000322dc                InternalUpdateAliasOnList
 .text.unlikely.ShellIsValidForNumber
                0x0000000000032498       0xb4 /tmp/ccfdZ3Du.ltrans4.ltrans.o
                0x0000000000032498                ShellIsValidForNumber
 .text.MoveToTag
                0x000000000003254c      0x164 /tmp/ccfdZ3Du.ltrans4.ltrans.o
                0x000000000003254c                MoveToTag
 .text.ShellCommandRunEndFor
                0x00000000000326b0      0x184 /tmp/ccfdZ3Du.ltrans4.ltrans.o
                0x00000000000326b0                ShellCommandRunEndFor
 .text.ShellCommandRunEndIf
                0x0000000000032834      0x18c /tmp/ccfdZ3Du.ltrans4.ltrans.o
                0x0000000000032834                ShellCommandRunEndIf
 .text.ShellCommandRunElse
                0x00000000000329c0      0x234 /tmp/ccfdZ3Du.ltrans4.ltrans.o
                0x00000000000329c0                ShellCommandRunElse
 .text.ShellCommandRunIf
                0x0000000000032bf4     0x1750 /tmp/ccfdZ3Du.ltrans4.ltrans.o
                0x0000000000032bf4                ShellCommandRunIf
 .text.ShellCommandRunGoto
                0x0000000000034344      0x2f4 /tmp/ccfdZ3Du.ltrans4.ltrans.o
                0x0000000000034344                ShellCommandRunGoto
 .text.LineDeleteAt
                0x0000000000034638       0x3c /tmp/ccfdZ3Du.ltrans5.ltrans.o
 .text.FileBufferRestorePosition
                0x0000000000034674       0x28 /tmp/ccfdZ3Du.ltrans5.ltrans.o
 .text.ShellCommandGetManFileNameDebug1
                0x000000000003469c        0xc /tmp/ccfdZ3Du.ltrans5.ltrans.o
                0x000000000003469c                ShellCommandGetManFileNameDebug1
 .text.LoadEfiDriversFromRomImage
                0x00000000000346a8      0x374 /tmp/ccfdZ3Du.ltrans5.ltrans.o
 .text.FileBufferFreeLines
                0x0000000000034a1c       0xe0 /tmp/ccfdZ3Du.ltrans5.ltrans.o
 .text.InternalEditorMiscLineRetreat
                0x0000000000034afc       0xbc /tmp/ccfdZ3Du.ltrans5.ltrans.o
 .text.InternalEditorMiscLineAdvance
                0x0000000000034bb8       0xc8 /tmp/ccfdZ3Du.ltrans5.ltrans.o
 .text.FileBufferMovePosition
                0x0000000000034c80      0x154 /tmp/ccfdZ3Du.ltrans5.ltrans.o
 .text.FileBufferScrollRight
                0x0000000000034dd4       0x64 /tmp/ccfdZ3Du.ltrans5.ltrans.o
 .text.FileBufferScrollLeft
                0x0000000000034e38       0xa8 /tmp/ccfdZ3Du.ltrans5.ltrans.o
 .text.MoveLine
                0x0000000000034ee0       0x24 /tmp/ccfdZ3Du.ltrans5.ltrans.o
 .text.ShellCommandRunLoadPciRom
                0x0000000000034f04      0x3b0 /tmp/ccfdZ3Du.ltrans5.ltrans.o
                0x0000000000034f04                ShellCommandRunLoadPciRom
 .text.ShellCommandRunDmem
                0x00000000000352b4      0x5c8 /tmp/ccfdZ3Du.ltrans5.ltrans.o
                0x00000000000352b4                ShellCommandRunDmem
 .text.ShellCommandRunEfiDecompress
                0x000000000003587c      0x714 /tmp/ccfdZ3Du.ltrans5.ltrans.o
                0x000000000003587c                ShellCommandRunEfiDecompress
 .text.ShellCommandRunEfiCompress
                0x0000000000035f90      0x5fc /tmp/ccfdZ3Du.ltrans5.ltrans.o
                0x0000000000035f90                ShellCommandRunEfiCompress
 .text.ShellCommandRunMemMap
                0x000000000003658c      0xcec /tmp/ccfdZ3Du.ltrans5.ltrans.o
                0x000000000003658c                ShellCommandRunMemMap
 .text.ShellCommandRunMode
                0x0000000000037278      0x41c /tmp/ccfdZ3Du.ltrans5.ltrans.o
                0x0000000000037278                ShellCommandRunMode
 .text.PrintDifferentPoint
                0x0000000000037694      0x124 /tmp/ccfdZ3Du.ltrans5.ltrans.o
 .text.ShellCommandRunComp
                0x00000000000377b8      0xa0c /tmp/ccfdZ3Du.ltrans5.ltrans.o
                0x00000000000377b8                ShellCommandRunComp
 .text.FileBufferRestoreMousePosition
                0x00000000000381c4      0x238 /tmp/ccfdZ3Du.ltrans5.ltrans.o
 .text.ShellCommandRunSetSize
                0x00000000000383fc      0x3c8 /tmp/ccfdZ3Du.ltrans5.ltrans.o
                0x00000000000383fc                ShellCommandRunSetSize
 .text.HMainEditorRefresh
                0x00000000000387c4      0x298 /tmp/ccfdZ3Du.ltrans5.ltrans.o
 .text.HMainCommandSelectEnd
                0x0000000000038a5c       0x94 /tmp/ccfdZ3Du.ltrans5.ltrans.o
 .text.HMainCommandSelectStart
                0x0000000000038af0       0x84 /tmp/ccfdZ3Du.ltrans5.ltrans.o
 .text.MainCommandSwitchFileType
                0x0000000000038b74       0x54 /tmp/ccfdZ3Du.ltrans5.ltrans.o
 .text.IsValidFileName
                0x0000000000038bc8       0xd0 /tmp/ccfdZ3Du.ltrans5.ltrans.o
 .text.MainCommandGotoLine
                0x0000000000038c98       0xb0 /tmp/ccfdZ3Du.ltrans5.ltrans.o
 .text.HMainCommandExit
                0x0000000000038d48       0xf4 /tmp/ccfdZ3Du.ltrans5.ltrans.o
 .text.HMainCommandOpenMemory
                0x0000000000038e3c      0x2b8 /tmp/ccfdZ3Du.ltrans5.ltrans.o
 .text.MainCommandPasteLine
                0x00000000000390f4      0x180 /tmp/ccfdZ3Du.ltrans5.ltrans.o
 .text.LineCat  0x0000000000039274       0x7c /tmp/ccfdZ3Du.ltrans5.ltrans.o
 .text.FileBufferSetFileName
                0x00000000000392f0       0x70 /tmp/ccfdZ3Du.ltrans5.ltrans.o
 .text.FileBufferCreateLine
                0x0000000000039360       0xdc /tmp/ccfdZ3Du.ltrans5.ltrans.o
 .text.MainCommandCutLine
                0x000000000003943c      0x1a8 /tmp/ccfdZ3Du.ltrans5.ltrans.o
 .text.HMainCommandOpenDisk
                0x00000000000395e4      0x2fc /tmp/ccfdZ3Du.ltrans5.ltrans.o
 .text.HMainCommandOpenFile
                0x00000000000398e0      0x2d8 /tmp/ccfdZ3Du.ltrans5.ltrans.o
 .text.HMainCommandPaste
                0x0000000000039bb8      0x23c /tmp/ccfdZ3Du.ltrans5.ltrans.o
 .text.HMainCommandCut
                0x0000000000039df4       0xcc /tmp/ccfdZ3Du.ltrans5.ltrans.o
 .text.HMainCommandSaveBuffer
                0x0000000000039ec0      0x334 /tmp/ccfdZ3Du.ltrans5.ltrans.o
 .text.HMainCommandGoToOffset
                0x000000000003a1f4       0xf8 /tmp/ccfdZ3Du.ltrans5.ltrans.o
 .text.HMainCommandDisplayHelp
                0x000000000003a2ec      0x118 /tmp/ccfdZ3Du.ltrans5.ltrans.o
 .text.EditGetDefaultFileName
                0x000000000003a404       0x90 /tmp/ccfdZ3Du.ltrans5.ltrans.o
 .text.ShellCommandRunHexEdit
                0x000000000003a494     0x1374 /tmp/ccfdZ3Du.ltrans5.ltrans.o
                0x000000000003a494                ShellCommandRunHexEdit
 .text.FileBufferSave
                0x000000000003b808      0x4bc /tmp/ccfdZ3Du.ltrans5.ltrans.o
 .text.MainCommandSaveFile
                0x000000000003bcc4      0x294 /tmp/ccfdZ3Du.ltrans5.ltrans.o
 .text.MainCommandExit
                0x000000000003bf58       0xf4 /tmp/ccfdZ3Du.ltrans5.ltrans.o
 .text.FileBufferRead
                0x000000000003c04c      0x594 /tmp/ccfdZ3Du.ltrans5.ltrans.o
 .text.MainCommandOpenFile
                0x000000000003c5e0      0x1dc /tmp/ccfdZ3Du.ltrans5.ltrans.o
 .text.FileBufferPrintLine
                0x000000000003c7bc      0x114 /tmp/ccfdZ3Du.ltrans5.ltrans.o
 .text.FileBufferBackup
                0x000000000003c8d0       0x9c /tmp/ccfdZ3Du.ltrans5.ltrans.o
 .text.HLineRetreat
                0x000000000003c96c       0xc4 /tmp/ccfdZ3Du.ltrans5.ltrans.o
                0x000000000003c96c                HLineRetreat
 .text.HLineAdvance
                0x000000000003ca30       0xc4 /tmp/ccfdZ3Du.ltrans5.ltrans.o
                0x000000000003ca30                HLineAdvance
 .text.HMoveLine
                0x000000000003caf4       0x14 /tmp/ccfdZ3Du.ltrans5.ltrans.o
                0x000000000003caf4                HMoveLine
 .text.EditorClearLine
                0x000000000003cb08       0xc4 /tmp/ccfdZ3Du.ltrans5.ltrans.o
                0x000000000003cb08                EditorClearLine
 .text.FileBufferRefresh
                0x000000000003cbcc      0x22c /tmp/ccfdZ3Du.ltrans5.ltrans.o
 .text.MainEditorRefresh
                0x000000000003cdf8      0x144 /tmp/ccfdZ3Du.ltrans5.ltrans.o
 .text.ShellCommandRunEdit
                0x000000000003cf3c     0x10dc /tmp/ccfdZ3Du.ltrans5.ltrans.o
                0x000000000003cf3c                ShellCommandRunEdit
 .text.MainCommandDisplayHelp
                0x000000000003e018      0x11c /tmp/ccfdZ3Du.ltrans5.ltrans.o
 .text.FileBufferSearch
                0x000000000003e134      0x154 /tmp/ccfdZ3Du.ltrans5.ltrans.o
 .text.MainCommandSearchReplace
                0x000000000003e288      0x774 /tmp/ccfdZ3Du.ltrans5.ltrans.o
 .text.MainCommandSearch
                0x000000000003e9fc      0x1a4 /tmp/ccfdZ3Du.ltrans5.ltrans.o
 .text.GetSystemConfigurationTable
                0x000000000003eba0       0xa0 /tmp/ccfdZ3Du.ltrans5.ltrans.o
                0x000000000003eba0                GetSystemConfigurationTable
 .text.MemToString
                0x000000000003ec40       0x20 /tmp/ccfdZ3Du.ltrans6.ltrans.o
 .text.DisplayProcessorFamily.part.5
                0x000000000003ec60      0xe94 /tmp/ccfdZ3Du.ltrans6.ltrans.o
 .text.DisplayMmMemorySize
                0x000000000003faf4      0x100 /tmp/ccfdZ3Du.ltrans6.ltrans.o
 .text.WritePTLen
                0x000000000003fbf4      0x10c /tmp/ccfdZ3Du.ltrans6.ltrans.o
 .text.SendBlock
                0x000000000003fd00      0x540 /tmp/ccfdZ3Du.ltrans6.ltrans.o
 .text.CompressOutput
                0x0000000000040240      0x120 /tmp/ccfdZ3Du.ltrans6.ltrans.o
 .text.SmbiosPrintStructure.part.21
                0x0000000000040360     0x6b44 /tmp/ccfdZ3Du.ltrans6.ltrans.o
                0x0000000000040360                SmbiosPrintStructure.part.21
 .text.Smbios64BitPrintEPSInfo
                0x0000000000046ea4      0x180 /tmp/ccfdZ3Du.ltrans6.ltrans.o
                0x0000000000046ea4                Smbios64BitPrintEPSInfo
 .text.SmbiosPrintEPSInfo
                0x0000000000047024      0x22c /tmp/ccfdZ3Du.ltrans6.ltrans.o
                0x0000000000047024                SmbiosPrintEPSInfo
 .text.Compress
                0x0000000000047250      0x45c /tmp/ccfdZ3Du.ltrans6.ltrans.o
                0x0000000000047250                Compress
 .text.ShellCommandGetManFileNameBcfg
                0x00000000000476ac        0xc /tmp/ccfdZ3Du.ltrans7.ltrans.o
 .text.ManFileFindTitleSection.part.3.constprop.82
                0x00000000000476b8      0x27c /tmp/ccfdZ3Du.ltrans7.ltrans.o
 .text.GetDevicePathForDriverHandle
                0x0000000000047934       0xfc /tmp/ccfdZ3Du.ltrans7.ltrans.o
 .text.InternalCommandLineParse.part.14.constprop.58
                0x0000000000047a30      0x450 /tmp/ccfdZ3Du.ltrans7.ltrans.o
 .text.NetLibGetSnpHandle.constprop.7
                0x0000000000047e80       0xcc /tmp/ccfdZ3Du.ltrans7.ltrans.o
 .text.NetLibDetectMedia.constprop.6
                0x0000000000047f4c      0x224 /tmp/ccfdZ3Du.ltrans7.ltrans.o
 .text.BcfgMod  0x0000000000048170      0x988 /tmp/ccfdZ3Du.ltrans7.ltrans.o
 .text.CatVSPrint
                0x0000000000048af8      0x104 /tmp/ccfdZ3Du.ltrans7.ltrans.o
 .text.BasePrintLibSPrintMarker.constprop.135
                0x0000000000048bfc     0x108c /tmp/ccfdZ3Du.ltrans7.ltrans.o
                0x0000000000048bfc                BasePrintLibSPrintMarker.constprop.135
 .text.unlikely.BasePrintLibSPrint.constprop.136
                0x0000000000049c88       0x54 /tmp/ccfdZ3Du.ltrans7.ltrans.o
 .text.ShellLibDestructor.constprop.134
                0x0000000000049cdc      0x118 /tmp/ccfdZ3Du.ltrans7.ltrans.o
                0x0000000000049cdc                ShellLibDestructor.constprop.134
 .text.InternalAllocatePool.constprop.124
                0x0000000000049df4       0x38 /tmp/ccfdZ3Du.ltrans7.ltrans.o
                0x0000000000049df4                InternalAllocatePool.constprop.124
 .text.ShellCopySearchAndReplace.constprop.119
                0x0000000000049e2c      0x1a0 /tmp/ccfdZ3Du.ltrans7.ltrans.o
                0x0000000000049e2c                ShellCopySearchAndReplace.constprop.119
 .text.FindNextInstance.constprop.118
                0x0000000000049fcc       0x54 /tmp/ccfdZ3Du.ltrans7.ltrans.o
                0x0000000000049fcc                FindNextInstance.constprop.118
 .text.ShellFindFilePathEx.constprop.115
                0x000000000004a020      0x148 /tmp/ccfdZ3Du.ltrans7.ltrans.o
                0x000000000004a020                ShellFindFilePathEx.constprop.115
 .text.unlikely.CreateFileInterfaceFile.constprop.114
                0x000000000004a168       0xbc /tmp/ccfdZ3Du.ltrans7.ltrans.o
                0x000000000004a168                CreateFileInterfaceFile.constprop.114
 .text.RunScriptFile.part.8.constprop.113
                0x000000000004a224      0xc1c /tmp/ccfdZ3Du.ltrans7.ltrans.o
                0x000000000004a224                RunScriptFile.part.8.constprop.113
 .text.IsDevicePathValid.constprop.111
                0x000000000004ae40       0xa8 /tmp/ccfdZ3Du.ltrans7.ltrans.o
                0x000000000004ae40                IsDevicePathValid.constprop.111
 .text.ShellCommandAddMapItemAndUpdatePath.constprop.109
                0x000000000004aee8      0x394 /tmp/ccfdZ3Du.ltrans7.ltrans.o
                0x000000000004aee8                ShellCommandAddMapItemAndUpdatePath.constprop.109
 .text.PerformQuickSort.constprop.108
                0x000000000004b27c       0x9c /tmp/ccfdZ3Du.ltrans7.ltrans.o
                0x000000000004b27c                PerformQuickSort.constprop.108
 .text.ShellLibConstructorWorker.constprop.106
                0x000000000004b318      0x3dc /tmp/ccfdZ3Du.ltrans7.ltrans.o
                0x000000000004b318                ShellLibConstructorWorker.constprop.106
 .text.GetBestLanguageForDriver.constprop.85
                0x000000000004b6f4       0x84 /tmp/ccfdZ3Du.ltrans7.ltrans.o
                0x000000000004b6f4                GetBestLanguageForDriver.constprop.85
 .text.ShellSetFilePosition.constprop.84
                0x000000000004b778       0x10 /tmp/ccfdZ3Du.ltrans7.ltrans.o
                0x000000000004b778                ShellSetFilePosition.constprop.84
 .text.ProcessManFile.constprop.79
                0x000000000004b788      0x758 /tmp/ccfdZ3Du.ltrans7.ltrans.o
                0x000000000004b788                ProcessManFile.constprop.79
 .text.CreateAndPopulateShellFileInfo.constprop.78
                0x000000000004bee0      0x19c /tmp/ccfdZ3Du.ltrans7.ltrans.o
                0x000000000004bee0                CreateAndPopulateShellFileInfo.constprop.78
 .text.FileHandleFindFirstFile.constprop.77
                0x000000000004c07c      0x104 /tmp/ccfdZ3Du.ltrans7.ltrans.o
                0x000000000004c07c                FileHandleFindFirstFile.constprop.77
 .text.StrnCatGrowLeft.constprop.76
                0x000000000004c180       0xf8 /tmp/ccfdZ3Du.ltrans7.ltrans.o
                0x000000000004c180                StrnCatGrowLeft.constprop.76
 .text.ConsoleLoggerDisplayHistory.constprop.71
                0x000000000004c278       0xf4 /tmp/ccfdZ3Du.ltrans7.ltrans.o
                0x000000000004c278                ConsoleLoggerDisplayHistory.constprop.71
 .text.StrHexToUint64S.constprop.68
                0x000000000004c36c      0x1a8 /tmp/ccfdZ3Du.ltrans7.ltrans.o
                0x000000000004c36c                StrHexToUint64S.constprop.68
 .text.StrToIpv6Address.constprop.67
                0x000000000004c514      0x27c /tmp/ccfdZ3Du.ltrans7.ltrans.o
                0x000000000004c514                StrToIpv6Address.constprop.67
 .text.StrToIpv4Address.constprop.66
                0x000000000004c790      0x170 /tmp/ccfdZ3Du.ltrans7.ltrans.o
                0x000000000004c790                StrToIpv4Address.constprop.66
 .text.UnicodeStrToAsciiStrS.constprop.65
                0x000000000004c900      0x1a8 /tmp/ccfdZ3Du.ltrans7.ltrans.o
                0x000000000004c900                UnicodeStrToAsciiStrS.constprop.65
 .text.UnicodeValueToStringS.constprop.60
                0x000000000004caa8      0x180 /tmp/ccfdZ3Du.ltrans7.ltrans.o
                0x000000000004caa8                UnicodeValueToStringS.constprop.60
 .text.ShellCommandLineParseEx.constprop.56
                0x000000000004cc28       0xc4 /tmp/ccfdZ3Du.ltrans7.ltrans.o
                0x000000000004cc28                ShellCommandLineParseEx.constprop.56
 .text.ShellIsHexOrDecimalNumber.constprop.55
                0x000000000004ccec       0x30 /tmp/ccfdZ3Du.ltrans7.ltrans.o
                0x000000000004ccec                ShellIsHexOrDecimalNumber.constprop.55
 .text.SearchList.constprop.48
                0x000000000004cd1c      0x1b4 /tmp/ccfdZ3Du.ltrans7.ltrans.o
                0x000000000004cd1c                SearchList.constprop.48
 .text.ConvertHandleToHiiHandle.constprop.42
                0x000000000004ced0       0x94 /tmp/ccfdZ3Du.ltrans7.ltrans.o
                0x000000000004ced0                ConvertHandleToHiiHandle.constprop.42
 .text.StatusBarRefresh.constprop.39
                0x000000000004cf64      0x184 /tmp/ccfdZ3Du.ltrans7.ltrans.o
                0x000000000004cf64                StatusBarRefresh.constprop.39
 .text.ModU64x32.constprop.35
                0x000000000004d0e8        0x8 /tmp/ccfdZ3Du.ltrans7.ltrans.o
                0x000000000004d0e8                ModU64x32.constprop.35
 .text.MultU64x64.constprop.33
                0x000000000004d0f0        0x8 /tmp/ccfdZ3Du.ltrans7.ltrans.o
                0x000000000004d0f0                MultU64x64.constprop.33
 .text.IoWrite64.constprop.32
                0x000000000004d0f8       0x38 /tmp/ccfdZ3Du.ltrans7.ltrans.o
                0x000000000004d0f8                IoWrite64.constprop.32
 .text.IoRead64.constprop.31
                0x000000000004d130       0x38 /tmp/ccfdZ3Du.ltrans7.ltrans.o
                0x000000000004d130                IoRead64.constprop.31
 .text.IoWrite32.constprop.30
                0x000000000004d168       0x44 /tmp/ccfdZ3Du.ltrans7.ltrans.o
                0x000000000004d168                IoWrite32.constprop.30
 .text.IoRead32.constprop.29
                0x000000000004d1ac       0x38 /tmp/ccfdZ3Du.ltrans7.ltrans.o
                0x000000000004d1ac                IoRead32.constprop.29
 .text.IoWrite16.constprop.28
                0x000000000004d1e4       0x44 /tmp/ccfdZ3Du.ltrans7.ltrans.o
                0x000000000004d1e4                IoWrite16.constprop.28
 .text.IoRead16.constprop.27
                0x000000000004d228       0x38 /tmp/ccfdZ3Du.ltrans7.ltrans.o
                0x000000000004d228                IoRead16.constprop.27
 .text.IoWrite8.constprop.26
                0x000000000004d260       0x44 /tmp/ccfdZ3Du.ltrans7.ltrans.o
                0x000000000004d260                IoWrite8.constprop.26
 .text.IoRead8.constprop.25
                0x000000000004d2a4       0x38 /tmp/ccfdZ3Du.ltrans7.ltrans.o
                0x000000000004d2a4                IoRead8.constprop.25
 .text.QueryTable.constprop.16
                0x000000000004d2dc       0xb4 /tmp/ccfdZ3Du.ltrans7.ltrans.o
                0x000000000004d2dc                QueryTable.constprop.16
 .text.NetLibDetectMediaWaitTimeout.constprop.5
                0x000000000004d390       0xf8 /tmp/ccfdZ3Du.ltrans7.ltrans.o
                0x000000000004d390                NetLibDetectMediaWaitTimeout.constprop.5
 .text.DivU64x64Remainder.constprop.4
                0x000000000004d488       0x4c /tmp/ccfdZ3Du.ltrans7.ltrans.o
                0x000000000004d488                DivU64x64Remainder.constprop.4
 .text.NetLibStrToIp6
                0x000000000004d4d4       0x44 /tmp/ccfdZ3Du.ltrans7.ltrans.o
                0x000000000004d4d4                NetLibStrToIp6
 .text.NetLibStrToIp4
                0x000000000004d518       0x44 /tmp/ccfdZ3Du.ltrans7.ltrans.o
                0x000000000004d518                NetLibStrToIp4
 .text.NetIp6IsLinkLocalAddr
                0x000000000004d55c       0x80 /tmp/ccfdZ3Du.ltrans7.ltrans.o
                0x000000000004d55c                NetIp6IsLinkLocalAddr
 .text.NetIp6IsUnspecifiedAddr
                0x000000000004d5dc       0x68 /tmp/ccfdZ3Du.ltrans7.ltrans.o
                0x000000000004d5dc                NetIp6IsUnspecifiedAddr
 .text.BcfgLibraryRegisterBcfgCommand.part.2
                0x000000000004d644       0x84 /tmp/ccfdZ3Du.ltrans7.ltrans.o
                0x000000000004d644                BcfgLibraryRegisterBcfgCommand.part.2
 .text.PeCoffLoaderGetPdbPointer
                0x000000000004d6c8      0x1b8 /tmp/ccfdZ3Du.ltrans7.ltrans.o
                0x000000000004d6c8                PeCoffLoaderGetPdbPointer
 .text.EfiGetNameGuidFromFwVolDevicePathNode
                0x000000000004d880       0x78 /tmp/ccfdZ3Du.ltrans7.ltrans.o
                0x000000000004d880                EfiGetNameGuidFromFwVolDevicePathNode
 .text.CatSPrint
                0x000000000004d8f8       0x74 /tmp/ccfdZ3Du.ltrans7.ltrans.o
                0x000000000004d8f8                CatSPrint
 .text.CatSDumpHex.constprop.54
                0x000000000004d96c      0x124 /tmp/ccfdZ3Du.ltrans7.ltrans.o
                0x000000000004d96c                CatSDumpHex.constprop.54
 .text.HBufferImageSave.constprop.34
                0x000000000004da90      0x490 /tmp/ccfdZ3Du.ltrans7.ltrans.o
                0x000000000004da90                HBufferImageSave.constprop.34
 .text.Print    0x000000000004df20      0x180 /tmp/ccfdZ3Du.ltrans7.ltrans.o
                0x000000000004df20                Print
 .text.DisplaySELSysManagementTypes.constprop.14
                0x000000000004e0a0       0xc0 /tmp/ccfdZ3Du.ltrans7.ltrans.o
                0x000000000004e0a0                DisplaySELSysManagementTypes.constprop.14
 .text.ShellCommandRunBcfg
                0x000000000004e160     0x2294 /tmp/ccfdZ3Du.ltrans7.ltrans.o
 .text.SerialPortWrite
                0x00000000000503f4      0x314 /tmp/ccfdZ3Du.ltrans7.ltrans.o
                0x00000000000503f4                SerialPortWrite
 .text.InternalSafeStringNoStrOverlap
                0x0000000000050708       0x3c /tmp/ccfdZ3Du.ltrans8.ltrans.o
 .text.FileBasedSimpleTextOutTestString
                0x0000000000050744        0x8 /tmp/ccfdZ3Du.ltrans8.ltrans.o
                0x0000000000050744                FileBasedSimpleTextOutTestString
 .text.FileBasedSimpleTextOutQueryMode
                0x000000000005074c        0xc /tmp/ccfdZ3Du.ltrans8.ltrans.o
 .text.FileBasedSimpleTextOutSetAttribute
                0x0000000000050758        0x8 /tmp/ccfdZ3Du.ltrans8.ltrans.o
 .text.FileBasedSimpleTextOutSetCursorPosition
                0x0000000000050760        0x8 /tmp/ccfdZ3Du.ltrans8.ltrans.o
 .text.FileBasedSimpleTextInReset
                0x0000000000050768        0x8 /tmp/ccfdZ3Du.ltrans8.ltrans.o
 .text.FileBasedSimpleTextOutEnableCursor
                0x0000000000050770        0x8 /tmp/ccfdZ3Du.ltrans8.ltrans.o
 .text.FileInterfaceNopGeneric
                0x0000000000050778        0x8 /tmp/ccfdZ3Du.ltrans8.ltrans.o
                0x0000000000050778                FileInterfaceNopGeneric
 .text.FileBasedSimpleTextOutClearScreen
                0x0000000000050780        0x8 /tmp/ccfdZ3Du.ltrans8.ltrans.o
 .text.FileInterfaceNopSetPosition
                0x0000000000050788        0x8 /tmp/ccfdZ3Du.ltrans8.ltrans.o
                0x0000000000050788                FileInterfaceNopSetPosition
 .text.FileBasedSimpleTextOutSetMode
                0x0000000000050790        0x8 /tmp/ccfdZ3Du.ltrans8.ltrans.o
 .text.FileBasedSimpleTextOutReset
                0x0000000000050798        0x8 /tmp/ccfdZ3Du.ltrans8.ltrans.o
 .text.ConInWaitForKey
                0x00000000000507a0       0x10 /tmp/ccfdZ3Du.ltrans8.ltrans.o
 .text.FileBasedSimpleTextInReadKeyStroke
                0x00000000000507b0       0x80 /tmp/ccfdZ3Du.ltrans8.ltrans.o
 .text.FileInterfaceFileOpen
                0x0000000000050830        0xc /tmp/ccfdZ3Du.ltrans8.ltrans.o
                0x0000000000050830                FileInterfaceFileOpen
 .text.FileInterfaceFileFlush
                0x000000000005083c        0xc /tmp/ccfdZ3Du.ltrans8.ltrans.o
                0x000000000005083c                FileInterfaceFileFlush
 .text.FileInterfaceFileSetInfo
                0x0000000000050848        0xc /tmp/ccfdZ3Du.ltrans8.ltrans.o
                0x0000000000050848                FileInterfaceFileSetInfo
 .text.FileInterfaceFileGetInfo
                0x0000000000050854        0xc /tmp/ccfdZ3Du.ltrans8.ltrans.o
                0x0000000000050854                FileInterfaceFileGetInfo
 .text.FileInterfaceFileGetPosition
                0x0000000000050860        0xc /tmp/ccfdZ3Du.ltrans8.ltrans.o
                0x0000000000050860                FileInterfaceFileGetPosition
 .text.FileInterfaceFileSetPosition
                0x000000000005086c        0xc /tmp/ccfdZ3Du.ltrans8.ltrans.o
                0x000000000005086c                FileInterfaceFileSetPosition
 .text.FileInterfaceOpenNotFound
                0x0000000000050878        0xc /tmp/ccfdZ3Du.ltrans8.ltrans.o
                0x0000000000050878                FileInterfaceOpenNotFound
 .text.FileInterfaceMemGetPosition
                0x0000000000050884       0x10 /tmp/ccfdZ3Du.ltrans8.ltrans.o
 .text.FileInterfaceMemSetPosition
                0x0000000000050894       0x24 /tmp/ccfdZ3Du.ltrans8.ltrans.o
 .text.FileInterfaceNopSetInfo
                0x00000000000508b8        0x8 /tmp/ccfdZ3Du.ltrans8.ltrans.o
                0x00000000000508b8                FileInterfaceNopSetInfo
 .text.FileInterfaceNopGetPosition
                0x00000000000508c0        0x8 /tmp/ccfdZ3Du.ltrans8.ltrans.o
                0x00000000000508c0                FileInterfaceNopGetPosition
 .text.FileInterfaceNopGetInfo
                0x00000000000508c8        0x8 /tmp/ccfdZ3Du.ltrans8.ltrans.o
                0x00000000000508c8                FileInterfaceNopGetInfo
 .text.FileInterfaceEnvRead
                0x00000000000508d0       0x28 /tmp/ccfdZ3Du.ltrans8.ltrans.o
 .text.FileInterfaceNulWrite
                0x00000000000508f8        0x8 /tmp/ccfdZ3Du.ltrans8.ltrans.o
                0x00000000000508f8                FileInterfaceNulWrite
 .text.FileInterfaceNulRead
                0x0000000000050900        0xc /tmp/ccfdZ3Du.ltrans8.ltrans.o
                0x0000000000050900                FileInterfaceNulRead
 .text.FileInterfaceStdInWrite
                0x000000000005090c        0x8 /tmp/ccfdZ3Du.ltrans8.ltrans.o
                0x000000000005090c                FileInterfaceStdInWrite
 .text.FileInterfaceStdErrRead
                0x0000000000050914        0x8 /tmp/ccfdZ3Du.ltrans8.ltrans.o
                0x0000000000050914                FileInterfaceStdErrRead
 .text.FileInterfaceStdOutRead
                0x000000000005091c        0x8 /tmp/ccfdZ3Du.ltrans8.ltrans.o
                0x000000000005091c                FileInterfaceStdOutRead
 .text.FileInterfaceStdErrWrite
                0x0000000000050924       0x18 /tmp/ccfdZ3Du.ltrans8.ltrans.o
                0x0000000000050924                FileInterfaceStdErrWrite
 .text.FileInterfaceStdOutWrite
                0x000000000005093c       0x40 /tmp/ccfdZ3Du.ltrans8.ltrans.o
                0x000000000005093c                FileInterfaceStdOutWrite
 .text.NotificationFunction
                0x000000000005097c       0x9c /tmp/ccfdZ3Du.ltrans8.ltrans.o
                0x000000000005097c                NotificationFunction
 .text.ToLower  0x0000000000050a18       0x30 /tmp/ccfdZ3Du.ltrans8.ltrans.o
 .text.EfiShellIsRootShell
                0x0000000000050a48        0xc /tmp/ccfdZ3Du.ltrans8.ltrans.o
                0x0000000000050a48                EfiShellIsRootShell
 .text.EfiShellGetPageBreak
                0x0000000000050a54        0xc /tmp/ccfdZ3Du.ltrans8.ltrans.o
                0x0000000000050a54                EfiShellGetPageBreak
 .text.InternalBaseLibIsListValid
                0x0000000000050a60       0xb8 /tmp/ccfdZ3Du.ltrans8.ltrans.o
 .text.GetPreviousNode
                0x0000000000050b18       0x58 /tmp/ccfdZ3Du.ltrans8.ltrans.o
                0x0000000000050b18                GetPreviousNode
 .text.GetNextNode
                0x0000000000050b70       0x58 /tmp/ccfdZ3Du.ltrans8.ltrans.o
                0x0000000000050b70                GetNextNode
 .text.ConsoleLoggerEnableCursor
                0x0000000000050bc8       0x80 /tmp/ccfdZ3Du.ltrans8.ltrans.o
                0x0000000000050bc8                ConsoleLoggerEnableCursor
 .text.ConsoleLoggerSetCursorPosition
                0x0000000000050c48       0xa4 /tmp/ccfdZ3Du.ltrans8.ltrans.o
                0x0000000000050c48                ConsoleLoggerSetCursorPosition
 .text.ConsoleLoggerClearScreen
                0x0000000000050cec      0x100 /tmp/ccfdZ3Du.ltrans8.ltrans.o
                0x0000000000050cec                ConsoleLoggerClearScreen
 .text.ConsoleLoggerSetAttribute
                0x0000000000050dec       0x80 /tmp/ccfdZ3Du.ltrans8.ltrans.o
                0x0000000000050dec                ConsoleLoggerSetAttribute
 .text.ConsoleLoggerQueryMode
                0x0000000000050e6c       0x84 /tmp/ccfdZ3Du.ltrans8.ltrans.o
                0x0000000000050e6c                ConsoleLoggerQueryMode
 .text.ConsoleLoggerTestString
                0x0000000000050ef0       0x6c /tmp/ccfdZ3Du.ltrans8.ltrans.o
                0x0000000000050ef0                ConsoleLoggerTestString
 .text.FileInterfaceFileClose
                0x0000000000050f5c       0x38 /tmp/ccfdZ3Du.ltrans8.ltrans.o
                0x0000000000050f5c                FileInterfaceFileClose
 .text.FileInterfaceFileDelete
                0x0000000000050f94       0x38 /tmp/ccfdZ3Du.ltrans8.ltrans.o
                0x0000000000050f94                FileInterfaceFileDelete
 .text.FileInterfaceMemClose
                0x0000000000050fcc       0x38 /tmp/ccfdZ3Du.ltrans8.ltrans.o
 .text.EfiShellGetEnv
                0x0000000000051004        0x8 /tmp/ccfdZ3Du.ltrans8.ltrans.o
                0x0000000000051004                EfiShellGetEnv
 .text.PathRemoveLastItem
                0x000000000005100c       0x5c /tmp/ccfdZ3Du.ltrans8.ltrans.o
                0x000000000005100c                PathRemoveLastItem
 .text.AsciiStrLen
                0x0000000000051068       0xa0 /tmp/ccfdZ3Du.ltrans8.ltrans.o
                0x0000000000051068                AsciiStrLen
 .text.AsciiStrSize
                0x0000000000051108       0x18 /tmp/ccfdZ3Du.ltrans8.ltrans.o
 .text.AsciiStrnCmp
                0x0000000000051120       0xe4 /tmp/ccfdZ3Du.ltrans8.ltrans.o
                0x0000000000051120                AsciiStrnCmp
 .text.FileInterfaceFileWrite
                0x0000000000051204       0x9c /tmp/ccfdZ3Du.ltrans8.ltrans.o
                0x0000000000051204                FileInterfaceFileWrite
 .text.StrHexToUint64
                0x00000000000512a0       0x1c /tmp/ccfdZ3Du.ltrans8.ltrans.o
                0x00000000000512a0                StrHexToUint64
 .text.InternalIsHexaDecimalDigitCharacter
                0x00000000000512bc       0x34 /tmp/ccfdZ3Du.ltrans8.ltrans.o
                0x00000000000512bc                InternalIsHexaDecimalDigitCharacter
 .text.InternalHexCharToUintn
                0x00000000000512f0       0x40 /tmp/ccfdZ3Du.ltrans8.ltrans.o
                0x00000000000512f0                InternalHexCharToUintn
 .text.StrLen   0x0000000000051330       0xbc /tmp/ccfdZ3Du.ltrans8.ltrans.o
                0x0000000000051330                StrLen
 .text.StrSize  0x00000000000513ec       0x1c /tmp/ccfdZ3Du.ltrans8.ltrans.o
                0x00000000000513ec                StrSize
 .text.StrStr   0x0000000000051408       0xbc /tmp/ccfdZ3Du.ltrans8.ltrans.o
                0x0000000000051408                StrStr
 .text.StrnCmp  0x00000000000514c4       0xe4 /tmp/ccfdZ3Du.ltrans8.ltrans.o
                0x00000000000514c4                StrnCmp
 .text.StrCmp   0x00000000000515a8       0x98 /tmp/ccfdZ3Du.ltrans8.ltrans.o
                0x00000000000515a8                StrCmp
 .text.FileBasedSimpleTextOutOutputString
                0x0000000000051640       0x4c /tmp/ccfdZ3Du.ltrans8.ltrans.o
 .text.AsciiStrnLenS
                0x000000000005168c       0x3c /tmp/ccfdZ3Du.ltrans8.ltrans.o
                0x000000000005168c                AsciiStrnLenS
 .text.StrHexToBytes
                0x00000000000516c8      0x198 /tmp/ccfdZ3Du.ltrans8.ltrans.o
                0x00000000000516c8                StrHexToBytes
 .text.StrnLenS
                0x0000000000051860       0x7c /tmp/ccfdZ3Du.ltrans8.ltrans.o
                0x0000000000051860                StrnLenS
 .text.StrDecimalToUint64
                0x00000000000518dc      0x148 /tmp/ccfdZ3Du.ltrans8.ltrans.o
                0x00000000000518dc                StrDecimalToUint64
 .text.StrHexToUintnS
                0x0000000000051a24      0x1ac /tmp/ccfdZ3Du.ltrans8.ltrans.o
                0x0000000000051a24                StrHexToUintnS
 .text.StrHexToUintn
                0x0000000000051bd0       0x20 /tmp/ccfdZ3Du.ltrans8.ltrans.o
                0x0000000000051bd0                StrHexToUintn
 .text.StrDecimalToUintnS
                0x0000000000051bf0      0x178 /tmp/ccfdZ3Du.ltrans8.ltrans.o
                0x0000000000051bf0                StrDecimalToUintnS
 .text.StrDecimalToUintn
                0x0000000000051d68       0x20 /tmp/ccfdZ3Du.ltrans8.ltrans.o
                0x0000000000051d68                StrDecimalToUintn
 .text.StrnCatS
                0x0000000000051d88      0x26c /tmp/ccfdZ3Du.ltrans8.ltrans.o
                0x0000000000051d88                StrnCatS
 .text.StrCatS  0x0000000000051ff4      0x228 /tmp/ccfdZ3Du.ltrans8.ltrans.o
                0x0000000000051ff4                StrCatS
 .text.StrnCpyS
                0x000000000005221c      0x214 /tmp/ccfdZ3Du.ltrans8.ltrans.o
                0x000000000005221c                StrnCpyS
 .text.StrCpyS  0x0000000000052430      0x1cc /tmp/ccfdZ3Du.ltrans8.ltrans.o
                0x0000000000052430                StrCpyS
 .text.IsNull   0x00000000000525fc       0x5c /tmp/ccfdZ3Du.ltrans8.ltrans.o
                0x00000000000525fc                IsNull
 .text.IsNodeAtEnd
                0x0000000000052658       0x7c /tmp/ccfdZ3Du.ltrans8.ltrans.o
                0x0000000000052658                IsNodeAtEnd
 .text.IsListEmpty
                0x00000000000526d4       0x5c /tmp/ccfdZ3Du.ltrans8.ltrans.o
                0x00000000000526d4                IsListEmpty
 .text.RemoveEntryList
                0x0000000000052730       0x64 /tmp/ccfdZ3Du.ltrans8.ltrans.o
                0x0000000000052730                RemoveEntryList
 .text.EfiShellGetCurDir
                0x0000000000052794       0xd0 /tmp/ccfdZ3Du.ltrans8.ltrans.o
                0x0000000000052794                EfiShellGetCurDir
 .text.GetFirstNode
                0x0000000000052864       0x54 /tmp/ccfdZ3Du.ltrans8.ltrans.o
                0x0000000000052864                GetFirstNode
 .text.ShellRemvoeEnvVarFromList
                0x00000000000528b8       0xc0 /tmp/ccfdZ3Du.ltrans8.ltrans.o
 .text.EfiShellGetHelpText
                0x0000000000052978      0x27c /tmp/ccfdZ3Du.ltrans8.ltrans.o
                0x0000000000052978                EfiShellGetHelpText
 .text.InsertTailList
                0x0000000000052bf4       0x6c /tmp/ccfdZ3Du.ltrans8.ltrans.o
                0x0000000000052bf4                InsertTailList
 .text.ShellAddEnvVarToList
                0x0000000000052c60      0x11c /tmp/ccfdZ3Du.ltrans8.ltrans.o
 .text.InsertHeadList
                0x0000000000052d7c       0x68 /tmp/ccfdZ3Du.ltrans8.ltrans.o
                0x0000000000052d7c                InsertHeadList
 .text.SwapListEntries
                0x0000000000052de4       0xc0 /tmp/ccfdZ3Du.ltrans8.ltrans.o
                0x0000000000052de4                SwapListEntries
 .text.InitializeListHead
                0x0000000000052ea4       0x4c /tmp/ccfdZ3Du.ltrans8.ltrans.o
                0x0000000000052ea4                InitializeListHead
 .text.LShiftU64
                0x0000000000052ef0        0x8 /tmp/ccfdZ3Du.ltrans8.ltrans.o
                0x0000000000052ef0                LShiftU64
 .text.InternalMemSetMem
                0x0000000000052ef8      0x108 /tmp/ccfdZ3Du.ltrans8.ltrans.o
 .text.CompareGuid
                0x0000000000053000       0x5c /tmp/ccfdZ3Du.ltrans8.ltrans.o
                0x0000000000053000                CompareGuid
 .text.EfiShellGetAlias
                0x000000000005305c      0x28c /tmp/ccfdZ3Du.ltrans8.ltrans.o
                0x000000000005305c                EfiShellGetAlias
 .text.CopyGuid
                0x00000000000532e8       0x4c /tmp/ccfdZ3Du.ltrans8.ltrans.o
                0x00000000000532e8                CopyGuid
 .text.StrToGuid
                0x0000000000053334      0x17c /tmp/ccfdZ3Du.ltrans8.ltrans.o
                0x0000000000053334                StrToGuid
 .text.CopyMem  0x00000000000534b0      0x2a8 /tmp/ccfdZ3Du.ltrans8.ltrans.o
                0x00000000000534b0                CopyMem
 .text.FileInterfaceFileRead
                0x0000000000053758      0x104 /tmp/ccfdZ3Du.ltrans8.ltrans.o
                0x0000000000053758                FileInterfaceFileRead
 .text.FileInterfaceMemRead
                0x000000000005385c       0x64 /tmp/ccfdZ3Du.ltrans8.ltrans.o
 .text.FileInterfaceMemWrite
                0x00000000000538c0      0x168 /tmp/ccfdZ3Du.ltrans8.ltrans.o
 .text.FileInterfaceEnvVolWrite
                0x0000000000053a28      0x188 /tmp/ccfdZ3Du.ltrans8.ltrans.o
 .text.FileInterfaceEnvNonVolWrite
                0x0000000000053bb0      0x188 /tmp/ccfdZ3Du.ltrans8.ltrans.o
 .text.SetMem   0x0000000000053d38       0x74 /tmp/ccfdZ3Du.ltrans8.ltrans.o
                0x0000000000053d38                SetMem
 .text.SetMem16
                0x0000000000053dac       0xd4 /tmp/ccfdZ3Du.ltrans8.ltrans.o
                0x0000000000053dac                SetMem16
 .text.AppendStringToHistory
                0x0000000000053e80      0x334 /tmp/ccfdZ3Du.ltrans8.ltrans.o
 .text.ConsoleLoggerOutputStringSplit
                0x00000000000541b4       0x48 /tmp/ccfdZ3Du.ltrans8.ltrans.o
 .text.ConsoleLoggerOutputString
                0x00000000000541fc      0x45c /tmp/ccfdZ3Du.ltrans8.ltrans.o
                0x00000000000541fc                ConsoleLoggerOutputString
 .text.ZeroMem  0x0000000000054658       0x80 /tmp/ccfdZ3Du.ltrans8.ltrans.o
                0x0000000000054658                ZeroMem
 .text.FileInterfaceMemGetInfo
                0x00000000000546d8       0x94 /tmp/ccfdZ3Du.ltrans8.ltrans.o
 .text.CloseSimpleTextOutOnFile
                0x000000000005476c       0x64 /tmp/ccfdZ3Du.ltrans8.ltrans.o
                0x000000000005476c                CloseSimpleTextOutOnFile
 .text.unlikely.CreateSimpleTextOutOnFile
                0x00000000000547d0      0x184 /tmp/ccfdZ3Du.ltrans8.ltrans.o
                0x00000000000547d0                CreateSimpleTextOutOnFile
 .text.CloseSimpleTextInOnFile
                0x0000000000054954       0x80 /tmp/ccfdZ3Du.ltrans8.ltrans.o
                0x0000000000054954                CloseSimpleTextInOnFile
 .text.CreateSimpleTextInOnFile
                0x00000000000549d4       0xfc /tmp/ccfdZ3Du.ltrans8.ltrans.o
                0x00000000000549d4                CreateSimpleTextInOnFile
 .text.ConsoleLoggerResetBuffers
                0x0000000000054ad0       0xdc /tmp/ccfdZ3Du.ltrans8.ltrans.o
                0x0000000000054ad0                ConsoleLoggerResetBuffers
 .text.ConsoleLoggerSetMode
                0x0000000000054bac       0xa8 /tmp/ccfdZ3Du.ltrans8.ltrans.o
                0x0000000000054bac                ConsoleLoggerSetMode
 .text.ConsoleLoggerReset
                0x0000000000054c54       0x94 /tmp/ccfdZ3Du.ltrans8.ltrans.o
                0x0000000000054c54                ConsoleLoggerReset
 .text.UpdateDisplayFromHistory
                0x0000000000054ce8      0x270 /tmp/ccfdZ3Du.ltrans8.ltrans.o
                0x0000000000054ce8                UpdateDisplayFromHistory
 .text.FileInterfaceStdInRead
                0x0000000000054f58      0xd28 /tmp/ccfdZ3Du.ltrans8.ltrans.o
                0x0000000000054f58                FileInterfaceStdInRead
 .text.ManFileFindSections
                0x0000000000055c80      0x208 /tmp/ccfdZ3Du.ltrans8.ltrans.o
                0x0000000000055c80                ManFileFindSections
 .text.FreeEnvironmentVariableList
                0x0000000000055e88       0xe4 /tmp/ccfdZ3Du.ltrans8.ltrans.o
                0x0000000000055e88                FreeEnvironmentVariableList
 .text.GetEnvironmentVariableList
                0x0000000000055f6c      0x270 /tmp/ccfdZ3Du.ltrans8.ltrans.o
                0x0000000000055f6c                GetEnvironmentVariableList
 .text.SetEnvironmentVariableList
                0x00000000000561dc      0x24c /tmp/ccfdZ3Du.ltrans8.ltrans.o
                0x00000000000561dc                SetEnvironmentVariableList
 .text.SetEnvironmentVariables.part.1
                0x0000000000056428      0x1e4 /tmp/ccfdZ3Du.ltrans8.ltrans.o
                0x0000000000056428                SetEnvironmentVariables.part.1
 .text.IsVolatileEnv
                0x000000000005660c       0xf8 /tmp/ccfdZ3Du.ltrans8.ltrans.o
                0x000000000005660c                IsVolatileEnv
 .text.FileInterfaceEnvClose
                0x0000000000056704      0x1a8 /tmp/ccfdZ3Du.ltrans8.ltrans.o
 .text.FileInterfaceEnvDelete
                0x00000000000568ac       0x48 /tmp/ccfdZ3Du.ltrans8.ltrans.o
 .text.CreateFileInterfaceMem
                0x00000000000568f4      0x14c /tmp/ccfdZ3Du.ltrans8.ltrans.o
                0x00000000000568f4                CreateFileInterfaceMem
 .text.CreateFileInterfaceEnv
                0x0000000000056a40      0x100 /tmp/ccfdZ3Du.ltrans8.ltrans.o
                0x0000000000056a40                CreateFileInterfaceEnv
 .text.ShellSearchHandle.part.11
                0x0000000000056b40      0x390 /tmp/ccfdZ3Du.ltrans8.ltrans.o
                0x0000000000056b40                ShellSearchHandle.part.11
 .text.CleanUpShellProtocol
                0x0000000000056ed0       0xd0 /tmp/ccfdZ3Du.ltrans8.ltrans.o
                0x0000000000056ed0                CleanUpShellProtocol
 .text.InternalSetAlias
                0x0000000000056fa0      0x108 /tmp/ccfdZ3Du.ltrans8.ltrans.o
                0x0000000000056fa0                InternalSetAlias
 .text.EfiShellSetAlias
                0x00000000000570a8       0x9c /tmp/ccfdZ3Du.ltrans8.ltrans.o
                0x00000000000570a8                EfiShellSetAlias
 .text.InternalEfiShellSetEnv
                0x0000000000057144      0x11c /tmp/ccfdZ3Du.ltrans8.ltrans.o
                0x0000000000057144                InternalEfiShellSetEnv
 .text.EfiShellSetCurDir
                0x0000000000057260      0x4c8 /tmp/ccfdZ3Du.ltrans8.ltrans.o
                0x0000000000057260                EfiShellSetCurDir
 .text.EfiShellSetEnv
                0x0000000000057728      0x13c /tmp/ccfdZ3Du.ltrans8.ltrans.o
                0x0000000000057728                EfiShellSetEnv
 .text.FileHandleFlush
                0x0000000000057864       0x18 /tmp/ccfdZ3Du.ltrans9.ltrans.o
                0x0000000000057864                FileHandleFlush
 .text.FileHandleGetPosition
                0x000000000005787c       0x20 /tmp/ccfdZ3Du.ltrans9.ltrans.o
                0x000000000005787c                FileHandleGetPosition
 .text.FileHandleSetPosition
                0x000000000005789c       0x18 /tmp/ccfdZ3Du.ltrans9.ltrans.o
                0x000000000005789c                FileHandleSetPosition
 .text.FileHandleDelete
                0x00000000000578b4       0x18 /tmp/ccfdZ3Du.ltrans9.ltrans.o
                0x00000000000578b4                FileHandleDelete
 .text.FileHandleClose
                0x00000000000578cc       0x18 /tmp/ccfdZ3Du.ltrans9.ltrans.o
                0x00000000000578cc                FileHandleClose
 .text.FileHandleWrite
                0x00000000000578e4       0x18 /tmp/ccfdZ3Du.ltrans9.ltrans.o
                0x00000000000578e4                FileHandleWrite
 .text.FileHandleRead
                0x00000000000578fc       0x18 /tmp/ccfdZ3Du.ltrans9.ltrans.o
                0x00000000000578fc                FileHandleRead
 .text.FileHandleSetInfo
                0x0000000000057914       0x30 /tmp/ccfdZ3Du.ltrans9.ltrans.o
                0x0000000000057914                FileHandleSetInfo
 .text.StrToAscii
                0x0000000000057944       0x2c /tmp/ccfdZ3Du.ltrans9.ltrans.o
 .text.IsHexStr
                0x0000000000057970       0x38 /tmp/ccfdZ3Du.ltrans9.ltrans.o
 .text.SplitStr
                0x00000000000579a8       0x48 /tmp/ccfdZ3Du.ltrans9.ltrans.o
 .text.GetNextParamStr
                0x00000000000579f0        0x8 /tmp/ccfdZ3Du.ltrans9.ltrans.o
 .text.EisaIdFromText
                0x00000000000579f8       0x44 /tmp/ccfdZ3Du.ltrans9.ltrans.o
 .text.Strtoi64
                0x0000000000057a3c       0x40 /tmp/ccfdZ3Du.ltrans9.ltrans.o
 .text.Strtoi   0x0000000000057a7c       0x2c /tmp/ccfdZ3Du.ltrans9.ltrans.o
 .text.NetworkProtocolFromText
                0x0000000000057aa8       0x5c /tmp/ccfdZ3Du.ltrans9.ltrans.o
 .text.ShellGetCurrentDir
                0x0000000000057b04       0x30 /tmp/ccfdZ3Du.ltrans9.ltrans.o
                0x0000000000057b04                ShellGetCurrentDir
 .text.ShellGetEnvironmentVariable
                0x0000000000057b34       0x28 /tmp/ccfdZ3Du.ltrans9.ltrans.o
                0x0000000000057b34                ShellGetEnvironmentVariable
 .text.ShellGetExecutionBreakFlag
                0x0000000000057b5c       0x54 /tmp/ccfdZ3Du.ltrans9.ltrans.o
                0x0000000000057b5c                ShellGetExecutionBreakFlag
 .text.ShellGetFileSize
                0x0000000000057bb0        0xc /tmp/ccfdZ3Du.ltrans9.ltrans.o
                0x0000000000057bb0                ShellGetFileSize
 .text.ShellDeleteFile
                0x0000000000057bbc       0x10 /tmp/ccfdZ3Du.ltrans9.ltrans.o
                0x0000000000057bbc                ShellDeleteFile
 .text.ShellCloseFile
                0x0000000000057bcc       0x10 /tmp/ccfdZ3Du.ltrans9.ltrans.o
                0x0000000000057bcc                ShellCloseFile
 .text.ShellWriteFile
                0x0000000000057bdc        0xc /tmp/ccfdZ3Du.ltrans9.ltrans.o
                0x0000000000057bdc                ShellWriteFile
 .text.ShellReadFile
                0x0000000000057be8        0xc /tmp/ccfdZ3Du.ltrans9.ltrans.o
                0x0000000000057be8                ShellReadFile
 .text.ShellGetFileInfo
                0x0000000000057bf4        0xc /tmp/ccfdZ3Du.ltrans9.ltrans.o
                0x0000000000057bf4                ShellGetFileInfo
 .text.ShellIsHexaDecimalDigitCharacter
                0x0000000000057c00       0x3c /tmp/ccfdZ3Du.ltrans9.ltrans.o
                0x0000000000057c00                ShellIsHexaDecimalDigitCharacter
 .text.DevicePathFromHandle
                0x0000000000057c3c       0x38 /tmp/ccfdZ3Du.ltrans9.ltrans.o
                0x0000000000057c3c                DevicePathFromHandle
 .text.AllocateZeroPool
                0x0000000000057c74       0x34 /tmp/ccfdZ3Du.ltrans9.ltrans.o
                0x0000000000057c74                AllocateZeroPool
 .text.AllocatePool
                0x0000000000057ca8        0x4 /tmp/ccfdZ3Du.ltrans9.ltrans.o
                0x0000000000057ca8                AllocatePool
 .text.DebugPrintLevelEnabled
                0x0000000000057cac        0x8 /tmp/ccfdZ3Du.ltrans9.ltrans.o
                0x0000000000057cac                DebugPrintLevelEnabled
 .text.DebugCodeEnabled
                0x0000000000057cb4        0x8 /tmp/ccfdZ3Du.ltrans9.ltrans.o
                0x0000000000057cb4                DebugCodeEnabled
 .text.DebugPrintEnabled
                0x0000000000057cbc        0x8 /tmp/ccfdZ3Du.ltrans9.ltrans.o
                0x0000000000057cbc                DebugPrintEnabled
 .text.DebugAssertEnabled
                0x0000000000057cc4        0x8 /tmp/ccfdZ3Du.ltrans9.ltrans.o
                0x0000000000057cc4                DebugAssertEnabled
 .text.BaseDebugLibSerialPortConstructor
                0x0000000000057ccc       0x84 /tmp/ccfdZ3Du.ltrans9.ltrans.o
                0x0000000000057ccc                BaseDebugLibSerialPortConstructor
 .text.BasePrintLibValueToString
                0x0000000000057d50       0x58 /tmp/ccfdZ3Du.ltrans9.ltrans.o
                0x0000000000057d50                BasePrintLibValueToString
 .text.BasePrintLibFillBuffer
                0x0000000000057da8       0x34 /tmp/ccfdZ3Du.ltrans9.ltrans.o
                0x0000000000057da8                BasePrintLibFillBuffer
 .text.AsciiSPrint
                0x0000000000057ddc       0x60 /tmp/ccfdZ3Du.ltrans9.ltrans.o
                0x0000000000057ddc                AsciiSPrint
 .text.DebugAssert
                0x0000000000057e3c       0x50 /tmp/ccfdZ3Du.ltrans9.ltrans.o
                0x0000000000057e3c                DebugAssert
 .text.QuickSortWorker
                0x0000000000057e8c      0x1bc /tmp/ccfdZ3Du.ltrans9.ltrans.o
                0x0000000000057e8c                QuickSortWorker
 .text.GetBestLanguage
                0x0000000000058048      0x1ac /tmp/ccfdZ3Du.ltrans9.ltrans.o
                0x0000000000058048                GetBestLanguage
 .text.EfiGetSystemConfigurationTable
                0x00000000000581f4       0x94 /tmp/ccfdZ3Du.ltrans9.ltrans.o
                0x00000000000581f4                EfiGetSystemConfigurationTable
 .text.SetDevicePathEndNode
                0x0000000000058288       0x54 /tmp/ccfdZ3Du.ltrans9.ltrans.o
                0x0000000000058288                SetDevicePathEndNode
 .text.DevicePathSubType
                0x00000000000582dc       0x48 /tmp/ccfdZ3Du.ltrans9.ltrans.o
                0x00000000000582dc                DevicePathSubType
 .text.DevicePathType
                0x0000000000058324       0x48 /tmp/ccfdZ3Du.ltrans9.ltrans.o
                0x0000000000058324                DevicePathType
 .text.IsDevicePathEndType
                0x000000000005836c       0x58 /tmp/ccfdZ3Du.ltrans9.ltrans.o
                0x000000000005836c                IsDevicePathEndType
 .text.IsDevicePathEnd
                0x00000000000583c4       0x70 /tmp/ccfdZ3Du.ltrans9.ltrans.o
                0x00000000000583c4                IsDevicePathEnd
 .text.AllocateCopyPool
                0x0000000000058434       0x8c /tmp/ccfdZ3Du.ltrans9.ltrans.o
                0x0000000000058434                AllocateCopyPool
 .text.UefiDevicePathLibStrDuplicate
                0x00000000000584c0       0x24 /tmp/ccfdZ3Du.ltrans9.ltrans.o
                0x00000000000584c0                UefiDevicePathLibStrDuplicate
 .text.DebugPrint
                0x00000000000584e4       0x7c /tmp/ccfdZ3Du.ltrans9.ltrans.o
                0x00000000000584e4                DebugPrint
 .text.ShellInitialize
                0x0000000000058560       0x80 /tmp/ccfdZ3Du.ltrans9.ltrans.o
                0x0000000000058560                ShellInitialize
 .text.HiiRemovePackages
                0x00000000000585e0       0xb0 /tmp/ccfdZ3Du.ltrans9.ltrans.o
                0x00000000000585e0                HiiRemovePackages
 .text.StringNoCaseCompare
                0x0000000000058690       0xbc /tmp/ccfdZ3Du.ltrans9.ltrans.o
                0x0000000000058690                StringNoCaseCompare
 .text.FreePool
                0x000000000005874c       0x7c /tmp/ccfdZ3Du.ltrans9.ltrans.o
                0x000000000005874c                FreePool
 .text.ShellOpenFileMetaArg
                0x00000000000587c8      0x3a8 /tmp/ccfdZ3Du.ltrans9.ltrans.o
                0x00000000000587c8                ShellOpenFileMetaArg
 .text.FileHandleFindNextFile.part.1
                0x0000000000058b70       0x98 /tmp/ccfdZ3Du.ltrans9.ltrans.o
                0x0000000000058b70                FileHandleFindNextFile.part.1
 .text.FileHandleGetInfo
                0x0000000000058c08       0xa0 /tmp/ccfdZ3Du.ltrans9.ltrans.o
                0x0000000000058c08                FileHandleGetInfo
 .text.FileHandleGetSize
                0x0000000000058ca8       0x54 /tmp/ccfdZ3Du.ltrans9.ltrans.o
                0x0000000000058ca8                FileHandleGetSize
 .text.FileHandleIsDirectory
                0x0000000000058cfc       0x50 /tmp/ccfdZ3Du.ltrans9.ltrans.o
                0x0000000000058cfc                FileHandleIsDirectory
 .text.HiiGetSupportedLanguages
                0x0000000000058d4c       0xc0 /tmp/ccfdZ3Du.ltrans9.ltrans.o
                0x0000000000058d4c                HiiGetSupportedLanguages
 .text.GetVariable2
                0x0000000000058e0c      0x130 /tmp/ccfdZ3Du.ltrans9.ltrans.o
                0x0000000000058e0c                GetVariable2
 .text.HiiGetString
                0x0000000000058f3c      0x1a0 /tmp/ccfdZ3Du.ltrans9.ltrans.o
                0x0000000000058f3c                HiiGetString
 .text.ReallocatePool
                0x00000000000590dc       0x6c /tmp/ccfdZ3Du.ltrans9.ltrans.o
                0x00000000000590dc                ReallocatePool
 .text.SPrintLength
                0x0000000000059148       0x70 /tmp/ccfdZ3Du.ltrans9.ltrans.o
                0x0000000000059148                SPrintLength
 .text.UnicodeVSPrint
                0x00000000000591b8       0x9c /tmp/ccfdZ3Du.ltrans9.ltrans.o
                0x00000000000591b8                UnicodeVSPrint
 .text.UefiDevicePathLibCatPrint
                0x0000000000059254      0x154 /tmp/ccfdZ3Du.ltrans9.ltrans.o
 .text.DevPathToTextEndInstance
                0x00000000000593a8        0xc /tmp/ccfdZ3Du.ltrans9.ltrans.o
 .text.DevPathToTextBBS
                0x00000000000593b4       0xec /tmp/ccfdZ3Du.ltrans9.ltrans.o
 .text.DevPathToTextRamDisk
                0x00000000000594a0      0x1c4 /tmp/ccfdZ3Du.ltrans9.ltrans.o
 .text.DevPathRelativeOffsetRange
                0x0000000000059664       0x10 /tmp/ccfdZ3Du.ltrans9.ltrans.o
 .text.DevPathToTextFvFile
                0x0000000000059674       0x10 /tmp/ccfdZ3Du.ltrans9.ltrans.o
 .text.DevPathToTextFv
                0x0000000000059684       0x10 /tmp/ccfdZ3Du.ltrans9.ltrans.o
 .text.DevPathToTextMediaProtocol
                0x0000000000059694       0x10 /tmp/ccfdZ3Du.ltrans9.ltrans.o
 .text.DevPathToTextFilePath
                0x00000000000596a4       0x10 /tmp/ccfdZ3Du.ltrans9.ltrans.o
 .text.DevPathToTextCDROM
                0x00000000000596b4       0x30 /tmp/ccfdZ3Du.ltrans9.ltrans.o
 .text.DevPathToTextHardDrive
                0x00000000000596e4       0x8c /tmp/ccfdZ3Du.ltrans9.ltrans.o
 .text.DevPathToTextBluetoothLE
                0x0000000000059770       0x44 /tmp/ccfdZ3Du.ltrans9.ltrans.o
 .text.DevPathToTextWiFi
                0x00000000000597b4       0x44 /tmp/ccfdZ3Du.ltrans9.ltrans.o
 .text.DevPathToTextBluetooth
                0x00000000000597f8       0x24 /tmp/ccfdZ3Du.ltrans9.ltrans.o
 .text.DevPathToTextVlan
                0x000000000005981c       0x10 /tmp/ccfdZ3Du.ltrans9.ltrans.o
 .text.DevPathToTextiSCSI
                0x000000000005982c       0xe4 /tmp/ccfdZ3Du.ltrans9.ltrans.o
 .text.DevPathToTextUart
                0x0000000000059910      0x118 /tmp/ccfdZ3Du.ltrans9.ltrans.o
 .text.DevPathToTextInfiniBand
                0x0000000000059a28       0x1c /tmp/ccfdZ3Du.ltrans9.ltrans.o
 .text.CatIPv6Address
                0x0000000000059a44       0x8c /tmp/ccfdZ3Du.ltrans9.ltrans.o
 .text.CatIPv4Address
                0x0000000000059ad0       0x1c /tmp/ccfdZ3Du.ltrans9.ltrans.o
 .text.CatNetworkProtocol
                0x0000000000059aec       0x38 /tmp/ccfdZ3Du.ltrans9.ltrans.o
 .text.DevPathToTextMacAddr
                0x0000000000059b24       0x8c /tmp/ccfdZ3Du.ltrans9.ltrans.o
 .text.DevPathToTextI2O
                0x0000000000059bb0       0x10 /tmp/ccfdZ3Du.ltrans9.ltrans.o
 .text.DevPathToTextSata
                0x0000000000059bc0       0x18 /tmp/ccfdZ3Du.ltrans9.ltrans.o
 .text.DevPathToTextUsbClass
                0x0000000000059bd8      0x1bc /tmp/ccfdZ3Du.ltrans9.ltrans.o
 .text.DevPathToTextLogicalUnit
                0x0000000000059d94       0x10 /tmp/ccfdZ3Du.ltrans9.ltrans.o
 .text.DevPathToTextUsb
                0x0000000000059da4       0x14 /tmp/ccfdZ3Du.ltrans9.ltrans.o
 .text.DevPathToText1394
                0x0000000000059db8       0x10 /tmp/ccfdZ3Du.ltrans9.ltrans.o
 .text.DevPathToTextEmmc
                0x0000000000059dc8       0x10 /tmp/ccfdZ3Du.ltrans9.ltrans.o
 .text.DevPathToTextSd
                0x0000000000059dd8       0x10 /tmp/ccfdZ3Du.ltrans9.ltrans.o
 .text.DevPathToTextUfs
                0x0000000000059de8       0x14 /tmp/ccfdZ3Du.ltrans9.ltrans.o
 .text.DevPathToTextNVMe
                0x0000000000059dfc       0x54 /tmp/ccfdZ3Du.ltrans9.ltrans.o
 .text.DevPathToTextSasEx
                0x0000000000059e50      0x184 /tmp/ccfdZ3Du.ltrans9.ltrans.o
 .text.DevPathToTextFibreEx
                0x0000000000059fd4       0xa0 /tmp/ccfdZ3Du.ltrans9.ltrans.o
 .text.DevPathToTextFibre
                0x000000000005a074       0x10 /tmp/ccfdZ3Du.ltrans9.ltrans.o
 .text.DevPathToTextScsi
                0x000000000005a084       0x14 /tmp/ccfdZ3Du.ltrans9.ltrans.o
 .text.DevPathToTextAtapi
                0x000000000005a098       0x60 /tmp/ccfdZ3Du.ltrans9.ltrans.o
 .text.DevPathToTextAcpi
                0x000000000005a0f8       0xc0 /tmp/ccfdZ3Du.ltrans9.ltrans.o
 .text.DevPathToTextController
                0x000000000005a1b8       0x10 /tmp/ccfdZ3Du.ltrans9.ltrans.o
 .text.DevPathToTextMemMap
                0x000000000005a1c8       0x14 /tmp/ccfdZ3Du.ltrans9.ltrans.o
 .text.DevPathToTextPccard
                0x000000000005a1dc       0x10 /tmp/ccfdZ3Du.ltrans9.ltrans.o
 .text.DevPathToTextPci
                0x000000000005a1ec       0x14 /tmp/ccfdZ3Du.ltrans9.ltrans.o
 .text.UnicodeSPrint
                0x000000000005a200       0x50 /tmp/ccfdZ3Du.ltrans9.ltrans.o
                0x000000000005a200                UnicodeSPrint
 .text.DevPathToTextAcpiEx
                0x000000000005a250      0x1b8 /tmp/ccfdZ3Du.ltrans9.ltrans.o
 .text.DivU64x32
                0x000000000005a408        0xc /tmp/ccfdZ3Du.ltrans9.ltrans.o
                0x000000000005a408                DivU64x32
 .text.MultU64x32
                0x000000000005a414        0xc /tmp/ccfdZ3Du.ltrans9.ltrans.o
                0x000000000005a414                MultU64x32
 .text.RShiftU64
                0x000000000005a420        0x8 /tmp/ccfdZ3Du.ltrans9.ltrans.o
                0x000000000005a420                RShiftU64
 .text.SwapBytes32
                0x000000000005a428       0x20 /tmp/ccfdZ3Du.ltrans9.ltrans.o
                0x000000000005a428                SwapBytes32
 .text.WriteUnaligned16
                0x000000000005a448       0x5c /tmp/ccfdZ3Du.ltrans9.ltrans.o
                0x000000000005a448                WriteUnaligned16
 .text.SetDevicePathNodeLength
                0x000000000005a4a4       0x78 /tmp/ccfdZ3Du.ltrans9.ltrans.o
 .text.UefiDevicePathLibCreateDeviceNode
                0x000000000005a51c       0x64 /tmp/ccfdZ3Du.ltrans9.ltrans.o
                0x000000000005a51c                UefiDevicePathLibCreateDeviceNode
 .text.DevPathFromTextVenVt100Plus
                0x000000000005a580       0x40 /tmp/ccfdZ3Du.ltrans9.ltrans.o
                0x000000000005a580                DevPathFromTextVenVt100Plus
 .text.DevPathFromTextSata
                0x000000000005a5c0       0x88 /tmp/ccfdZ3Du.ltrans9.ltrans.o
                0x000000000005a5c0                DevPathFromTextSata
 .text.DevPathFromTextBBS
                0x000000000005a648      0x140 /tmp/ccfdZ3Du.ltrans9.ltrans.o
                0x000000000005a648                DevPathFromTextBBS
 .text.DevPathFromTextRelativeOffsetRange
                0x000000000005a788       0x70 /tmp/ccfdZ3Du.ltrans9.ltrans.o
                0x000000000005a788                DevPathFromTextRelativeOffsetRange
 .text.DevPathFromTextFvFile
                0x000000000005a7f8       0x50 /tmp/ccfdZ3Du.ltrans9.ltrans.o
                0x000000000005a7f8                DevPathFromTextFvFile
 .text.DevPathFromTextFv
                0x000000000005a848       0x50 /tmp/ccfdZ3Du.ltrans9.ltrans.o
                0x000000000005a848                DevPathFromTextFv
 .text.DevPathFromTextMedia
                0x000000000005a898       0x50 /tmp/ccfdZ3Du.ltrans9.ltrans.o
                0x000000000005a898                DevPathFromTextMedia
 .text.DevPathFromTextCDROM
                0x000000000005a8e8       0x88 /tmp/ccfdZ3Du.ltrans9.ltrans.o
                0x000000000005a8e8                DevPathFromTextCDROM
 .text.DevPathFromTextHD
                0x000000000005a970      0x130 /tmp/ccfdZ3Du.ltrans9.ltrans.o
                0x000000000005a970                DevPathFromTextHD
 .text.DevPathFromTextUri
                0x000000000005aaa0       0x64 /tmp/ccfdZ3Du.ltrans9.ltrans.o
                0x000000000005aaa0                DevPathFromTextUri
 .text.DevPathFromTextDns
                0x000000000005ab04      0x110 /tmp/ccfdZ3Du.ltrans9.ltrans.o
                0x000000000005ab04                DevPathFromTextDns
 .text.DevPathFromTextBluetoothLE
                0x000000000005ac14       0x78 /tmp/ccfdZ3Du.ltrans9.ltrans.o
                0x000000000005ac14                DevPathFromTextBluetoothLE
 .text.DevPathFromTextWiFi
                0x000000000005ac8c       0x90 /tmp/ccfdZ3Du.ltrans9.ltrans.o
                0x000000000005ac8c                DevPathFromTextWiFi
 .text.DevPathFromTextBluetooth
                0x000000000005ad1c       0x58 /tmp/ccfdZ3Du.ltrans9.ltrans.o
                0x000000000005ad1c                DevPathFromTextBluetooth
 .text.DevPathFromTextVlan
                0x000000000005ad74       0x50 /tmp/ccfdZ3Du.ltrans9.ltrans.o
                0x000000000005ad74                DevPathFromTextVlan
 .text.DevPathFromTextUnit
                0x000000000005adc4       0x50 /tmp/ccfdZ3Du.ltrans9.ltrans.o
                0x000000000005adc4                DevPathFromTextUnit
 .text.DevPathFromTextUsbWwid
                0x000000000005ae14       0xec /tmp/ccfdZ3Du.ltrans9.ltrans.o
                0x000000000005ae14                DevPathFromTextUsbWwid
 .text.ConvertFromTextUsbClass
                0x000000000005af00       0xd4 /tmp/ccfdZ3Du.ltrans9.ltrans.o
 .text.DevPathFromTextUsbTestAndMeasurement
                0x000000000005afd4       0x24 /tmp/ccfdZ3Du.ltrans9.ltrans.o
                0x000000000005afd4                DevPathFromTextUsbTestAndMeasurement
 .text.DevPathFromTextUsbIrdaBridge
                0x000000000005aff8       0x24 /tmp/ccfdZ3Du.ltrans9.ltrans.o
                0x000000000005aff8                DevPathFromTextUsbIrdaBridge
 .text.DevPathFromTextUsbDeviceFirmwareUpdate
                0x000000000005b01c       0x24 /tmp/ccfdZ3Du.ltrans9.ltrans.o
                0x000000000005b01c                DevPathFromTextUsbDeviceFirmwareUpdate
 .text.DevPathFromTextUsbWireless
                0x000000000005b040       0x28 /tmp/ccfdZ3Du.ltrans9.ltrans.o
                0x000000000005b040                DevPathFromTextUsbWireless
 .text.DevPathFromTextUsbDiagnostic
                0x000000000005b068       0x28 /tmp/ccfdZ3Du.ltrans9.ltrans.o
                0x000000000005b068                DevPathFromTextUsbDiagnostic
 .text.DevPathFromTextUsbVideo
                0x000000000005b090       0x28 /tmp/ccfdZ3Du.ltrans9.ltrans.o
                0x000000000005b090                DevPathFromTextUsbVideo
 .text.DevPathFromTextUsbSmartCard
                0x000000000005b0b8       0x28 /tmp/ccfdZ3Du.ltrans9.ltrans.o
                0x000000000005b0b8                DevPathFromTextUsbSmartCard
 .text.DevPathFromTextUsbCDCData
                0x000000000005b0e0       0x28 /tmp/ccfdZ3Du.ltrans9.ltrans.o
                0x000000000005b0e0                DevPathFromTextUsbCDCData
 .text.DevPathFromTextUsbHub
                0x000000000005b108       0x28 /tmp/ccfdZ3Du.ltrans9.ltrans.o
                0x000000000005b108                DevPathFromTextUsbHub
 .text.DevPathFromTextUsbMassStorage
                0x000000000005b130       0x28 /tmp/ccfdZ3Du.ltrans9.ltrans.o
                0x000000000005b130                DevPathFromTextUsbMassStorage
 .text.DevPathFromTextUsbPrinter
                0x000000000005b158       0x28 /tmp/ccfdZ3Du.ltrans9.ltrans.o
                0x000000000005b158                DevPathFromTextUsbPrinter
 .text.DevPathFromTextUsbImage
                0x000000000005b180       0x28 /tmp/ccfdZ3Du.ltrans9.ltrans.o
                0x000000000005b180                DevPathFromTextUsbImage
 .text.DevPathFromTextUsbHID
                0x000000000005b1a8       0x28 /tmp/ccfdZ3Du.ltrans9.ltrans.o
                0x000000000005b1a8                DevPathFromTextUsbHID
 .text.DevPathFromTextUsbCDCControl
                0x000000000005b1d0       0x28 /tmp/ccfdZ3Du.ltrans9.ltrans.o
                0x000000000005b1d0                DevPathFromTextUsbCDCControl
 .text.DevPathFromTextUsbAudio
                0x000000000005b1f8       0x28 /tmp/ccfdZ3Du.ltrans9.ltrans.o
                0x000000000005b1f8                DevPathFromTextUsbAudio
 .text.DevPathFromTextUsbClass
                0x000000000005b220       0x24 /tmp/ccfdZ3Du.ltrans9.ltrans.o
                0x000000000005b220                DevPathFromTextUsbClass
 .text.DevPathFromTextUart
                0x000000000005b244      0x1b0 /tmp/ccfdZ3Du.ltrans9.ltrans.o
                0x000000000005b244                DevPathFromTextUart
 .text.DevPathFromTextIPv6
                0x000000000005b3f4      0x144 /tmp/ccfdZ3Du.ltrans9.ltrans.o
                0x000000000005b3f4                DevPathFromTextIPv6
 .text.DevPathFromTextIPv4
                0x000000000005b538      0x134 /tmp/ccfdZ3Du.ltrans9.ltrans.o
                0x000000000005b538                DevPathFromTextIPv4
 .text.DevPathFromTextMAC
                0x000000000005b66c       0x88 /tmp/ccfdZ3Du.ltrans9.ltrans.o
                0x000000000005b66c                DevPathFromTextMAC
 .text.DevPathFromTextDebugPort
                0x000000000005b6f4       0x40 /tmp/ccfdZ3Du.ltrans9.ltrans.o
                0x000000000005b6f4                DevPathFromTextDebugPort
 .text.DevPathFromTextEmmc
                0x000000000005b734       0x50 /tmp/ccfdZ3Du.ltrans9.ltrans.o
                0x000000000005b734                DevPathFromTextEmmc
 .text.DevPathFromTextSd
                0x000000000005b784       0x50 /tmp/ccfdZ3Du.ltrans9.ltrans.o
                0x000000000005b784                DevPathFromTextSd
 .text.DevPathFromTextUfs
                0x000000000005b7d4       0x70 /tmp/ccfdZ3Du.ltrans9.ltrans.o
                0x000000000005b7d4                DevPathFromTextUfs
 .text.DevPathFromTextNVMe
                0x000000000005b844       0x94 /tmp/ccfdZ3Du.ltrans9.ltrans.o
                0x000000000005b844                DevPathFromTextNVMe
 .text.DevPathFromTextSAS
                0x000000000005b8d8      0x218 /tmp/ccfdZ3Du.ltrans9.ltrans.o
                0x000000000005b8d8                DevPathFromTextSAS
 .text.DevPathFromTextUartFlowCtrl
                0x000000000005baf0       0x8c /tmp/ccfdZ3Du.ltrans9.ltrans.o
                0x000000000005baf0                DevPathFromTextUartFlowCtrl
 .text.DevPathFromTextVenUtf8
                0x000000000005bb7c       0x40 /tmp/ccfdZ3Du.ltrans9.ltrans.o
                0x000000000005bb7c                DevPathFromTextVenUtf8
 .text.DevPathFromTextVenVt100
                0x000000000005bbbc       0x40 /tmp/ccfdZ3Du.ltrans9.ltrans.o
                0x000000000005bbbc                DevPathFromTextVenVt100
 .text.DevPathFromTextVenPcAnsi
                0x000000000005bbfc       0x40 /tmp/ccfdZ3Du.ltrans9.ltrans.o
                0x000000000005bbfc                DevPathFromTextVenPcAnsi
 .text.DevPathFromTextInfiniband
                0x000000000005bc3c       0xc0 /tmp/ccfdZ3Du.ltrans9.ltrans.o
                0x000000000005bc3c                DevPathFromTextInfiniband
 .text.DevPathFromTextI2O
                0x000000000005bcfc       0x50 /tmp/ccfdZ3Du.ltrans9.ltrans.o
                0x000000000005bcfc                DevPathFromTextI2O
 .text.DevPathFromTextUsb
                0x000000000005bd4c       0x70 /tmp/ccfdZ3Du.ltrans9.ltrans.o
                0x000000000005bd4c                DevPathFromTextUsb
 .text.DevPathFromText1394
                0x000000000005bdbc       0x54 /tmp/ccfdZ3Du.ltrans9.ltrans.o
                0x000000000005bdbc                DevPathFromText1394
 .text.DevPathFromTextFibreEx
                0x000000000005be10       0x8c /tmp/ccfdZ3Du.ltrans9.ltrans.o
                0x000000000005be10                DevPathFromTextFibreEx
 .text.DevPathFromTextFibre
                0x000000000005be9c       0x74 /tmp/ccfdZ3Du.ltrans9.ltrans.o
                0x000000000005be9c                DevPathFromTextFibre
 .text.DevPathFromTextScsi
                0x000000000005bf10       0x70 /tmp/ccfdZ3Du.ltrans9.ltrans.o
                0x000000000005bf10                DevPathFromTextScsi
 .text.DevPathFromTextAta
                0x000000000005bf80       0xf8 /tmp/ccfdZ3Du.ltrans9.ltrans.o
                0x000000000005bf80                DevPathFromTextAta
 .text.DevPathFromTextAcpiExp
                0x000000000005c078       0xa0 /tmp/ccfdZ3Du.ltrans9.ltrans.o
                0x000000000005c078                DevPathFromTextAcpiExp
 .text.DevPathFromTextAcpiEx
                0x000000000005c118      0x10c /tmp/ccfdZ3Du.ltrans9.ltrans.o
                0x000000000005c118                DevPathFromTextAcpiEx
 .text.ConvertFromTextAcpi
                0x000000000005c224       0x68 /tmp/ccfdZ3Du.ltrans9.ltrans.o
 .text.DevPathFromTextParallelPort
                0x000000000005c28c        0x8 /tmp/ccfdZ3Du.ltrans9.ltrans.o
                0x000000000005c28c                DevPathFromTextParallelPort
 .text.DevPathFromTextSerial
                0x000000000005c294        0x8 /tmp/ccfdZ3Du.ltrans9.ltrans.o
                0x000000000005c294                DevPathFromTextSerial
 .text.DevPathFromTextKeyboard
                0x000000000005c29c        0x8 /tmp/ccfdZ3Du.ltrans9.ltrans.o
                0x000000000005c29c                DevPathFromTextKeyboard
 .text.DevPathFromTextFloppy
                0x000000000005c2a4        0x8 /tmp/ccfdZ3Du.ltrans9.ltrans.o
                0x000000000005c2a4                DevPathFromTextFloppy
 .text.DevPathFromTextPcieRoot
                0x000000000005c2ac        0x8 /tmp/ccfdZ3Du.ltrans9.ltrans.o
                0x000000000005c2ac                DevPathFromTextPcieRoot
 .text.DevPathFromTextPciRoot
                0x000000000005c2b4        0x8 /tmp/ccfdZ3Du.ltrans9.ltrans.o
                0x000000000005c2b4                DevPathFromTextPciRoot
 .text.DevPathFromTextAcpi
                0x000000000005c2bc       0x70 /tmp/ccfdZ3Du.ltrans9.ltrans.o
                0x000000000005c2bc                DevPathFromTextAcpi
 .text.DevPathFromTextCtrl
                0x000000000005c32c       0x50 /tmp/ccfdZ3Du.ltrans9.ltrans.o
                0x000000000005c32c                DevPathFromTextCtrl
 .text.ConvertFromTextVendor
                0x000000000005c37c       0x94 /tmp/ccfdZ3Du.ltrans9.ltrans.o
 .text.DevPathFromTextVenMedia
                0x000000000005c410        0xc /tmp/ccfdZ3Du.ltrans9.ltrans.o
                0x000000000005c410                DevPathFromTextVenMedia
 .text.DevPathFromTextVenMsg
                0x000000000005c41c        0xc /tmp/ccfdZ3Du.ltrans9.ltrans.o
                0x000000000005c41c                DevPathFromTextVenMsg
 .text.DevPathFromTextVenHw
                0x000000000005c428        0xc /tmp/ccfdZ3Du.ltrans9.ltrans.o
                0x000000000005c428                DevPathFromTextVenHw
 .text.DevPathFromTextMemoryMapped
                0x000000000005c434       0x88 /tmp/ccfdZ3Du.ltrans9.ltrans.o
                0x000000000005c434                DevPathFromTextMemoryMapped
 .text.DevPathFromTextPcCard
                0x000000000005c4bc       0x50 /tmp/ccfdZ3Du.ltrans9.ltrans.o
                0x000000000005c4bc                DevPathFromTextPcCard
 .text.DevPathFromTextPci
                0x000000000005c50c       0x70 /tmp/ccfdZ3Du.ltrans9.ltrans.o
                0x000000000005c50c                DevPathFromTextPci
 .text.DevPathFromTextGenericPath
                0x000000000005c57c       0x8c /tmp/ccfdZ3Du.ltrans9.ltrans.o
 .text.DevPathFromTextBbsPath
                0x000000000005c608        0xc /tmp/ccfdZ3Du.ltrans9.ltrans.o
                0x000000000005c608                DevPathFromTextBbsPath
 .text.DevPathFromTextMediaPath
                0x000000000005c614        0xc /tmp/ccfdZ3Du.ltrans9.ltrans.o
                0x000000000005c614                DevPathFromTextMediaPath
 .text.DevPathFromTextMsg
                0x000000000005c620        0xc /tmp/ccfdZ3Du.ltrans9.ltrans.o
                0x000000000005c620                DevPathFromTextMsg
 .text.DevPathFromTextAcpiPath
                0x000000000005c62c        0xc /tmp/ccfdZ3Du.ltrans9.ltrans.o
                0x000000000005c62c                DevPathFromTextAcpiPath
 .text.DevPathFromTextHardwarePath
                0x000000000005c638        0xc /tmp/ccfdZ3Du.ltrans9.ltrans.o
                0x000000000005c638                DevPathFromTextHardwarePath
 .text.DevPathFromTextPath
                0x000000000005c644       0x2c /tmp/ccfdZ3Du.ltrans9.ltrans.o
                0x000000000005c644                DevPathFromTextPath
 .text.WriteUnaligned32
                0x000000000005c670       0x64 /tmp/ccfdZ3Du.ltrans9.ltrans.o
                0x000000000005c670                WriteUnaligned32
 .text.WriteUnaligned64
                0x000000000005c6d4       0x70 /tmp/ccfdZ3Du.ltrans9.ltrans.o
                0x000000000005c6d4                WriteUnaligned64
 .text.DevPathFromTextPersistentVirtualCd
                0x000000000005c744       0xb0 /tmp/ccfdZ3Du.ltrans9.ltrans.o
                0x000000000005c744                DevPathFromTextPersistentVirtualCd
 .text.DevPathFromTextPersistentVirtualDisk
                0x000000000005c7f4       0xb0 /tmp/ccfdZ3Du.ltrans9.ltrans.o
                0x000000000005c7f4                DevPathFromTextPersistentVirtualDisk
 .text.DevPathFromTextVirtualCd
                0x000000000005c8a4       0xb0 /tmp/ccfdZ3Du.ltrans9.ltrans.o
                0x000000000005c8a4                DevPathFromTextVirtualCd
 .text.DevPathFromTextVirtualDisk
                0x000000000005c954       0xb0 /tmp/ccfdZ3Du.ltrans9.ltrans.o
                0x000000000005c954                DevPathFromTextVirtualDisk
 .text.DevPathFromTextRamDisk
                0x000000000005ca04       0xc0 /tmp/ccfdZ3Du.ltrans9.ltrans.o
                0x000000000005ca04                DevPathFromTextRamDisk
 .text.DevPathFromTextiSCSI
                0x000000000005cac4      0x180 /tmp/ccfdZ3Du.ltrans9.ltrans.o
                0x000000000005cac4                DevPathFromTextiSCSI
 .text.DevPathFromTextSasEx
                0x000000000005cc44      0x210 /tmp/ccfdZ3Du.ltrans9.ltrans.o
                0x000000000005cc44                DevPathFromTextSasEx
 .text.DevPathFromTextBmc
                0x000000000005ce54       0x78 /tmp/ccfdZ3Du.ltrans9.ltrans.o
                0x000000000005ce54                DevPathFromTextBmc
 .text.ReadUnaligned16
                0x000000000005cecc       0x68 /tmp/ccfdZ3Du.ltrans9.ltrans.o
                0x000000000005cecc                ReadUnaligned16
 .text.DevicePathNodeLength
                0x000000000005cf34       0x50 /tmp/ccfdZ3Du.ltrans9.ltrans.o
                0x000000000005cf34                DevicePathNodeLength
 .text.DevPathFromTextAcpiAdr
                0x000000000005cf84       0xf8 /tmp/ccfdZ3Du.ltrans9.ltrans.o
                0x000000000005cf84                DevPathFromTextAcpiAdr
 .text.DevPathToTextNodeGeneric
                0x000000000005d07c      0x104 /tmp/ccfdZ3Du.ltrans9.ltrans.o
 .text.DevPathToTextUri
                0x000000000005d180       0x94 /tmp/ccfdZ3Du.ltrans9.ltrans.o
 .text.DevPathToTextDns
                0x000000000005d214       0xc0 /tmp/ccfdZ3Du.ltrans9.ltrans.o
 .text.DevPathToTextIPv6
                0x000000000005d2d4       0xe8 /tmp/ccfdZ3Du.ltrans9.ltrans.o
 .text.DevPathToTextIPv4
                0x000000000005d3bc       0xf0 /tmp/ccfdZ3Du.ltrans9.ltrans.o
 .text.DevPathToTextUsbWWID
                0x000000000005d4ac       0xa4 /tmp/ccfdZ3Du.ltrans9.ltrans.o
 .text.DevPathToTextAcpiAdr
                0x000000000005d550       0x90 /tmp/ccfdZ3Du.ltrans9.ltrans.o
 .text.DevPathToTextVendor
                0x000000000005d5e0      0x350 /tmp/ccfdZ3Du.ltrans9.ltrans.o
 .text.NextDevicePathNode
                0x000000000005d930       0x50 /tmp/ccfdZ3Du.ltrans9.ltrans.o
                0x000000000005d930                NextDevicePathNode
 .text.UefiDevicePathLibConvertDevicePathToText
                0x000000000005d980      0x13c /tmp/ccfdZ3Du.ltrans9.ltrans.o
                0x000000000005d980                UefiDevicePathLibConvertDevicePathToText
 .text.DevicePathCompare
                0x000000000005dabc      0x138 /tmp/ccfdZ3Du.ltrans9.ltrans.o
                0x000000000005dabc                DevicePathCompare
 .text.UefiDevicePathLibGetDevicePathSize
                0x000000000005dbf4       0x6c /tmp/ccfdZ3Du.ltrans9.ltrans.o
                0x000000000005dbf4                UefiDevicePathLibGetDevicePathSize
 .text.UefiDevicePathLibDuplicateDevicePath
                0x000000000005dc60       0x34 /tmp/ccfdZ3Du.ltrans9.ltrans.o
                0x000000000005dc60                UefiDevicePathLibDuplicateDevicePath
 .text.UefiDevicePathLibAppendDevicePath
                0x000000000005dc94       0xc4 /tmp/ccfdZ3Du.ltrans9.ltrans.o
                0x000000000005dc94                UefiDevicePathLibAppendDevicePath
 .text.FileDevicePath
                0x000000000005dd58       0xa0 /tmp/ccfdZ3Du.ltrans9.ltrans.o
                0x000000000005dd58                FileDevicePath
 .text.UefiDevicePathLibAppendDevicePathNode
                0x000000000005ddf8       0x9c /tmp/ccfdZ3Du.ltrans9.ltrans.o
                0x000000000005ddf8                UefiDevicePathLibAppendDevicePathNode
 .text.ReadUnaligned32
                0x000000000005de94       0x5c /tmp/ccfdZ3Du.ltrans9.ltrans.o
                0x000000000005de94                ReadUnaligned32
 .text.HiiAddPackages
                0x000000000005def0      0x194 /tmp/ccfdZ3Du.ltrans9.ltrans.o
                0x000000000005def0                HiiAddPackages
 .text.ReadUnaligned64
                0x000000000005e084       0x68 /tmp/ccfdZ3Du.ltrans9.ltrans.o
                0x000000000005e084                ReadUnaligned64
 .text.DevPathToTextBmc
                0x000000000005e0ec       0x3c /tmp/ccfdZ3Du.ltrans9.ltrans.o
 .text.PathCleanUpDirectories
                0x000000000005e128      0x168 /tmp/ccfdZ3Du.ltrans9.ltrans.o
                0x000000000005e128                PathCleanUpDirectories
 .text.ShellOpenFileByName
                0x000000000005e290      0x3d8 /tmp/ccfdZ3Du.ltrans9.ltrans.o
                0x000000000005e290                ShellOpenFileByName
 .text.ShellCreateDirectory
                0x000000000005e668       0x28 /tmp/ccfdZ3Du.ltrans9.ltrans.o
                0x000000000005e668                ShellCreateDirectory
 .text.IfConfigManualAddressNotify
                0x000000000005e690        0xc /tmp/ccfdZ3Du.ltrans10.ltrans.o
 .text.RttTimerTickRoutine
                0x000000000005e69c       0x10 /tmp/ccfdZ3Du.ltrans10.ltrans.o
 .text.Ping6OnEchoRequestSent
                0x000000000005e6ac        0x4 /tmp/ccfdZ3Du.ltrans10.ltrans.o
 .text.NetChecksum
                0x000000000005e6b0       0x44 /tmp/ccfdZ3Du.ltrans10.ltrans.o
 .text.ShellCommandGetManFileNameNetwork1
                0x000000000005e6f4        0xc /tmp/ccfdZ3Du.ltrans10.ltrans.o
                0x000000000005e6f4                ShellCommandGetManFileNameNetwork1
 .text.PingDestroyTxInfo
                0x000000000005e700       0xe4 /tmp/ccfdZ3Du.ltrans10.ltrans.o
 .text.PingSendEchoRequest
                0x000000000005e7e4      0x28c /tmp/ccfdZ3Du.ltrans10.ltrans.o
 .text.Ping6OnTimerRoutine
                0x000000000005ea70      0x174 /tmp/ccfdZ3Du.ltrans10.ltrans.o
 .text.FbConFlush
                0x000000000005ebe4       0x54 /tmp/ccfdZ3Du.ltrans10.ltrans.o
                0x000000000005ebe4                FbConFlush
 .text.MmioWrite64
                0x000000000005ec38       0x54 /tmp/ccfdZ3Du.ltrans10.ltrans.o
                0x000000000005ec38                MmioWrite64
 .text.MmioRead64
                0x000000000005ec8c       0x4c /tmp/ccfdZ3Du.ltrans10.ltrans.o
                0x000000000005ec8c                MmioRead64
 .text.MmioWrite32
                0x000000000005ecd8       0x54 /tmp/ccfdZ3Du.ltrans10.ltrans.o
                0x000000000005ecd8                MmioWrite32
 .text.MmioRead32
                0x000000000005ed2c       0x4c /tmp/ccfdZ3Du.ltrans10.ltrans.o
                0x000000000005ed2c                MmioRead32
 .text.MmioWrite16
                0x000000000005ed78       0x50 /tmp/ccfdZ3Du.ltrans10.ltrans.o
                0x000000000005ed78                MmioWrite16
 .text.MmioRead16
                0x000000000005edc8       0x48 /tmp/ccfdZ3Du.ltrans10.ltrans.o
                0x000000000005edc8                MmioRead16
 .text.MmioWrite8
                0x000000000005ee10       0x10 /tmp/ccfdZ3Du.ltrans10.ltrans.o
                0x000000000005ee10                MmioWrite8
 .text.MmioRead8
                0x000000000005ee20        0x8 /tmp/ccfdZ3Du.ltrans10.ltrans.o
                0x000000000005ee20                MmioRead8
 .text.DivU64x32Remainder
                0x000000000005ee28       0x60 /tmp/ccfdZ3Du.ltrans10.ltrans.o
                0x000000000005ee28                DivU64x32Remainder
 .text.SwapBytes64
                0x000000000005ee88       0x30 /tmp/ccfdZ3Du.ltrans10.ltrans.o
                0x000000000005ee88                SwapBytes64
 .text.CompareMem
                0x000000000005eeb8       0xfc /tmp/ccfdZ3Du.ltrans10.ltrans.o
                0x000000000005eeb8                CompareMem
 .text.ShellCommandRunIfconfig
                0x000000000005efb4     0x11a0 /tmp/ccfdZ3Du.ltrans10.ltrans.o
                0x000000000005efb4                ShellCommandRunIfconfig
 .text.ShellCommandRunPing
                0x0000000000060154      0xd70 /tmp/ccfdZ3Du.ltrans10.ltrans.o
                0x0000000000060154                ShellCommandRunPing
 .text.Ping6OnEchoReplyReceived
                0x0000000000060ec4      0x284 /tmp/ccfdZ3Du.ltrans10.ltrans.o
 .text.Ping6OnEchoReplyReceived.stub
                0x0000000000061148        0xc linker stubs
 .text.DisplayMemoryErrorOperation
                0x0000000000062148       0x88 /tmp/ccfdZ3Du.ltrans10.ltrans.o
                0x0000000000062148                DisplayMemoryErrorOperation
 .text.DisplayMemoryErrorGranularity
                0x00000000000621d0       0x88 /tmp/ccfdZ3Du.ltrans10.ltrans.o
                0x00000000000621d0                DisplayMemoryErrorGranularity
 .text.DisplayMemoryErrorType
                0x0000000000062258       0x88 /tmp/ccfdZ3Du.ltrans10.ltrans.o
                0x0000000000062258                DisplayMemoryErrorType
 .text.DisplaySELVarDataFormatType
                0x00000000000622e0       0x88 /tmp/ccfdZ3Du.ltrans10.ltrans.o
                0x00000000000622e0                DisplaySELVarDataFormatType
 .text.DisplayOnboardDeviceTypes
                0x0000000000062368       0x88 /tmp/ccfdZ3Du.ltrans10.ltrans.o
                0x0000000000062368                DisplayOnboardDeviceTypes
 .text.DisplaySystemSlotType
                0x00000000000623f0       0x88 /tmp/ccfdZ3Du.ltrans10.ltrans.o
                0x00000000000623f0                DisplaySystemSlotType
 .text.DisplayPortConnectorType
                0x0000000000062478       0x88 /tmp/ccfdZ3Du.ltrans10.ltrans.o
                0x0000000000062478                DisplayPortConnectorType
 .text.DisplayMcInterleaveSupport
                0x0000000000062500       0x88 /tmp/ccfdZ3Du.ltrans10.ltrans.o
                0x0000000000062500                DisplayMcInterleaveSupport
 .text.DisplaySystemEnclosureStatus
                0x0000000000062588       0x88 /tmp/ccfdZ3Du.ltrans10.ltrans.o
                0x0000000000062588                DisplaySystemEnclosureStatus
 .text.DisplaySystemEnclosureType
                0x0000000000062610       0xac /tmp/ccfdZ3Du.ltrans10.ltrans.o
                0x0000000000062610                DisplaySystemEnclosureType
 .text.PrintBitsInfo
                0x00000000000626bc       0xd0 /tmp/ccfdZ3Du.ltrans10.ltrans.o
                0x00000000000626bc                PrintBitsInfo
 .text.DisplayMmMemoryType
                0x000000000006278c       0x7c /tmp/ccfdZ3Du.ltrans10.ltrans.o
                0x000000000006278c                DisplayMmMemoryType
 .text.DisplayMcErrorCorrectCapability
                0x0000000000062808       0x7c /tmp/ccfdZ3Du.ltrans10.ltrans.o
                0x0000000000062808                DisplayMcErrorCorrectCapability
 .text          0x0000000000062884        0x8 /home/vsts/work/1/edk2/Build/Lumia950XL-AARCH64/DEBUG_GCC5/AARCH64/MdePkg/Library/BaseLib/BaseLib/OUTPUT/BaseLib.lib(CpuBreakpoint.obj)
                0x0000000000062884                CpuBreakpoint
 .text.ArmCacheInfo
                0x000000000006288c        0x8 /home/vsts/work/1/edk2/Build/Lumia950XL-AARCH64/DEBUG_GCC5/AARCH64/ArmPkg/Library/ArmLib/ArmBaseLib/OUTPUT/ArmBaseLib.lib(ArmLibSupport.obj)
                0x000000000006288c                ArmCacheInfo
 .text.ArmGetInterruptState
                0x0000000000062894       0x10 /home/vsts/work/1/edk2/Build/Lumia950XL-AARCH64/DEBUG_GCC5/AARCH64/ArmPkg/Library/ArmLib/ArmBaseLib/OUTPUT/ArmBaseLib.lib(ArmLibSupport.obj)
                0x0000000000062894                ArmGetInterruptState
 .text.ArmEnableInterrupts
                0x00000000000628a4        0xc /home/vsts/work/1/edk2/Build/Lumia950XL-AARCH64/DEBUG_GCC5/AARCH64/ArmPkg/Library/ArmLib/ArmBaseLib/OUTPUT/ArmBaseLib.lib(ArmLibSupportV8.obj)
                0x00000000000628a4                ArmEnableInterrupts
 .text.ArmDisableInterrupts
                0x00000000000628b0        0xc /home/vsts/work/1/edk2/Build/Lumia950XL-AARCH64/DEBUG_GCC5/AARCH64/ArmPkg/Library/ArmLib/ArmBaseLib/OUTPUT/ArmBaseLib.lib(ArmLibSupportV8.obj)
                0x00000000000628b0                ArmDisableInterrupts
 .text.ArmCleanInvalidateDataCacheEntryByMVA
                0x00000000000628bc        0x8 /home/vsts/work/1/edk2/Build/Lumia950XL-AARCH64/DEBUG_GCC5/AARCH64/ArmPkg/Library/ArmLib/ArmBaseLib/OUTPUT/ArmBaseLib.lib(AArch64Support.obj)
                0x00000000000628bc                ArmCleanInvalidateDataCacheEntryByMVA
 .text.ArmDataSynchronizationBarrier
                0x00000000000628c4        0x8 /home/vsts/work/1/edk2/Build/Lumia950XL-AARCH64/DEBUG_GCC5/AARCH64/ArmPkg/Library/ArmLib/ArmBaseLib/OUTPUT/ArmBaseLib.lib(AArch64Support.obj)
                0x00000000000628c4                ArmDataSynchronizationBarrier
 *(.rodata .rodata.* .gnu.linkonce.r.*)
 .rodata.ShellCommandRunPci
                0x00000000000628cc       0x32 /tmp/ccfdZ3Du.ltrans0.ltrans.o
 *fill*         0x00000000000628fe        0x2 
 .rodata.ShellMmAccess
                0x0000000000062900       0x10 /tmp/ccfdZ3Du.ltrans0.ltrans.o
 .rodata.HBufferImageHandleInput
                0x0000000000062910       0x16 /tmp/ccfdZ3Du.ltrans0.ltrans.o
 *fill*         0x0000000000062926        0x2 
 .rodata.MainTitleBarRefresh
                0x0000000000062928        0x4 /tmp/ccfdZ3Du.ltrans0.ltrans.o
 *fill*         0x000000000006292c        0x4 
 .rodata.ASPMCtrlStrTable
                0x0000000000062930       0x20 /tmp/ccfdZ3Du.ltrans0.ltrans.o
 .rodata.CSWTCH.173
                0x0000000000062950       0x28 /tmp/ccfdZ3Du.ltrans0.ltrans.o
 .rodata.CSWTCH.455
                0x0000000000062978       0x18 /tmp/ccfdZ3Du.ltrans0.ltrans.o
 .rodata.CSWTCH.456
                0x0000000000062990       0x20 /tmp/ccfdZ3Du.ltrans0.ltrans.o
 .rodata.CSWTCH.68
                0x00000000000629b0        0x6 /tmp/ccfdZ3Du.ltrans0.ltrans.o
 *fill*         0x00000000000629b6        0x2 
 .rodata.CSWTCH.69
                0x00000000000629b8       0x20 /tmp/ccfdZ3Du.ltrans0.ltrans.o
 .rodata.CascadeProcessVariables.str2.2
                0x00000000000629d8        0x0 /tmp/ccfdZ3Du.ltrans0.ltrans.o
                                          0xa (size before relaxing)
 .rodata.DevicePortTypeTable
                0x00000000000629d8       0x58 /tmp/ccfdZ3Du.ltrans0.ltrans.o
 .rodata.DisplaySettings.str2.2
                0x0000000000062a30       0x10 /tmp/ccfdZ3Du.ltrans0.ltrans.o
 .rodata.ExplainPcieCapReg.str2.2
                0x0000000000062a40      0x192 /tmp/ccfdZ3Du.ltrans0.ltrans.o
 .rodata.ExplainPcieDeviceCap.str2.2
                0x0000000000062bd2      0x43c /tmp/ccfdZ3Du.ltrans0.ltrans.o
 .rodata.ExplainPcieDeviceControl.str2.2
                0x000000000006300e      0x50e /tmp/ccfdZ3Du.ltrans0.ltrans.o
 .rodata.ExplainPcieDeviceStatus.str2.2
                0x000000000006351c      0x27c /tmp/ccfdZ3Du.ltrans0.ltrans.o
 .rodata.ExplainPcieLinkCap.str2.2
                0x0000000000063798      0x50a /tmp/ccfdZ3Du.ltrans0.ltrans.o
                                        0x51a (size before relaxing)
 .rodata.ExplainPcieLinkControl.str2.2
                0x0000000000063ca2      0x478 /tmp/ccfdZ3Du.ltrans0.ltrans.o
 .rodata.ExplainPcieLinkStatus.str2.2
                0x000000000006411a      0x374 /tmp/ccfdZ3Du.ltrans0.ltrans.o
                                        0x386 (size before relaxing)
 .rodata.ExplainPcieRootCap.str2.2
                0x000000000006448e       0x72 /tmp/ccfdZ3Du.ltrans0.ltrans.o
 .rodata.ExplainPcieRootControl.str2.2
                0x0000000000064500      0x23a /tmp/ccfdZ3Du.ltrans0.ltrans.o
 .rodata.ExplainPcieRootStatus.str2.2
                0x000000000006473a      0x15e /tmp/ccfdZ3Du.ltrans0.ltrans.o
 .rodata.ExplainPcieSlotCap.str2.2
                0x0000000000064898      0x5f0 /tmp/ccfdZ3Du.ltrans0.ltrans.o
 .rodata.ExplainPcieSlotControl.str2.2
                0x0000000000064e88      0x588 /tmp/ccfdZ3Du.ltrans0.ltrans.o
 .rodata.ExplainPcieSlotStatus.str2.2
                0x0000000000065410      0x45a /tmp/ccfdZ3Du.ltrans0.ltrans.o
 .rodata.GetAttrType.str2.2
                0x000000000006586a       0x3e /tmp/ccfdZ3Du.ltrans0.ltrans.o
                                         0x46 (size before relaxing)
 .rodata.HBufferImageCreateLine.str1.1
                0x00000000000658a8       0x6e /tmp/ccfdZ3Du.ltrans0.ltrans.o
 .rodata.HBufferImageFreeLines.str1.1
                0x0000000000065916       0x52 /tmp/ccfdZ3Du.ltrans0.ltrans.o
 .rodata.HBufferImageHandleInput.str2.2
                0x0000000000065968       0x20 /tmp/ccfdZ3Du.ltrans0.ltrans.o
 .rodata.HBufferImagePrintLine.str2.2
                0x0000000000065988       0x1c /tmp/ccfdZ3Du.ltrans0.ltrans.o
                                         0x42 (size before relaxing)
 .rodata.HBufferImageRestoreMousePosition.str2.2
                0x00000000000659a4       0x1c /tmp/ccfdZ3Du.ltrans0.ltrans.o
                                          0x6 (size before relaxing)
 .rodata.HDiskImageRead.str1.1
                0x00000000000659a4       0x57 /tmp/ccfdZ3Du.ltrans0.ltrans.o
 *fill*         0x00000000000659fb        0x1 
 .rodata.HDiskImageRead.str2.2
                0x00000000000659fc       0x74 /tmp/ccfdZ3Du.ltrans0.ltrans.o
 .rodata.HFileImageRead.str1.1
                0x0000000000065a70       0x57 /tmp/ccfdZ3Du.ltrans0.ltrans.o
 *fill*         0x0000000000065ac7        0x1 
 .rodata.HFileImageRead.str2.2
                0x0000000000065ac8       0x5c /tmp/ccfdZ3Du.ltrans0.ltrans.o
 .rodata.HMemImageRead.str1.1
                0x0000000000065b24       0x56 /tmp/ccfdZ3Du.ltrans0.ltrans.o
 .rodata.HMemImageRead.str2.2
                0x0000000000065b7a       0x82 /tmp/ccfdZ3Du.ltrans0.ltrans.o
 *fill*         0x0000000000065bfc        0x4 
 .rodata.IndicatorTable
                0x0000000000065c00       0x20 /tmp/ccfdZ3Du.ltrans0.ltrans.o
 .rodata.InputBarPrintInput.str2.2
                0x0000000000065c20       0x82 /tmp/ccfdZ3Du.ltrans0.ltrans.o
                                          0x6 (size before relaxing)
 .rodata.InputBarRefresh.str2.2
                0x0000000000065c20        0xe /tmp/ccfdZ3Du.ltrans0.ltrans.o
 .rodata.InputBarSetPrompt.str2.2
                0x0000000000065c2e        0x8 /tmp/ccfdZ3Du.ltrans0.ltrans.o
 *fill*         0x0000000000065c36        0x2 
 .rodata.L0sLatencyStrTable
                0x0000000000065c38       0x40 /tmp/ccfdZ3Du.ltrans0.ltrans.o
 .rodata.L1LatencyStrTable
                0x0000000000065c78       0x40 /tmp/ccfdZ3Du.ltrans0.ltrans.o
 .rodata.MainTitleBarRefresh.str2.2
                0x0000000000065cb8       0x9a /tmp/ccfdZ3Du.ltrans0.ltrans.o
                                         0xc4 (size before relaxing)
 *fill*         0x0000000000065d52        0x6 
 .rodata.ParamList.lto_priv.164
                0x0000000000065d58       0x80 /tmp/ccfdZ3Du.ltrans0.ltrans.o
 .rodata.ParamList.lto_priv.165
                0x0000000000065dd8       0x50 /tmp/ccfdZ3Du.ltrans0.ltrans.o
 .rodata.ParamList.lto_priv.166
                0x0000000000065e28       0x40 /tmp/ccfdZ3Du.ltrans0.ltrans.o
 .rodata.ParamList.lto_priv.167
                0x0000000000065e68       0x70 /tmp/ccfdZ3Du.ltrans0.ltrans.o
 .rodata.ParamList.lto_priv.168
                0x0000000000065ed8       0x50 /tmp/ccfdZ3Du.ltrans0.ltrans.o
 .rodata.ParseParameterData.str1.1
                0x0000000000065f28       0xa4 /tmp/ccfdZ3Du.ltrans0.ltrans.o
 .rodata.ParseParameterData.str2.2
                0x0000000000065fcc       0x14 /tmp/ccfdZ3Du.ltrans0.ltrans.o
 .rodata.PciGetClassStrings.str2.2
                0x0000000000065fe0       0x14 /tmp/ccfdZ3Du.ltrans0.ltrans.o
 *fill*         0x0000000000065ff4        0x4 
 .rodata.PcieExplainList
                0x0000000000065ff8      0x280 /tmp/ccfdZ3Du.ltrans0.ltrans.o
 .rodata.ShellCommandRunDblk.str1.1
                0x0000000000066278       0x91 /tmp/ccfdZ3Du.ltrans0.ltrans.o
 *fill*         0x0000000000066309        0x1 
 .rodata.ShellCommandRunDblk.str2.2
                0x000000000006630a       0x6e /tmp/ccfdZ3Du.ltrans0.ltrans.o
 .rodata.ShellCommandRunDmpStore.str1.1
                0x0000000000066378       0x4e /tmp/ccfdZ3Du.ltrans0.ltrans.o
 .rodata.ShellCommandRunDmpStore.str2.2
                0x00000000000663c6       0x50 /tmp/ccfdZ3Du.ltrans0.ltrans.o
                                         0x56 (size before relaxing)
 .rodata.ShellCommandRunMm.str2.2
                0x0000000000066416       0x4e /tmp/ccfdZ3Du.ltrans0.ltrans.o
 .rodata.ShellCommandRunPci.str1.1
                0x0000000000066464       0x49 /tmp/ccfdZ3Du.ltrans0.ltrans.o
 *fill*         0x00000000000664ad        0x1 
 .rodata.ShellCommandRunPci.str2.2
                0x00000000000664ae      0x1b4 /tmp/ccfdZ3Du.ltrans0.ltrans.o
                                        0x1d2 (size before relaxing)
 .rodata.ShellCommandRunSerMode.str1.1
                0x0000000000066662       0x4d /tmp/ccfdZ3Du.ltrans0.ltrans.o
 .rodata.ShellCommandRunSetVar.str1.1
                0x00000000000666af       0xe3 /tmp/ccfdZ3Du.ltrans0.ltrans.o
 .rodata.ShellCommandRunSetVar.str2.2
                0x0000000000066792       0x24 /tmp/ccfdZ3Du.ltrans0.ltrans.o
 .rodata.ShellCommandRunSmbiosView.str1.1
                0x00000000000667b6       0x66 /tmp/ccfdZ3Du.ltrans0.ltrans.o
 .rodata.ShellCommandRunSmbiosView.str2.2
                0x000000000006681c      0x142 /tmp/ccfdZ3Du.ltrans0.ltrans.o
                                        0x238 (size before relaxing)
 .rodata.ShellMmAccess.str1.1
                0x000000000006695e       0x68 /tmp/ccfdZ3Du.ltrans0.ltrans.o
 *fill*         0x00000000000669c6        0x2 
 .rodata.SlotPwrLmtScaleTable
                0x00000000000669c8       0x20 /tmp/ccfdZ3Du.ltrans0.ltrans.o
 .rodata.mShellMmAccessTypeStr
                0x00000000000669e8        0xa /tmp/ccfdZ3Du.ltrans0.ltrans.o
 *fill*         0x00000000000669f2        0x6 
 .rodata.mShellMmMaxNumber
                0x00000000000669f8       0x48 /tmp/ccfdZ3Du.ltrans0.ltrans.o
 .rodata.mShellMmRootBridgeIoWidth
                0x0000000000066a40       0x24 /tmp/ccfdZ3Du.ltrans0.ltrans.o
 *fill*         0x0000000000066a64        0x4 
 .rodata.mUefiDevicePathLibDevPathFromTextTable
                0x0000000000066a68      0x570 /tmp/ccfdZ3Du.ltrans0.ltrans.o
 .rodata.str2.2
                0x0000000000066fd8     0x2b16 /tmp/ccfdZ3Du.ltrans0.ltrans.o
                                       0x2e86 (size before relaxing)
 *fill*         0x0000000000069aee        0x2 
 .rodata.DevPathSerialUsb
                0x0000000000069af0        0x5 /tmp/ccfdZ3Du.ltrans1.ltrans.o
 *fill*         0x0000000000069af5        0x3 
 .rodata.GraphicsOutputProtocolDumpInformation
                0x0000000000069af8        0x5 /tmp/ccfdZ3Du.ltrans1.ltrans.o
 *fill*         0x0000000000069afd        0x3 
 .rodata.ConvertMemoryType
                0x0000000000069b00       0x10 /tmp/ccfdZ3Du.ltrans1.ltrans.o
 .rodata.ShellPromptForResponse
                0x0000000000069b10        0xa /tmp/ccfdZ3Du.ltrans1.ltrans.o
 *fill*         0x0000000000069b1a        0x2 
 .rodata.ShellCommandRunTime
                0x0000000000069b1c        0x4 /tmp/ccfdZ3Du.ltrans1.ltrans.o
 .rodata.AdapterInformationDumpInformation.str2.2
                0x0000000000069b20      0x13a /tmp/ccfdZ3Du.ltrans1.ltrans.o
 .rodata.AppendCSDNum.str2.2
                0x0000000000069c5a        0x8 /tmp/ccfdZ3Du.ltrans1.ltrans.o
 .rodata.AppendCSDStr.str1.1
                0x0000000000069c62       0x33 /tmp/ccfdZ3Du.ltrans1.ltrans.o
 *fill*         0x0000000000069c95        0x1 
 .rodata.AppendCSDStr.str2.2
                0x0000000000069c96        0x8 /tmp/ccfdZ3Du.ltrans1.ltrans.o
                                         0x14 (size before relaxing)
 .rodata.BlockIoProtocolDumpInformation.str2.2
                0x0000000000069c9e       0x76 /tmp/ccfdZ3Du.ltrans1.ltrans.o
                                         0x84 (size before relaxing)
 .rodata.CommandInit.str2.2
                0x0000000000069d14       0x1a /tmp/ccfdZ3Du.ltrans1.ltrans.o
 .rodata.ConvertMemoryType.str2.2
                0x0000000000069d2e      0x23e /tmp/ccfdZ3Du.ltrans1.ltrans.o
 .rodata.DebugSupportProtocolDumpInformation.str2.2
                0x0000000000069f6c       0x1c /tmp/ccfdZ3Du.ltrans1.ltrans.o
 .rodata.DevPathComparePci.str1.1
                0x0000000000069f88       0x85 /tmp/ccfdZ3Du.ltrans1.ltrans.o
 *fill*         0x000000000006a00d        0x3 
 .rodata.DevPathConsistMappingTable
                0x000000000006a010      0x1f8 /tmp/ccfdZ3Du.ltrans1.ltrans.o
 .rodata.DevPathSerial1394.str1.1
                0x000000000006a208       0x85 /tmp/ccfdZ3Du.ltrans1.ltrans.o
                                         0x1c (size before relaxing)
 .rodata.DevPathSerial1394.str2.2
                0x000000000006a208        0x8 /tmp/ccfdZ3Du.ltrans1.ltrans.o
 .rodata.DevPathSerialIPv4.str2.2
                0x000000000006a210       0x22 /tmp/ccfdZ3Du.ltrans1.ltrans.o
 .rodata.DevPathSerialMacAddr.str2.2
                0x000000000006a232        0xa /tmp/ccfdZ3Du.ltrans1.ltrans.o
 .rodata.DevPathSerialUsb.str1.1
                0x000000000006a232       0x16 /tmp/ccfdZ3Du.ltrans1.ltrans.o
 .rodata.DevPathSerialVendor.str1.1
                0x000000000006a248       0x34 /tmp/ccfdZ3Du.ltrans1.ltrans.o
 .rodata.DevPathSerialVendor.str2.2
                0x000000000006a27c       0x22 /tmp/ccfdZ3Du.ltrans1.ltrans.o
                                          0x6 (size before relaxing)
 .rodata.DevicePathProtocolDumpInformationEx.str2.2
                0x000000000006a27c       0x22 /tmp/ccfdZ3Du.ltrans1.ltrans.o
                                          0xc (size before relaxing)
 .rodata.DriverEfiVersionProtocolDumpInformation.str1.1
                0x000000000006a27c       0x54 /tmp/ccfdZ3Du.ltrans1.ltrans.o
                                         0x89 (size before relaxing)
 .rodata.DriverEfiVersionProtocolDumpInformation.str2.2
                0x000000000006a2d0        0xe /tmp/ccfdZ3Du.ltrans1.ltrans.o
 .rodata.DumpHex.str1.1
                0x000000000006a2de       0x54 /tmp/ccfdZ3Du.ltrans1.ltrans.o
                                          0x1 (size before relaxing)
 .rodata.DumpHex.str2.2
                0x000000000006a2de       0x2c /tmp/ccfdZ3Du.ltrans1.ltrans.o
 .rodata.EdidActiveProtocolDumpInformation.str2.2
                0x000000000006a30a       0x16 /tmp/ccfdZ3Du.ltrans1.ltrans.o
 .rodata.EdidDiscoveredProtocolDumpInformation.str2.2
                0x000000000006a320       0x1e /tmp/ccfdZ3Du.ltrans1.ltrans.o
 *fill*         0x000000000006a33e        0x2 
 .rodata.EfiIsaAcpiProtocolGuid
                0x000000000006a340       0x10 /tmp/ccfdZ3Du.ltrans1.ltrans.o
 .rodata.EfiIsaIoProtocolGuid
                0x000000000006a350       0x10 /tmp/ccfdZ3Du.ltrans1.ltrans.o
 .rodata.FileTimeToLocalTime.str1.1
                0x000000000006a360       0xda /tmp/ccfdZ3Du.ltrans1.ltrans.o
 .rodata.FirmwareManagementDumpInformation.str2.2
                0x000000000006a43a      0x168 /tmp/ccfdZ3Du.ltrans1.ltrans.o
                                        0x176 (size before relaxing)
 .rodata.GetFullyQualifiedPath.str2.2
                0x000000000006a5a2      0x168 /tmp/ccfdZ3Du.ltrans1.ltrans.o
                                          0x4 (size before relaxing)
 .rodata.GetHIDevicePath.str1.1
                0x000000000006a5a2       0xda /tmp/ccfdZ3Du.ltrans1.ltrans.o
                                         0x3a (size before relaxing)
 .rodata.GetHandleListByProtocolList.str1.1
                0x000000000006a5a2       0x3d /tmp/ccfdZ3Du.ltrans1.ltrans.o
 .rodata.GetProtocolInformationDump.str1.1
                0x000000000006a5df       0x1a /tmp/ccfdZ3Du.ltrans1.ltrans.o
 *fill*         0x000000000006a5f9        0x1 
 .rodata.GraphicsOutputProtocolDumpInformation.str2.2
                0x000000000006a5fa      0x108 /tmp/ccfdZ3Du.ltrans1.ltrans.o
 .rodata.HandleParsingHiiInit.str1.1
                0x000000000006a702       0x28 /tmp/ccfdZ3Du.ltrans1.ltrans.o
 .rodata.InternalPrintTo.str1.1
                0x000000000006a72a       0x56 /tmp/ccfdZ3Du.ltrans1.ltrans.o
 .rodata.InternalShellGetNodeFromGuid.str1.1
                0x000000000006a72a       0x15 /tmp/ccfdZ3Du.ltrans1.ltrans.o
 *fill*         0x000000000006a73f        0x1 
 .rodata.InternalShellPrintWorker.str2.2
                0x000000000006a740       0x20 /tmp/ccfdZ3Du.ltrans1.ltrans.o
                                         0x4a (size before relaxing)
 .rodata.LoadDriver.str1.1
                0x000000000006a760       0x6c /tmp/ccfdZ3Du.ltrans1.ltrans.o
                                         0x85 (size before relaxing)
 *fill*         0x000000000006a7cc        0x4 
 .rodata.LoadParamList
                0x000000000006a7d0       0x20 /tmp/ccfdZ3Du.ltrans1.ltrans.o
 .rodata.ParseHandleDatabaseByRelationship.str1.1
                0x000000000006a7f0       0xb7 /tmp/ccfdZ3Du.ltrans1.ltrans.o
 .rodata.ParseHandleDatabaseByRelationshipWithType.str1.1
                0x000000000006a8a7       0x48 /tmp/ccfdZ3Du.ltrans1.ltrans.o
 *fill*         0x000000000006a8ef        0x1 
 .rodata.PartitionInfoProtocolDumpInformation.str2.2
                0x000000000006a8f0        0xe /tmp/ccfdZ3Du.ltrans1.ltrans.o
 .rodata.PciIoProtocolDumpInformation.str2.2
                0x000000000006a8fe       0x1c /tmp/ccfdZ3Du.ltrans1.ltrans.o
 .rodata.PciRootBridgeIoDumpInformation.str2.2
                0x000000000006a91a       0x66 /tmp/ccfdZ3Du.ltrans1.ltrans.o
                                         0x70 (size before relaxing)
 .rodata.PrintLsOutput.str1.1
                0x000000000006a980       0x7c /tmp/ccfdZ3Du.ltrans1.ltrans.o
                                         0x91 (size before relaxing)
 .rodata.PrintLsOutput.str2.2
                0x000000000006a9fc       0x36 /tmp/ccfdZ3Du.ltrans1.ltrans.o
                                         0x58 (size before relaxing)
 .rodata.ShellCommandConsistMappingGenMappingName.str1.1
                0x000000000006aa32       0x16 /tmp/ccfdZ3Du.ltrans1.ltrans.o
 .rodata.ShellCommandConsistMappingGenMappingName.str2.2
                0x000000000006aa48       0x36 /tmp/ccfdZ3Du.ltrans1.ltrans.o
                                         0x10 (size before relaxing)
 .rodata.ShellCommandCreateInitialMappingsAndPaths.str1.1
                0x000000000006aa48       0x1f /tmp/ccfdZ3Du.ltrans1.ltrans.o
 *fill*         0x000000000006aa67        0x1 
 .rodata.ShellCommandCreateInitialMappingsAndPaths.str2.2
                0x000000000006aa68       0x12 /tmp/ccfdZ3Du.ltrans1.ltrans.o
                                         0x14 (size before relaxing)
 .rodata.ShellCommandCreateNewMappingName.str2.2
                0x000000000006aa7a       0x1a /tmp/ccfdZ3Du.ltrans1.ltrans.o
 .rodata.ShellCommandIsCommandOnList.str1.1
                0x000000000006aa94       0x1f /tmp/ccfdZ3Du.ltrans1.ltrans.o
                                         0x1e (size before relaxing)
 .rodata.ShellCommandIsOnAliasList.str1.1
                0x000000000006aa94       0x40 /tmp/ccfdZ3Du.ltrans1.ltrans.o
                                         0x56 (size before relaxing)
 .rodata.ShellCommandRegisterCommandName.str1.1
                0x000000000006aad4       0x5a /tmp/ccfdZ3Du.ltrans1.ltrans.o
 .rodata.ShellCommandRegisterCommandName.str2.2
                0x000000000006ab2e       0x1a /tmp/ccfdZ3Du.ltrans1.ltrans.o
                                          0x4 (size before relaxing)
 .rodata.ShellCommandRunDate.str2.2
                0x000000000006ab2e        0x4 /tmp/ccfdZ3Du.ltrans1.ltrans.o
                                         0x18 (size before relaxing)
 .rodata.ShellCommandRunLoad.str2.2
                0x000000000006ab32        0x8 /tmp/ccfdZ3Du.ltrans1.ltrans.o
                                         0x12 (size before relaxing)
 .rodata.ShellCommandRunTime.str2.2
                0x000000000006ab3a       0x34 /tmp/ccfdZ3Du.ltrans1.ltrans.o
                                         0x3a (size before relaxing)
 .rodata.ShellCommandRunTimeZone.str1.1
                0x000000000006ab6e       0x4e /tmp/ccfdZ3Du.ltrans1.ltrans.o
 .rodata.ShellCommandRunTimeZone.str2.2
                0x000000000006abbc       0x56 /tmp/ccfdZ3Du.ltrans1.ltrans.o
                                         0x6c (size before relaxing)
 .rodata.ShellConvertStringToUint64.str2.2
                0x000000000006ac12        0x6 /tmp/ccfdZ3Du.ltrans1.ltrans.o
                                          0xc (size before relaxing)
 .rodata.ShellFileHandleEof.str1.1
                0x000000000006ac18       0x52 /tmp/ccfdZ3Du.ltrans1.ltrans.o
                                         0x69 (size before relaxing)
 .rodata.ShellFileHandleReadLine.str1.1
                0x000000000006ac6a       0x3d /tmp/ccfdZ3Du.ltrans1.ltrans.o
                                         0x54 (size before relaxing)
 .rodata.ShellFindFilePath.str1.1
                0x000000000006aca7       0x17 /tmp/ccfdZ3Du.ltrans1.ltrans.o
 .rodata.ShellIsDirectory.str1.1
                0x000000000006acbe       0x18 /tmp/ccfdZ3Du.ltrans1.ltrans.o
 .rodata.ShellIsFile.str1.1
                0x000000000006acd6       0x18 /tmp/ccfdZ3Du.ltrans1.ltrans.o
                                         0x15 (size before relaxing)
 .rodata.ShellPrintHelp.str2.2
                0x000000000006acd6       0x2e /tmp/ccfdZ3Du.ltrans1.ltrans.o
 .rodata.ShellPromptForResponse.str1.1
                0x000000000006ad04       0x42 /tmp/ccfdZ3Du.ltrans1.ltrans.o
 .rodata.ShellPromptForResponse.str2.2
                0x000000000006ad46        0x6 /tmp/ccfdZ3Du.ltrans1.ltrans.o
 .rodata.StrnCatGrow.str1.1
                0x000000000006ad46       0x52 /tmp/ccfdZ3Du.ltrans1.ltrans.o
 .rodata.TimeParamList3
                0x000000000006ad98       0x30 /tmp/ccfdZ3Du.ltrans1.ltrans.o
 .rodata.TimeZoneList
                0x000000000006adc8       0x90 /tmp/ccfdZ3Du.ltrans1.ltrans.o
 .rodata.TimeZoneParamList3
                0x000000000006ae58       0x40 /tmp/ccfdZ3Du.ltrans1.ltrans.o
 .rodata.TxtOutProtocolDumpInformation.str1.1
                0x000000000006ae98       0x31 /tmp/ccfdZ3Du.ltrans1.ltrans.o
 .rodata.VerifyIntermediateDirectories.str1.1
                0x000000000006aec9       0x60 /tmp/ccfdZ3Du.ltrans1.ltrans.o
                                         0x75 (size before relaxing)
 *fill*         0x000000000006af29        0x3 
 .rodata.WinNtIoProtocolGuid
                0x000000000006af2c       0x10 /tmp/ccfdZ3Du.ltrans1.ltrans.o
 .rodata.WinNtSerialPortGuid
                0x000000000006af3c       0x10 /tmp/ccfdZ3Du.ltrans1.ltrans.o
 .rodata.WinNtThunkProtocolGuid
                0x000000000006af4c       0x10 /tmp/ccfdZ3Du.ltrans1.ltrans.o
 .rodata.mFileName
                0x000000000006af5c       0x1c /tmp/ccfdZ3Du.ltrans1.ltrans.o
 .rodata.mGuidStringList
                0x000000000006af78     0x1bc0 /tmp/ccfdZ3Du.ltrans1.ltrans.o
 .rodata.mGuidStringListNT
                0x000000000006cb38       0x60 /tmp/ccfdZ3Du.ltrans1.ltrans.o
 .rodata.mMTDName
                0x000000000006cb98       0x50 /tmp/ccfdZ3Du.ltrans1.ltrans.o
 .rodata.str2.2
                0x000000000006cbe8        0x6 /tmp/ccfdZ3Du.ltrans1.ltrans.o
                                         0x16 (size before relaxing)
 *fill*         0x000000000006cbee        0x2 
 .rodata.ShellCmdDriverConfigurationProcessActionRequired
                0x000000000006cbf0        0x4 /tmp/ccfdZ3Du.ltrans2.ltrans.o
 .rodata.ShellCommandRunCls
                0x000000000006cbf4        0xf /tmp/ccfdZ3Du.ltrans2.ltrans.o
 .rodata.CSWTCH.32
                0x000000000006cc03        0x7 /tmp/ccfdZ3Du.ltrans2.ltrans.o
 *fill*         0x000000000006cc0a        0x6 
 .rodata.CSWTCH.41
                0x000000000006cc10      0x180 /tmp/ccfdZ3Du.ltrans2.ltrans.o
 .rodata.DoDevTreeForHandle.str1.1
                0x000000000006cd90       0x68 /tmp/ccfdZ3Du.ltrans2.ltrans.o
                                         0x82 (size before relaxing)
 .rodata.DoDevTreeForHandle.str2.2
                0x000000000006cdf8       0x12 /tmp/ccfdZ3Du.ltrans2.ltrans.o
                                         0x24 (size before relaxing)
 .rodata.DoDhByHandle.str2.2
                0x000000000006ce0a       0xc2 /tmp/ccfdZ3Du.ltrans2.ltrans.o
                                         0xec (size before relaxing)
 .rodata.DoTouchByHandle.str2.2
                0x000000000006cecc        0xc /tmp/ccfdZ3Du.ltrans2.ltrans.o
                                         0x34 (size before relaxing)
 .rodata.FindHiiHandleViaDevPath.str1.1
                0x000000000006ced8       0x4a /tmp/ccfdZ3Du.ltrans2.ltrans.o
 .rodata.GetProtocolInfoString.str1.1
                0x000000000006cf22       0x8b /tmp/ccfdZ3Du.ltrans2.ltrans.o
 *fill*         0x000000000006cfad        0x1 
 .rodata.GetProtocolInfoString.str2.2
                0x000000000006cfae       0x10 /tmp/ccfdZ3Du.ltrans2.ltrans.o
                                         0x30 (size before relaxing)
 .rodata.InternalIsAliasOnList.str1.1
                0x000000000006cfbe       0x49 /tmp/ccfdZ3Du.ltrans2.ltrans.o
                                         0x9f (size before relaxing)
 *fill*         0x000000000006d007        0x1 
 .rodata.ParamList.lto_priv.173
                0x000000000006d008       0x20 /tmp/ccfdZ3Du.ltrans2.ltrans.o
 .rodata.ParamList.lto_priv.174
                0x000000000006d028       0x30 /tmp/ccfdZ3Du.ltrans2.ltrans.o
 .rodata.ParamList.lto_priv.175
                0x000000000006d058       0x30 /tmp/ccfdZ3Du.ltrans2.ltrans.o
 .rodata.ParamList.lto_priv.176
                0x000000000006d088       0x20 /tmp/ccfdZ3Du.ltrans2.ltrans.o
 .rodata.ParamList.lto_priv.177
                0x000000000006d0a8       0x50 /tmp/ccfdZ3Du.ltrans2.ltrans.o
 .rodata.ParamList.lto_priv.178
                0x000000000006d0f8       0x30 /tmp/ccfdZ3Du.ltrans2.ltrans.o
 .rodata.ParamList.lto_priv.179
                0x000000000006d128       0x20 /tmp/ccfdZ3Du.ltrans2.ltrans.o
 .rodata.ParamList.lto_priv.180
                0x000000000006d148       0x50 /tmp/ccfdZ3Du.ltrans2.ltrans.o
 .rodata.ParamList.lto_priv.181
                0x000000000006d198       0x30 /tmp/ccfdZ3Du.ltrans2.ltrans.o
 .rodata.ParamList.lto_priv.182
                0x000000000006d1c8       0x30 /tmp/ccfdZ3Du.ltrans2.ltrans.o
 .rodata.ParamList.lto_priv.183
                0x000000000006d1f8       0x30 /tmp/ccfdZ3Du.ltrans2.ltrans.o
 .rodata.ParamList.lto_priv.184
                0x000000000006d228       0x20 /tmp/ccfdZ3Du.ltrans2.ltrans.o
 .rodata.ParamList.lto_priv.185
                0x000000000006d248       0x40 /tmp/ccfdZ3Du.ltrans2.ltrans.o
 .rodata.ParamList.lto_priv.186
                0x000000000006d288       0x60 /tmp/ccfdZ3Du.ltrans2.ltrans.o
 .rodata.ParamList.lto_priv.187
                0x000000000006d2e8       0x70 /tmp/ccfdZ3Du.ltrans2.ltrans.o
 .rodata.ParamList.lto_priv.188
                0x000000000006d358       0x30 /tmp/ccfdZ3Du.ltrans2.ltrans.o
 .rodata.ParamList.lto_priv.189
                0x000000000006d388       0x30 /tmp/ccfdZ3Du.ltrans2.ltrans.o
 .rodata.ParamListHii
                0x000000000006d3b8       0x60 /tmp/ccfdZ3Du.ltrans2.ltrans.o
 .rodata.ParamListPreHii
                0x000000000006d418       0x60 /tmp/ccfdZ3Du.ltrans2.ltrans.o
 .rodata.PreHiiDrvCfg.str1.1
                0x000000000006d478       0x65 /tmp/ccfdZ3Du.ltrans2.ltrans.o
                                         0x66 (size before relaxing)
 *fill*         0x000000000006d4dd        0x1 
 .rodata.PreHiiDrvCfg.str2.2
                0x000000000006d4de        0xe /tmp/ccfdZ3Du.ltrans2.ltrans.o
                                         0x18 (size before relaxing)
 .rodata.ShellCmdDriverConfigurationProcessActionRequired.str2.2
                0x000000000006d4ec       0x8c /tmp/ccfdZ3Du.ltrans2.ltrans.o
                                         0xb4 (size before relaxing)
 .rodata.ShellCommandRunAlias.str1.1
                0x000000000006d578       0x58 /tmp/ccfdZ3Du.ltrans2.ltrans.o
 .rodata.ShellCommandRunCls.str1.1
                0x000000000006d5d0       0x49 /tmp/ccfdZ3Du.ltrans2.ltrans.o
 *fill*         0x000000000006d619        0x1 
 .rodata.ShellCommandRunCls.str2.2
                0x000000000006d61a        0x8 /tmp/ccfdZ3Du.ltrans2.ltrans.o
 .rodata.ShellCommandRunConnect.str1.1
                0x000000000006d622       0x4e /tmp/ccfdZ3Du.ltrans2.ltrans.o
 .rodata.ShellCommandRunConnect.str2.2
                0x000000000006d670       0x10 /tmp/ccfdZ3Du.ltrans2.ltrans.o
                                         0x20 (size before relaxing)
 .rodata.ShellCommandRunDevTree.str1.1
                0x000000000006d680        0x3 /tmp/ccfdZ3Du.ltrans2.ltrans.o
 *fill*         0x000000000006d683        0x1 
 .rodata.ShellCommandRunDevTree.str2.2
                0x000000000006d684       0x10 /tmp/ccfdZ3Du.ltrans2.ltrans.o
                                         0x16 (size before relaxing)
 .rodata.ShellCommandRunDevices.str1.1
                0x000000000006d694       0x69 /tmp/ccfdZ3Du.ltrans2.ltrans.o
 *fill*         0x000000000006d6fd        0x1 
 .rodata.ShellCommandRunDevices.str2.2
                0x000000000006d6fe       0x14 /tmp/ccfdZ3Du.ltrans2.ltrans.o
                                         0x2e (size before relaxing)
 .rodata.ShellCommandRunDh.str1.1
                0x000000000006d712        0x6 /tmp/ccfdZ3Du.ltrans2.ltrans.o
 .rodata.ShellCommandRunDh.str2.2
                0x000000000006d718        0x6 /tmp/ccfdZ3Du.ltrans2.ltrans.o
                                         0x1a (size before relaxing)
 .rodata.ShellCommandRunDisconnect.str1.1
                0x000000000006d71e       0x7f /tmp/ccfdZ3Du.ltrans2.ltrans.o
 *fill*         0x000000000006d79d        0x1 
 .rodata.ShellCommandRunDisconnect.str2.2
                0x000000000006d79e       0xaa /tmp/ccfdZ3Du.ltrans2.ltrans.o
                                         0xb8 (size before relaxing)
 .rodata.ShellCommandRunDrivers.str1.1
                0x000000000006d848       0x4e /tmp/ccfdZ3Du.ltrans2.ltrans.o
 .rodata.ShellCommandRunDrivers.str2.2
                0x000000000006d896       0x10 /tmp/ccfdZ3Du.ltrans2.ltrans.o
                                         0x14 (size before relaxing)
 .rodata.ShellCommandRunDrvCfg.str2.2
                0x000000000006d8a6       0x72 /tmp/ccfdZ3Du.ltrans2.ltrans.o
                                         0x7e (size before relaxing)
 .rodata.ShellCommandRunDrvDiag.str1.1
                0x000000000006d918       0x6e /tmp/ccfdZ3Du.ltrans2.ltrans.o
 .rodata.ShellCommandRunDrvDiag.str2.2
                0x000000000006d986       0xbc /tmp/ccfdZ3Du.ltrans2.ltrans.o
 .rodata.ShellCommandRunEcho.str1.1
                0x000000000006da42       0x4a /tmp/ccfdZ3Du.ltrans2.ltrans.o
 .rodata.ShellCommandRunEcho.str2.2
                0x000000000006da8c        0xa /tmp/ccfdZ3Du.ltrans2.ltrans.o
                                         0x2a (size before relaxing)
 .rodata.ShellCommandRunFor.str1.1
                0x000000000006da96       0x9b /tmp/ccfdZ3Du.ltrans2.ltrans.o
                                         0xb0 (size before relaxing)
 *fill*         0x000000000006db31        0x1 
 .rodata.ShellCommandRunFor.str2.2
                0x000000000006db32       0x30 /tmp/ccfdZ3Du.ltrans2.ltrans.o
                                         0x5e (size before relaxing)
 .rodata.ShellCommandRunGetMtc.str1.1
                0x000000000006db62       0x4c /tmp/ccfdZ3Du.ltrans2.ltrans.o
                                         0x93 (size before relaxing)
 .rodata.ShellCommandRunGetMtc.str2.2
                0x000000000006dbae        0xe /tmp/ccfdZ3Du.ltrans2.ltrans.o
                                         0x14 (size before relaxing)
 .rodata.ShellCommandRunHelp.str1.1
                0x000000000006dbbc       0x90 /tmp/ccfdZ3Du.ltrans2.ltrans.o
 .rodata.ShellCommandRunHelp.str2.2
                0x000000000006dc4c       0xb6 /tmp/ccfdZ3Du.ltrans2.ltrans.o
                                         0xba (size before relaxing)
 .rodata.ShellCommandRunOpenInfo.str1.1
                0x000000000006dd02       0x4f /tmp/ccfdZ3Du.ltrans2.ltrans.o
 *fill*         0x000000000006dd51        0x1 
 .rodata.ShellCommandRunOpenInfo.str2.2
                0x000000000006dd52       0x24 /tmp/ccfdZ3Du.ltrans2.ltrans.o
 .rodata.ShellCommandRunPause.str1.1
                0x000000000006dd76       0x4b /tmp/ccfdZ3Du.ltrans2.ltrans.o
 *fill*         0x000000000006ddc1        0x1 
 .rodata.ShellCommandRunPause.str2.2
                0x000000000006ddc2       0x12 /tmp/ccfdZ3Du.ltrans2.ltrans.o
 .rodata.ShellCommandRunReconnect.str1.1
                0x000000000006ddd4       0x50 /tmp/ccfdZ3Du.ltrans2.ltrans.o
 .rodata.ShellCommandRunReconnect.str2.2
                0x000000000006de24       0x14 /tmp/ccfdZ3Du.ltrans2.ltrans.o
 .rodata.ShellCommandRunShift.str1.1
                0x000000000006de38       0x6d /tmp/ccfdZ3Du.ltrans2.ltrans.o
 *fill*         0x000000000006dea5        0x1 
 .rodata.ShellCommandRunShift.str2.2
                0x000000000006dea6        0xc /tmp/ccfdZ3Du.ltrans2.ltrans.o
 .rodata.ShellCommandRunStall.str1.1
                0x000000000006deb2       0x4b /tmp/ccfdZ3Du.ltrans2.ltrans.o
 *fill*         0x000000000006defd        0x1 
 .rodata.ShellCommandRunStall.str2.2
                0x000000000006defe        0xc /tmp/ccfdZ3Du.ltrans2.ltrans.o
 .rodata.ShellCommandRunTouch.str1.1
                0x000000000006df0a       0x4b /tmp/ccfdZ3Du.ltrans2.ltrans.o
 .rodata.ShellCommandRunType.str1.1
                0x000000000006df55       0x4a /tmp/ccfdZ3Du.ltrans2.ltrans.o
                                         0x67 (size before relaxing)
 *fill*         0x000000000006df9f        0x1 
 .rodata.ShellCommandRunType.str2.2
                0x000000000006dfa0       0x10 /tmp/ccfdZ3Du.ltrans2.ltrans.o
                                         0x2c (size before relaxing)
 .rodata.ShellCommandRunUnload.str1.1
                0x000000000006dfb0       0x4d /tmp/ccfdZ3Du.ltrans2.ltrans.o
 *fill*         0x000000000006dffd        0x1 
 .rodata.ShellCommandRunUnload.str2.2
                0x000000000006dffe       0x34 /tmp/ccfdZ3Du.ltrans2.ltrans.o
                                         0x40 (size before relaxing)
 .rodata.ShellCommandRunVer.str1.1
                0x000000000006e032       0x49 /tmp/ccfdZ3Du.ltrans2.ltrans.o
 *fill*         0x000000000006e07b        0x1 
 .rodata.ShellCommandRunVer.str2.2
                0x000000000006e07c       0x46 /tmp/ccfdZ3Du.ltrans2.ltrans.o
                                         0x68 (size before relaxing)
 .rodata.ShellLevel3CommandsLibSetAlias.str2.2
                0x000000000006e0c2        0xc /tmp/ccfdZ3Du.ltrans2.ltrans.o
 .rodata.StringChild
                0x000000000006e0ce       0x14 /tmp/ccfdZ3Du.ltrans2.ltrans.o
 .rodata.StringDriver
                0x000000000006e0e2       0x14 /tmp/ccfdZ3Du.ltrans2.ltrans.o
 .rodata.StringDriverEx
                0x000000000006e0f6       0x14 /tmp/ccfdZ3Du.ltrans2.ltrans.o
 .rodata.StringExclusive
                0x000000000006e10a       0x14 /tmp/ccfdZ3Du.ltrans2.ltrans.o
 .rodata.StringGetProt
                0x000000000006e11e       0x14 /tmp/ccfdZ3Du.ltrans2.ltrans.o
 .rodata.StringHandProt
                0x000000000006e132       0x14 /tmp/ccfdZ3Du.ltrans2.ltrans.o
 .rodata.StringTestProt
                0x000000000006e146       0x14 /tmp/ccfdZ3Du.ltrans2.ltrans.o
 .rodata.StringUnknown
                0x000000000006e15a       0x14 /tmp/ccfdZ3Du.ltrans2.ltrans.o
 .rodata._gPcd_FixedAtBuild_PcdShellSupplier
                0x000000000006e16e        0xe /tmp/ccfdZ3Du.ltrans2.ltrans.o
                0x000000000006e16e                _gPcd_FixedAtBuild_PcdShellSupplier
 .rodata.gShellLevel3FileName
                0x000000000006e17c       0x1c /tmp/ccfdZ3Du.ltrans2.ltrans.o
 .rodata.mFileName
                0x000000000006e198       0x20 /tmp/ccfdZ3Du.ltrans2.ltrans.o
 .rodata.mGuidDataLen
                0x000000000006e1b8       0x28 /tmp/ccfdZ3Du.ltrans2.ltrans.o
 .rodata.ContainsSplit.str2.2
                0x000000000006e1e0        0x4 /tmp/ccfdZ3Du.ltrans3.ltrans.o
 .rodata.EfiShellExecute.str2.2
                0x000000000006e1e4       0x22 /tmp/ccfdZ3Du.ltrans3.ltrans.o
 .rodata.EfiShellFindFiles.str1.1
                0x000000000006e206       0x36 /tmp/ccfdZ3Du.ltrans3.ltrans.o
 .rodata.EfiShellFindFilesInDir.str1.1
                0x000000000006e23c       0x9c /tmp/ccfdZ3Du.ltrans3.ltrans.o
 .rodata.EfiShellFindFilesInDir.str2.2
                0x000000000006e2d8        0xe /tmp/ccfdZ3Du.ltrans3.ltrans.o
 .rodata.EfiShellGetDevicePathFromMap.str2.2
                0x000000000006e2d8        0x4 /tmp/ccfdZ3Du.ltrans3.ltrans.o
 .rodata.EfiShellGetEnvEx.str1.1
                0x000000000006e2d8       0x26 /tmp/ccfdZ3Du.ltrans3.ltrans.o
 .rodata.EfiShellGetFilePathFromDevicePath.str1.1
                0x000000000006e2fe       0xd1 /tmp/ccfdZ3Du.ltrans3.ltrans.o
 .rodata.EfiShellGetFilePathFromDevicePath.str2.2
                0x000000000006e3cf        0x4 /tmp/ccfdZ3Du.ltrans3.ltrans.o
 .rodata.EfiShellOpenFileByName.str1.1
                0x000000000006e3cf       0x1c /tmp/ccfdZ3Du.ltrans3.ltrans.o
 *fill*         0x000000000006e3eb        0x1 
 .rodata.EfiShellOpenFileByName.str2.2
                0x000000000006e3ec       0x22 /tmp/ccfdZ3Du.ltrans3.ltrans.o
 .rodata.EfiShellOpenFileList.str1.1
                0x000000000006e40e       0x5b /tmp/ccfdZ3Du.ltrans3.ltrans.o
 .rodata.EfiShellRegisterGuidName.str1.1
                0x000000000006e469       0x4a /tmp/ccfdZ3Du.ltrans3.ltrans.o
                                         0x64 (size before relaxing)
 .rodata.FixFileName.str2.2
                0x000000000006e4b3        0x8 /tmp/ccfdZ3Du.ltrans3.ltrans.o
 .rodata.FixVarName.str2.2
                0x000000000006e4b3        0x4 /tmp/ccfdZ3Du.ltrans3.ltrans.o
 *fill*         0x000000000006e4b3        0x1 
 .rodata.GetNextParameter.str2.2
                0x000000000006e4b4        0x6 /tmp/ccfdZ3Du.ltrans3.ltrans.o
                                          0xc (size before relaxing)
 .rodata.InternalShellExecuteDevicePath.str1.1
                0x000000000006e4ba       0x3d /tmp/ccfdZ3Du.ltrans3.ltrans.o
 *fill*         0x000000000006e4f7        0x1 
 .rodata.IsScriptOnlyCommand.str2.2
                0x000000000006e4f8       0x20 /tmp/ccfdZ3Du.ltrans3.ltrans.o
                                         0x3c (size before relaxing)
 .rodata.ParseCommandLineToArgs.str1.1
                0x000000000006e518       0x3b /tmp/ccfdZ3Du.ltrans3.ltrans.o
 .rodata.ProcessCommandLineToFinal.str1.1
                0x000000000006e553       0x6f /tmp/ccfdZ3Du.ltrans3.ltrans.o
 .rodata.ProcessCommandLineToFinal.str2.2
                0x000000000006e5c2       0x12 /tmp/ccfdZ3Du.ltrans3.ltrans.o
                                         0x1c (size before relaxing)
 .rodata.ProcessLibraryConstructorList.str1.1
                0x000000000006e5d4      0x21d /tmp/ccfdZ3Du.ltrans3.ltrans.o
 *fill*         0x000000000006e7f1        0x1 
 .rodata.ProcessLibraryConstructorList.str2.2
                0x000000000006e7f2      0x180 /tmp/ccfdZ3Du.ltrans3.ltrans.o
                                        0x39c (size before relaxing)
 .rodata.ProcessLibraryDestructorList.str1.1
                0x000000000006e972       0xb4 /tmp/ccfdZ3Du.ltrans3.ltrans.o
                                        0x13b (size before relaxing)
 .rodata.RestoreArgcArgv.str1.1
                0x000000000006ea26       0x20 /tmp/ccfdZ3Du.ltrans3.ltrans.o
 .rodata.RunShellCommand.str1.1
                0x000000000006ea46       0xa9 /tmp/ccfdZ3Du.ltrans3.ltrans.o
                                        0x103 (size before relaxing)
 *fill*         0x000000000006eaef        0x1 
 .rodata.RunShellCommand.str2.2
                0x000000000006eaf0       0xf6 /tmp/ccfdZ3Du.ltrans3.ltrans.o
                                        0x106 (size before relaxing)
 .rodata.RunSplitCommand.str1.1
                0x000000000006ebe6       0xa4 /tmp/ccfdZ3Du.ltrans3.ltrans.o
 .rodata.SetLastError.str2.2
                0x000000000006ec8a       0x2a /tmp/ccfdZ3Du.ltrans3.ltrans.o
                                         0x3e (size before relaxing)
 .rodata.TrimSpaces.str1.1
                0x000000000006ecb4       0x51 /tmp/ccfdZ3Du.ltrans3.ltrans.o
 .rodata.WriteFileTag.str1.1
                0x000000000006ed05       0x8c /tmp/ccfdZ3Du.ltrans3.ltrans.o
 .rodata._ModuleEntryPoint.str1.1
                0x000000000006ed91      0x1e4 /tmp/ccfdZ3Du.ltrans3.ltrans.o
                                        0x1f6 (size before relaxing)
 *fill*         0x000000000006ef75        0x1 
 .rodata._ModuleEntryPoint.str2.2
                0x000000000006ef76      0x152 /tmp/ccfdZ3Du.ltrans3.ltrans.o
                                        0x180 (size before relaxing)
 .rodata.mNoNestingTrue
                0x000000000006f0c8        0xa /tmp/ccfdZ3Du.ltrans3.ltrans.o
 .rodata.mScriptExtension
                0x000000000006f0d2        0xa /tmp/ccfdZ3Du.ltrans3.ltrans.o
 .rodata.mStartupScript
                0x000000000006f0dc       0x18 /tmp/ccfdZ3Du.ltrans3.ltrans.o
 .rodata.CopySingleFile
                0x000000000006f0f4        0xc /tmp/ccfdZ3Du.ltrans4.ltrans.o
 .rodata.ValidateAndMoveFiles
                0x000000000006f100        0x6 /tmp/ccfdZ3Du.ltrans4.ltrans.o
 *fill*         0x000000000006f106        0x2 
 .rodata.ShellCommandRunIf
                0x000000000006f108       0x12 /tmp/ccfdZ3Du.ltrans4.ltrans.o
 .rodata.AllFiles
                0x000000000006f11a        0x4 /tmp/ccfdZ3Du.ltrans4.ltrans.o
 *fill*         0x000000000006f11e        0x2 
 .rodata.AttribParamList
                0x000000000006f120       0x90 /tmp/ccfdZ3Du.ltrans4.ltrans.o
 .rodata.CascadeDelete.str1.1
                0x000000000006f1b0       0x5d /tmp/ccfdZ3Du.ltrans4.ltrans.o
 .rodata.CascadeDelete.str2.2
                0x000000000006f20d        0x6 /tmp/ccfdZ3Du.ltrans4.ltrans.o
 *fill*         0x000000000006f20d        0x1 
 .rodata.Cd     0x000000000006f20e        0x8 /tmp/ccfdZ3Du.ltrans4.ltrans.o
 .rodata.CopySingleFile.str2.2
                0x000000000006f216        0x6 /tmp/ccfdZ3Du.ltrans4.ltrans.o
 .rodata.Fp     0x000000000006f21c        0x8 /tmp/ccfdZ3Du.ltrans4.ltrans.o
 .rodata.Hd     0x000000000006f224        0x8 /tmp/ccfdZ3Du.ltrans4.ltrans.o
 .rodata.InternalUpdateAliasOnList.str1.1
                0x000000000006f22c       0x40 /tmp/ccfdZ3Du.ltrans4.ltrans.o
                                         0xdf (size before relaxing)
 *fill*         0x000000000006f26c        0x4 
 .rodata.LsParamList
                0x000000000006f270       0x40 /tmp/ccfdZ3Du.ltrans4.ltrans.o
 .rodata.MapParamList
                0x000000000006f2b0       0x90 /tmp/ccfdZ3Du.ltrans4.ltrans.o
 .rodata.ParamList.lto_priv.192
                0x000000000006f340       0x30 /tmp/ccfdZ3Du.ltrans4.ltrans.o
 .rodata.ParamList.lto_priv.193
                0x000000000006f370       0x30 /tmp/ccfdZ3Du.ltrans4.ltrans.o
 .rodata.ParamList.lto_priv.194
                0x000000000006f3a0       0x20 /tmp/ccfdZ3Du.ltrans4.ltrans.o
 .rodata.ParamList.lto_priv.195
                0x000000000006f3c0       0x30 /tmp/ccfdZ3Du.ltrans4.ltrans.o
 .rodata.ParamList.lto_priv.196
                0x000000000006f3f0       0x20 /tmp/ccfdZ3Du.ltrans4.ltrans.o
 .rodata.PerformMappingDisplay.str2.2
                0x000000000006f410        0x8 /tmp/ccfdZ3Du.ltrans4.ltrans.o
 .rodata.PerformResultOperation.str2.2
                0x000000000006f410        0x6 /tmp/ccfdZ3Du.ltrans4.ltrans.o
                                         0x20 (size before relaxing)
 .rodata.PerformSingleMappingDisplay.str2.2
                0x000000000006f410       0x2e /tmp/ccfdZ3Du.ltrans4.ltrans.o
                                         0x3a (size before relaxing)
 .rodata.ProcessValidateAndCopyFiles.str1.1
                0x000000000006f43e       0xa3 /tmp/ccfdZ3Du.ltrans4.ltrans.o
 *fill*         0x000000000006f4e1        0x7 
 .rodata.ResetParamList
                0x000000000006f4e8       0x50 /tmp/ccfdZ3Du.ltrans4.ltrans.o
 .rodata.SetParamList
                0x000000000006f538       0x30 /tmp/ccfdZ3Du.ltrans4.ltrans.o
 .rodata.ShellCommandRunAttrib.str1.1
                0x000000000006f568       0x68 /tmp/ccfdZ3Du.ltrans4.ltrans.o
 .rodata.ShellCommandRunAttrib.str2.2
                0x000000000006f5d0       0x18 /tmp/ccfdZ3Du.ltrans4.ltrans.o
                                         0x48 (size before relaxing)
 .rodata.ShellCommandRunCd.str1.1
                0x000000000006f5e8       0x77 /tmp/ccfdZ3Du.ltrans4.ltrans.o
 .rodata.ShellCommandRunCd.str2.2
                0x000000000006f65f        0x6 /tmp/ccfdZ3Du.ltrans4.ltrans.o
 .rodata.ShellCommandRunElse.str1.1
                0x000000000006f65f        0x5 /tmp/ccfdZ3Du.ltrans4.ltrans.o
 .rodata.ShellCommandRunElse.str2.2
                0x000000000006f664        0xa /tmp/ccfdZ3Du.ltrans4.ltrans.o
 .rodata.ShellCommandRunEndFor.str2.2
                0x000000000006f66e       0x2c /tmp/ccfdZ3Du.ltrans4.ltrans.o
 .rodata.ShellCommandRunEndIf.str1.1
                0x000000000006f66e       0x48 /tmp/ccfdZ3Du.ltrans4.ltrans.o
 .rodata.ShellCommandRunEndIf.str2.2
                0x000000000006f6b6       0x18 /tmp/ccfdZ3Du.ltrans4.ltrans.o
                                         0x1e (size before relaxing)
 .rodata.ShellCommandRunExit.str1.1
                0x000000000006f6ce       0x4a /tmp/ccfdZ3Du.ltrans4.ltrans.o
                                         0x91 (size before relaxing)
 .rodata.ShellCommandRunExit.str2.2
                0x000000000006f718        0x6 /tmp/ccfdZ3Du.ltrans4.ltrans.o
                                         0x10 (size before relaxing)
 .rodata.ShellCommandRunGoto.str1.1
                0x000000000006f71e       0x4a /tmp/ccfdZ3Du.ltrans4.ltrans.o
 .rodata.ShellCommandRunGoto.str2.2
                0x000000000006f768        0xa /tmp/ccfdZ3Du.ltrans4.ltrans.o
                                         0x14 (size before relaxing)
 .rodata.ShellCommandRunIf.str1.1
                0x000000000006f772       0xa6 /tmp/ccfdZ3Du.ltrans4.ltrans.o
 .rodata.ShellCommandRunIf.str2.2
                0x000000000006f818       0xce /tmp/ccfdZ3Du.ltrans4.ltrans.o
                                        0x134 (size before relaxing)
 .rodata.ShellCommandRunLs.str1.1
                0x000000000006f8e6       0x7c /tmp/ccfdZ3Du.ltrans4.ltrans.o
                                         0xc4 (size before relaxing)
 .rodata.ShellCommandRunLs.str2.2
                0x000000000006f962       0x20 /tmp/ccfdZ3Du.ltrans4.ltrans.o
 .rodata.ShellCommandRunMap.str1.1
                0x000000000006f962       0x49 /tmp/ccfdZ3Du.ltrans4.ltrans.o
 .rodata.ShellCommandRunMap.str2.2
                0x000000000006f9ab       0xce /tmp/ccfdZ3Du.ltrans4.ltrans.o
                                         0x20 (size before relaxing)
 .rodata.ShellCommandRunMkDir.str1.1
                0x000000000006f9ab       0x66 /tmp/ccfdZ3Du.ltrans4.ltrans.o
 .rodata.ShellCommandRunMkDir.str2.2
                0x000000000006fa11        0xc /tmp/ccfdZ3Du.ltrans4.ltrans.o
 .rodata.ShellCommandRunParse.str1.1
                0x000000000006fa11       0x65 /tmp/ccfdZ3Du.ltrans4.ltrans.o
                                         0x7e (size before relaxing)
 .rodata.ShellCommandRunParse.str2.2
                0x000000000006fa76       0x3c /tmp/ccfdZ3Du.ltrans4.ltrans.o
                                         0x5e (size before relaxing)
 .rodata.ShellCommandRunReset.str1.1
                0x000000000006fab2       0x4b /tmp/ccfdZ3Du.ltrans4.ltrans.o
 *fill*         0x000000000006fafd        0x1 
 .rodata.ShellCommandRunReset.str2.2
                0x000000000006fafe       0x88 /tmp/ccfdZ3Du.ltrans4.ltrans.o
                                         0xa0 (size before relaxing)
 .rodata.ShellCommandRunRm.str2.2
                0x000000000006fb86        0x6 /tmp/ccfdZ3Du.ltrans4.ltrans.o
 .rodata.ShellCommandRunSet.str1.1
                0x000000000006fb86       0x49 /tmp/ccfdZ3Du.ltrans4.ltrans.o
 .rodata.ShellCommandRunSet.str2.2
                0x000000000006fbcf       0x1c /tmp/ccfdZ3Du.ltrans4.ltrans.o
 .rodata.ShellCommandRunVol.str1.1
                0x000000000006fbcf       0x49 /tmp/ccfdZ3Du.ltrans4.ltrans.o
                                         0x61 (size before relaxing)
 .rodata.ShellCommandRunVol.str2.2
                0x000000000006fc18        0xa /tmp/ccfdZ3Du.ltrans4.ltrans.o
                                         0x5e (size before relaxing)
 .rodata.ValidateAndCopyFiles.str1.1
                0x000000000006fc22       0x60 /tmp/ccfdZ3Du.ltrans4.ltrans.o
 .rodata.ValidateAndCopyFiles.str2.2
                0x000000000006fc82        0x6 /tmp/ccfdZ3Du.ltrans4.ltrans.o
 .rodata.ValidateAndMoveFiles.str1.1
                0x000000000006fc82      0x131 /tmp/ccfdZ3Du.ltrans4.ltrans.o
                                        0x14c (size before relaxing)
 .rodata.ValidateAndMoveFiles.str2.2
                0x000000000006fdb3        0xc /tmp/ccfdZ3Du.ltrans4.ltrans.o
 *fill*         0x000000000006fdb3        0x1 
 .rodata.mFileName
                0x000000000006fdb4       0x1c /tmp/ccfdZ3Du.ltrans4.ltrans.o
 .rodata.ShellCommandRunMemMap
                0x000000000006fdd0       0x1e /tmp/ccfdZ3Du.ltrans5.ltrans.o
 *fill*         0x000000000006fdee        0x2 
 .rodata.ShellCommandRunEdit
                0x000000000006fdf0       0x30 /tmp/ccfdZ3Du.ltrans5.ltrans.o
 .rodata        0x000000000006fe20        0x4 /tmp/ccfdZ3Du.ltrans5.ltrans.o
 .rodata.EditGetDefaultFileName.str2.2
                0x000000000006fe24       0x1a /tmp/ccfdZ3Du.ltrans5.ltrans.o
 .rodata.FileBufferFreeLines.str1.1
                0x000000000006fe3e       0x55 /tmp/ccfdZ3Du.ltrans5.ltrans.o
                                         0x6a (size before relaxing)
 .rodata.FileBufferPrintLine.str2.2
                0x000000000006fe93        0xa /tmp/ccfdZ3Du.ltrans5.ltrans.o
 *fill*         0x000000000006fe93        0x1 
 .rodata.FileBufferRead.str2.2
                0x000000000006fe94       0xf2 /tmp/ccfdZ3Du.ltrans5.ltrans.o
                                        0x10e (size before relaxing)
 .rodata.FileBufferRestoreMousePosition.str2.2
                0x000000000006ff86        0x4 /tmp/ccfdZ3Du.ltrans5.ltrans.o
 .rodata.FileBufferSave.str2.2
                0x000000000006ff86       0xde /tmp/ccfdZ3Du.ltrans5.ltrans.o
 .rodata.HLineRetreat.str1.1
                0x0000000000070064       0x52 /tmp/ccfdZ3Du.ltrans5.ltrans.o
 .rodata.HMainCommandCut.str2.2
                0x0000000000070064       0x2a /tmp/ccfdZ3Du.ltrans5.ltrans.o
 .rodata.HMainCommandDisplayHelp.str2.2
                0x000000000007008e        0xe /tmp/ccfdZ3Du.ltrans5.ltrans.o
 .rodata.HMainCommandExit.str2.2
                0x000000000007009c       0x52 /tmp/ccfdZ3Du.ltrans5.ltrans.o
 .rodata.HMainCommandGoToOffset.str2.2
                0x00000000000700ee       0x3c /tmp/ccfdZ3Du.ltrans5.ltrans.o
 .rodata.HMainCommandOpenDisk.str2.2
                0x000000000007012a       0x78 /tmp/ccfdZ3Du.ltrans5.ltrans.o
 .rodata.HMainCommandOpenFile.str2.2
                0x00000000000701a2       0x4c /tmp/ccfdZ3Du.ltrans5.ltrans.o
 .rodata.HMainCommandOpenMemory.str2.2
                0x00000000000701ee       0x8a /tmp/ccfdZ3Du.ltrans5.ltrans.o
 .rodata.HMainCommandPaste.str1.1
                0x0000000000070278       0x59 /tmp/ccfdZ3Du.ltrans5.ltrans.o
 .rodata.HMainCommandPaste.str2.2
                0x0000000000070278       0x22 /tmp/ccfdZ3Du.ltrans5.ltrans.o
 .rodata.HMainCommandSaveBuffer.str2.2
                0x000000000007029a      0x146 /tmp/ccfdZ3Du.ltrans5.ltrans.o
 .rodata.HMainCommandSelectEnd.str2.2
                0x00000000000703e0       0x24 /tmp/ccfdZ3Du.ltrans5.ltrans.o
 .rodata.HMainCommandSelectStart.str2.2
                0x0000000000070404       0x28 /tmp/ccfdZ3Du.ltrans5.ltrans.o
 *fill*         0x000000000007042c        0x4 
 .rodata.HexEditorMenuItems
                0x0000000000070430       0xb0 /tmp/ccfdZ3Du.ltrans5.ltrans.o
 .rodata.HexMainMenuHelpInfo
                0x00000000000704e0       0x30 /tmp/ccfdZ3Du.ltrans5.ltrans.o
 .rodata.LineCat.str2.2
                0x0000000000070510        0xa /tmp/ccfdZ3Du.ltrans5.ltrans.o
 .rodata.LoadEfiDriversFromRomImage.str1.1
                0x000000000007051a       0x50 /tmp/ccfdZ3Du.ltrans5.ltrans.o
                                         0x85 (size before relaxing)
 .rodata.LoadEfiDriversFromRomImage.str2.2
                0x000000000007056a        0xe /tmp/ccfdZ3Du.ltrans5.ltrans.o
                                         0x24 (size before relaxing)
 .rodata.MainCommandCutLine.str2.2
                0x0000000000070578       0x1e /tmp/ccfdZ3Du.ltrans5.ltrans.o
 .rodata.MainCommandExit.str2.2
                0x0000000000070596       0x4e /tmp/ccfdZ3Du.ltrans5.ltrans.o
 .rodata.MainCommandGotoLine.str2.2
                0x00000000000705e4       0x34 /tmp/ccfdZ3Du.ltrans5.ltrans.o
 .rodata.MainCommandPasteLine.str2.2
                0x0000000000070618       0x22 /tmp/ccfdZ3Du.ltrans5.ltrans.o
                                         0x28 (size before relaxing)
 .rodata.MainCommandSaveFile.str2.2
                0x000000000007063a       0x4c /tmp/ccfdZ3Du.ltrans5.ltrans.o
 .rodata.MainCommandSearchReplace.str1.1
                0x0000000000070686       0x18 /tmp/ccfdZ3Du.ltrans5.ltrans.o
 .rodata.MainCommandSearchReplace.str2.2
                0x000000000007069e       0xe0 /tmp/ccfdZ3Du.ltrans5.ltrans.o
 .rodata.MainCommandSwitchFileType.str2.2
                0x000000000007077e       0x46 /tmp/ccfdZ3Du.ltrans5.ltrans.o
 .rodata.MainMenuHelpInfo
                0x00000000000707c4       0x30 /tmp/ccfdZ3Du.ltrans5.ltrans.o
 .rodata.NameEfiACPIMemoryNVS
                0x00000000000707f4       0x1c /tmp/ccfdZ3Du.ltrans5.ltrans.o
 .rodata.NameEfiACPIMemoryNVSShort
                0x0000000000070810       0x12 /tmp/ccfdZ3Du.ltrans5.ltrans.o
 .rodata.NameEfiACPIReclaimMemory
                0x0000000000070822       0x24 /tmp/ccfdZ3Du.ltrans5.ltrans.o
 .rodata.NameEfiACPIReclaimMemoryShort
                0x0000000000070846       0x14 /tmp/ccfdZ3Du.ltrans5.ltrans.o
 .rodata.NameEfiBootServicesCode
                0x000000000007085a       0x20 /tmp/ccfdZ3Du.ltrans5.ltrans.o
 .rodata.NameEfiBootServicesCodeShort
                0x000000000007087a       0x10 /tmp/ccfdZ3Du.ltrans5.ltrans.o
 .rodata.NameEfiBootServicesData
                0x000000000007088a       0x20 /tmp/ccfdZ3Du.ltrans5.ltrans.o
 .rodata.NameEfiBootServicesDataShort
                0x00000000000708aa       0x10 /tmp/ccfdZ3Du.ltrans5.ltrans.o
 .rodata.NameEfiConventionalMemory
                0x00000000000708ba       0x14 /tmp/ccfdZ3Du.ltrans5.ltrans.o
 .rodata.NameEfiLoaderCode
                0x00000000000708ce       0x16 /tmp/ccfdZ3Du.ltrans5.ltrans.o
 .rodata.NameEfiLoaderData
                0x00000000000708e4       0x16 /tmp/ccfdZ3Du.ltrans5.ltrans.o
 .rodata.NameEfiMemoryMappedIO
                0x00000000000708fa       0x1e /tmp/ccfdZ3Du.ltrans5.ltrans.o
 .rodata.NameEfiMemoryMappedIOPortSpace
                0x0000000000070918       0x30 /tmp/ccfdZ3Du.ltrans5.ltrans.o
 .rodata.NameEfiMemoryMappedIOPortSpaceShort
                0x0000000000070948       0x14 /tmp/ccfdZ3Du.ltrans5.ltrans.o
 .rodata.NameEfiMemoryMappedIOShort
                0x000000000007095c        0xa /tmp/ccfdZ3Du.ltrans5.ltrans.o
 .rodata.NameEfiPalCode
                0x0000000000070966       0x10 /tmp/ccfdZ3Du.ltrans5.ltrans.o
 .rodata.NameEfiPersistentMemory
                0x0000000000070976       0x16 /tmp/ccfdZ3Du.ltrans5.ltrans.o
 .rodata.NameEfiReservedMemoryType
                0x000000000007098c       0x12 /tmp/ccfdZ3Du.ltrans5.ltrans.o
 .rodata.NameEfiRuntimeServicesCode
                0x000000000007099e       0x18 /tmp/ccfdZ3Du.ltrans5.ltrans.o
 .rodata.NameEfiRuntimeServicesCodeShort
                0x00000000000709b6       0x10 /tmp/ccfdZ3Du.ltrans5.ltrans.o
 .rodata.NameEfiRuntimeServicesData
                0x00000000000709c6       0x18 /tmp/ccfdZ3Du.ltrans5.ltrans.o
 .rodata.NameEfiRuntimeServicesDataShort
                0x00000000000709de       0x10 /tmp/ccfdZ3Du.ltrans5.ltrans.o
 .rodata.NameEfiUnusableMemory
                0x00000000000709ee       0x1e /tmp/ccfdZ3Du.ltrans5.ltrans.o
 .rodata.NameEfiUnusableMemoryShort
                0x0000000000070a0c       0x12 /tmp/ccfdZ3Du.ltrans5.ltrans.o
 *fill*         0x0000000000070a1e        0x2 
 .rodata.ParamList.lto_priv.169
                0x0000000000070a20       0x40 /tmp/ccfdZ3Du.ltrans5.ltrans.o
 .rodata.ParamList.lto_priv.170
                0x0000000000070a60       0x30 /tmp/ccfdZ3Du.ltrans5.ltrans.o
 .rodata.ParamList.lto_priv.171
                0x0000000000070a90       0x20 /tmp/ccfdZ3Du.ltrans5.ltrans.o
 .rodata.ParamList.lto_priv.172
                0x0000000000070ab0       0x20 /tmp/ccfdZ3Du.ltrans5.ltrans.o
 .rodata.PrintDifferentPoint.str2.2
                0x0000000000070ad0       0x2c /tmp/ccfdZ3Du.ltrans5.ltrans.o
                                         0x4a (size before relaxing)
 .rodata.ShellCommandRunComp.str1.1
                0x0000000000070afc       0x4a /tmp/ccfdZ3Du.ltrans5.ltrans.o
 .rodata.ShellCommandRunComp.str2.2
                0x0000000000070b46       0x18 /tmp/ccfdZ3Du.ltrans5.ltrans.o
                                         0x36 (size before relaxing)
 .rodata.ShellCommandRunDmem.str1.1
                0x0000000000070b5e       0x4a /tmp/ccfdZ3Du.ltrans5.ltrans.o
 .rodata.ShellCommandRunDmem.str2.2
                0x0000000000070ba8       0x16 /tmp/ccfdZ3Du.ltrans5.ltrans.o
 .rodata.ShellCommandRunEdit.str1.1
                0x0000000000070ba8       0xa8 /tmp/ccfdZ3Du.ltrans5.ltrans.o
 .rodata.ShellCommandRunEdit.str2.2
                0x0000000000070c50       0x1c /tmp/ccfdZ3Du.ltrans5.ltrans.o
                                         0x38 (size before relaxing)
 .rodata.ShellCommandRunEfiCompress.str1.1
                0x0000000000070c6c       0x51 /tmp/ccfdZ3Du.ltrans5.ltrans.o
 .rodata.ShellCommandRunEfiCompress.str2.2
                0x0000000000070cbd       0x18 /tmp/ccfdZ3Du.ltrans5.ltrans.o
 .rodata.ShellCommandRunEfiDecompress.str1.1
                0x0000000000070cbd       0x87 /tmp/ccfdZ3Du.ltrans5.ltrans.o
 .rodata.ShellCommandRunEfiDecompress.str2.2
                0x0000000000070d44       0x1c /tmp/ccfdZ3Du.ltrans5.ltrans.o
 .rodata.ShellCommandRunHexEdit.str1.1
                0x0000000000070d44       0xb0 /tmp/ccfdZ3Du.ltrans5.ltrans.o
 .rodata.ShellCommandRunHexEdit.str2.2
                0x0000000000070df4       0xa8 /tmp/ccfdZ3Du.ltrans5.ltrans.o
                                         0xf6 (size before relaxing)
 .rodata.ShellCommandRunLoadPciRom.str1.1
                0x0000000000070e9c        0xb /tmp/ccfdZ3Du.ltrans5.ltrans.o
                                         0x1d (size before relaxing)
 .rodata.ShellCommandRunLoadPciRom.str2.2
                0x0000000000070ea7        0x8 /tmp/ccfdZ3Du.ltrans5.ltrans.o
 .rodata.ShellCommandRunMemMap.str1.1
                0x0000000000070ea7       0x59 /tmp/ccfdZ3Du.ltrans5.ltrans.o
 .rodata.ShellCommandRunMemMap.str2.2
                0x0000000000070f00       0x18 /tmp/ccfdZ3Du.ltrans5.ltrans.o
 .rodata.ShellCommandRunMode.str1.1
                0x0000000000070f00       0x4a /tmp/ccfdZ3Du.ltrans5.ltrans.o
 .rodata.ShellCommandRunMode.str2.2
                0x0000000000070f4a        0xa /tmp/ccfdZ3Du.ltrans5.ltrans.o
 .rodata.ShellCommandRunSetSize.str1.1
                0x0000000000070f4a       0x4d /tmp/ccfdZ3Du.ltrans5.ltrans.o
 .rodata.ShellCommandRunSetSize.str2.2
                0x0000000000070f97       0x10 /tmp/ccfdZ3Du.ltrans5.ltrans.o
 *fill*         0x0000000000070f97        0x1 
 .rodata.gUnicodeFileTag
                0x0000000000070f98        0x2 /tmp/ccfdZ3Du.ltrans5.ltrans.o
                0x0000000000070f98                gUnicodeFileTag
 .rodata.mFileName
                0x0000000000070f9a       0x1e /tmp/ccfdZ3Du.ltrans5.ltrans.o
 .rodata.DisplayProcessorFamily.part.5
                0x0000000000070fb8      0x1f6 /tmp/ccfdZ3Du.ltrans6.ltrans.o
 *fill*         0x00000000000711ae        0x2 
 .rodata.SmbiosPrintStructure.part.21
                0x00000000000711b0      0x12e /tmp/ccfdZ3Du.ltrans6.ltrans.o
 .rodata.DisplayMmMemorySize.str2.2
                0x00000000000712de       0xa8 /tmp/ccfdZ3Du.ltrans6.ltrans.o
                                          0xc (size before relaxing)
 .rodata.DisplayProcessorFamily.part.5.str2.2
                0x00000000000712de     0x116e /tmp/ccfdZ3Du.ltrans6.ltrans.o
                                       0x1188 (size before relaxing)
 .rodata.SendBlock.str1.1
                0x000000000007244c       0x84 /tmp/ccfdZ3Du.ltrans6.ltrans.o
 .rodata.Smbios64BitPrintEPSInfo.str2.2
                0x00000000000724d0        0x4 /tmp/ccfdZ3Du.ltrans6.ltrans.o
 .rodata.SmbiosPrintStructure.part.21.str1.1
                0x00000000000724d0      0xa3f /tmp/ccfdZ3Du.ltrans6.ltrans.o
                                        0xacc (size before relaxing)
 *fill*         0x0000000000072f0f        0x1 
 .rodata.SmbiosPrintStructure.part.21.str2.2
                0x0000000000072f10      0x23a /tmp/ccfdZ3Du.ltrans6.ltrans.o
                                        0x25e (size before relaxing)
 .rodata.str2.2
                0x000000000007314a     0x3e0c /tmp/ccfdZ3Du.ltrans6.ltrans.o
                                       0x3f9a (size before relaxing)
 *fill*         0x0000000000076f56        0x2 
 .rodata.InternalCommandLineParse.part.14.constprop.58
                0x0000000000076f58        0x6 /tmp/ccfdZ3Du.ltrans7.ltrans.o
 *fill*         0x0000000000076f5e        0x2 
 .rodata.RunScriptFile.part.8.constprop.113
                0x0000000000076f60       0x14 /tmp/ccfdZ3Du.ltrans7.ltrans.o
 .rodata.ShellCommandRunBcfg
                0x0000000000076f74       0x14 /tmp/ccfdZ3Du.ltrans7.ltrans.o
 .rodata        0x0000000000076f88        0x4 /tmp/ccfdZ3Du.ltrans7.ltrans.o
 .rodata.BasePrintLibSPrintMarker.constprop.135.str1.1
                0x0000000000076f8c      0x26a /tmp/ccfdZ3Du.ltrans7.ltrans.o
                                        0x29d (size before relaxing)
 .rodata.BcfgMod.str1.1
                0x00000000000771f6       0x8a /tmp/ccfdZ3Du.ltrans7.ltrans.o
                                         0xbf (size before relaxing)
 .rodata.BcfgMod.str2.2
                0x0000000000077280       0xda /tmp/ccfdZ3Du.ltrans7.ltrans.o
                                         0xec (size before relaxing)
 .rodata.CatSDumpHex.constprop.54.str2.2
                0x000000000007735a       0x2c /tmp/ccfdZ3Du.ltrans7.ltrans.o
 .rodata.CatVSPrint.str1.1
                0x000000000007735a       0x63 /tmp/ccfdZ3Du.ltrans7.ltrans.o
 .rodata.ConsoleLoggerDisplayHistory.constprop.71.str1.1
                0x00000000000773bd       0x63 /tmp/ccfdZ3Du.ltrans7.ltrans.o
                                         0x5e (size before relaxing)
 .rodata.CreateAndPopulateShellFileInfo.constprop.78.str1.1
                0x00000000000773bd       0x4a /tmp/ccfdZ3Du.ltrans7.ltrans.o
                                         0xa7 (size before relaxing)
 .rodata.DivU64x64Remainder.constprop.4.str1.1
                0x0000000000077407       0x50 /tmp/ccfdZ3Du.ltrans7.ltrans.o
 .rodata.EfiGetNameGuidFromFwVolDevicePathNode.str1.1
                0x0000000000077457       0x5e /tmp/ccfdZ3Du.ltrans7.ltrans.o
 .rodata.FileHandleFindFirstFile.constprop.77.str1.1
                0x00000000000774b5       0x39 /tmp/ccfdZ3Du.ltrans7.ltrans.o
                                         0x85 (size before relaxing)
 .rodata.GetBestLanguageForDriver.constprop.85.str1.1
                0x00000000000774ee        0x1 /tmp/ccfdZ3Du.ltrans7.ltrans.o
 .rodata.GetBestLanguageForDriver.constprop.85.str2.2
                0x00000000000774ee       0x1a /tmp/ccfdZ3Du.ltrans7.ltrans.o
 .rodata.HBufferImageSave.constprop.34.str1.1
                0x00000000000774ee       0x6c /tmp/ccfdZ3Du.ltrans7.ltrans.o
 .rodata.HBufferImageSave.constprop.34.str2.2
                0x00000000000774ee       0xde /tmp/ccfdZ3Du.ltrans7.ltrans.o
 .rodata.Hex.lto_priv.197
                0x00000000000774ee       0x10 /tmp/ccfdZ3Du.ltrans7.ltrans.o
                0x00000000000774ee                Hex.lto_priv.197
 .rodata.InternalCommandLineParse.part.14.constprop.58.str1.1
                0x00000000000774fe       0x59 /tmp/ccfdZ3Du.ltrans7.ltrans.o
 .rodata.InternalCommandLineParse.part.14.constprop.58.str2.2
                0x00000000000774fe        0x6 /tmp/ccfdZ3Du.ltrans7.ltrans.o
                                         0x10 (size before relaxing)
 .rodata.IoWrite64.constprop.32.str1.1
                0x0000000000077504       0x44 /tmp/ccfdZ3Du.ltrans7.ltrans.o
                                         0x56 (size before relaxing)
 .rodata.IsDevicePathValid.constprop.111.str1.1
                0x0000000000077548       0x4e /tmp/ccfdZ3Du.ltrans7.ltrans.o
                                         0x69 (size before relaxing)
 .rodata.ManFileFindTitleSection.part.3.constprop.82.str2.2
                0x0000000000077596       0x14 /tmp/ccfdZ3Du.ltrans7.ltrans.o
 .rodata.NetIp6IsLinkLocalAddr.str1.1
                0x00000000000775aa       0x14 /tmp/ccfdZ3Du.ltrans7.ltrans.o
 .rodata.NetLibDetectMedia.constprop.6.str1.1
                0x00000000000775be       0x5e /tmp/ccfdZ3Du.ltrans7.ltrans.o
 *fill*         0x000000000007761c        0x4 
 .rodata.ParamList
                0x0000000000077620       0x30 /tmp/ccfdZ3Du.ltrans7.ltrans.o
 .rodata.PeCoffLoaderGetPdbPointer.str1.1
                0x0000000000077650       0x70 /tmp/ccfdZ3Du.ltrans7.ltrans.o
 .rodata.PerformQuickSort.constprop.108.str1.1
                0x00000000000776c0       0x63 /tmp/ccfdZ3Du.ltrans7.ltrans.o
 .rodata.Print.str1.1
                0x0000000000077723       0x52 /tmp/ccfdZ3Du.ltrans7.ltrans.o
 .rodata.ProcessManFile.constprop.79.str1.1
                0x0000000000077775       0x52 /tmp/ccfdZ3Du.ltrans7.ltrans.o
                                         0x27 (size before relaxing)
 *fill*         0x0000000000077775        0x1 
 .rodata.ProcessManFile.constprop.79.str2.2
                0x0000000000077776        0xa /tmp/ccfdZ3Du.ltrans7.ltrans.o
                                         0x14 (size before relaxing)
 .rodata.QueryTable.constprop.16.str2.2
                0x0000000000077780       0x22 /tmp/ccfdZ3Du.ltrans7.ltrans.o
                                         0x26 (size before relaxing)
 .rodata.RunScriptFile.part.8.constprop.113.str1.1
                0x00000000000777a2       0x74 /tmp/ccfdZ3Du.ltrans7.ltrans.o
                                        0x11a (size before relaxing)
 .rodata.RunScriptFile.part.8.constprop.113.str2.2
                0x0000000000077816       0x6c /tmp/ccfdZ3Du.ltrans7.ltrans.o
                                         0xbc (size before relaxing)
 .rodata.SearchList.constprop.48.str1.1
                0x0000000000077882       0x19 /tmp/ccfdZ3Du.ltrans7.ltrans.o
                                         0x62 (size before relaxing)
 .rodata.ShellCommandAddMapItemAndUpdatePath.constprop.109.str1.1
                0x000000000007789b       0x4b /tmp/ccfdZ3Du.ltrans7.ltrans.o
                                         0x9d (size before relaxing)
 .rodata.ShellCommandAddMapItemAndUpdatePath.constprop.109.str2.2
                0x00000000000778e6       0x32 /tmp/ccfdZ3Du.ltrans7.ltrans.o
                                         0x40 (size before relaxing)
 .rodata.ShellCommandLineParseEx.constprop.56.str1.1
                0x0000000000077918       0x23 /tmp/ccfdZ3Du.ltrans7.ltrans.o
 .rodata.ShellCommandRunBcfg.str1.1
                0x000000000007793b      0x148 /tmp/ccfdZ3Du.ltrans7.ltrans.o
 *fill*         0x0000000000077a83        0x1 
 .rodata.ShellCommandRunBcfg.str2.2
                0x0000000000077a84      0x132 /tmp/ccfdZ3Du.ltrans7.ltrans.o
                                        0x154 (size before relaxing)
 .rodata.ShellFindFilePathEx.constprop.115.str1.1
                0x0000000000077bb6       0x20 /tmp/ccfdZ3Du.ltrans7.ltrans.o
                                         0x39 (size before relaxing)
 .rodata.ShellFindFilePathEx.constprop.115.str2.2
                0x0000000000077bd6        0x4 /tmp/ccfdZ3Du.ltrans7.ltrans.o
 .rodata.ShellLibConstructorWorker.constprop.106.str1.1
                0x0000000000077bd6       0x11 /tmp/ccfdZ3Du.ltrans7.ltrans.o
 *fill*         0x0000000000077be7        0x1 
 .rodata.StatusBarRefresh.constprop.39.str2.2
                0x0000000000077be8       0x58 /tmp/ccfdZ3Du.ltrans7.ltrans.o
                                         0x62 (size before relaxing)
 .rodata.StrHexToUint64S.constprop.68.str1.1
                0x0000000000077c40       0xd6 /tmp/ccfdZ3Du.ltrans7.ltrans.o
 .rodata.StrToIpv6Address.constprop.67.str1.1
                0x0000000000077d16       0x64 /tmp/ccfdZ3Du.ltrans7.ltrans.o
 .rodata.StrnCatGrowLeft.constprop.76.str1.1
                0x0000000000077d7a       0x25 /tmp/ccfdZ3Du.ltrans7.ltrans.o
 .rodata.UnicodeStrToAsciiStrS.constprop.65.str1.1
                0x0000000000077d7a       0xc8 /tmp/ccfdZ3Du.ltrans7.ltrans.o
 .rodata.UnicodeValueToStringS.constprop.60.str1.1
                0x0000000000077e42       0x87 /tmp/ccfdZ3Du.ltrans7.ltrans.o
 *fill*         0x0000000000077ec9        0x7 
 .rodata.mBmLoadOptionName
                0x0000000000077ed0       0x20 /tmp/ccfdZ3Du.ltrans7.ltrans.o
 .rodata.mExecutableExtensions.lto_priv.201
                0x0000000000077ef0       0x14 /tmp/ccfdZ3Du.ltrans7.ltrans.o
                0x0000000000077ef0                mExecutableExtensions.lto_priv.201
 .rodata.mFileName
                0x0000000000077f04       0x1c /tmp/ccfdZ3Du.ltrans7.ltrans.o
 .rodata.mStatusString
                0x0000000000077f20      0x138 /tmp/ccfdZ3Du.ltrans7.ltrans.o
 .rodata.str1.1
                0x0000000000078058      0x224 /tmp/ccfdZ3Du.ltrans7.ltrans.o
                                        0x235 (size before relaxing)
 .rodata.str2.2
                0x000000000007827c      0x474 /tmp/ccfdZ3Du.ltrans7.ltrans.o
 .rodata.FileInterfaceStdInRead
                0x00000000000786f0       0x17 /tmp/ccfdZ3Du.ltrans8.ltrans.o
 .rodata.AppendStringToHistory.str1.1
                0x0000000000078707      0x15c /tmp/ccfdZ3Du.ltrans8.ltrans.o
                                        0x178 (size before relaxing)
 .rodata.AppendStringToHistory.str2.2
                0x0000000000078863        0x6 /tmp/ccfdZ3Du.ltrans8.ltrans.o
 .rodata.AsciiStrLen.str1.1
                0x0000000000078863       0x6f /tmp/ccfdZ3Du.ltrans8.ltrans.o
                                         0x86 (size before relaxing)
 .rodata.AsciiStrnCmp.str1.1
                0x00000000000788d2       0x70 /tmp/ccfdZ3Du.ltrans8.ltrans.o
 .rodata.ConsoleLoggerEnableCursor.str1.1
                0x0000000000078942       0x57 /tmp/ccfdZ3Du.ltrans8.ltrans.o
 .rodata.ConsoleLoggerOutputString.str1.1
                0x0000000000078942       0x4c /tmp/ccfdZ3Du.ltrans8.ltrans.o
                                         0xa8 (size before relaxing)
 .rodata.CopyMem.str1.1
                0x000000000007898e       0xc6 /tmp/ccfdZ3Du.ltrans8.ltrans.o
 .rodata.CreateFileInterfaceMem.str1.1
                0x0000000000078a54       0x62 /tmp/ccfdZ3Du.ltrans8.ltrans.o
 .rodata.EfiShellGetAlias.str1.1
                0x0000000000078ab6       0x45 /tmp/ccfdZ3Du.ltrans8.ltrans.o
 .rodata.EfiShellGetAlias.str2.2
                0x0000000000078afb        0x4 /tmp/ccfdZ3Du.ltrans8.ltrans.o
 .rodata.EfiShellGetCurDir.str1.1
                0x0000000000078afb       0x4e /tmp/ccfdZ3Du.ltrans8.ltrans.o
                                         0x90 (size before relaxing)
 .rodata.EfiShellGetCurDir.str2.2
                0x0000000000078b49        0x8 /tmp/ccfdZ3Du.ltrans8.ltrans.o
 .rodata.EfiShellGetHelpText.str1.1
                0x0000000000078b49       0x19 /tmp/ccfdZ3Du.ltrans8.ltrans.o
                                         0xad (size before relaxing)
 .rodata.EfiShellSetCurDir.str1.1
                0x0000000000078b62       0x96 /tmp/ccfdZ3Du.ltrans8.ltrans.o
                                         0xf8 (size before relaxing)
 .rodata.EfiShellSetEnv.str2.2
                0x0000000000078bf8       0x14 /tmp/ccfdZ3Du.ltrans8.ltrans.o
                                         0x82 (size before relaxing)
 .rodata.FileInterfaceFileRead.str2.2
                0x0000000000078c0c        0x6 /tmp/ccfdZ3Du.ltrans8.ltrans.o
 .rodata.FileInterfaceFileWrite.str1.1
                0x0000000000078c0c        0x3 /tmp/ccfdZ3Du.ltrans8.ltrans.o
 .rodata.FileInterfaceStdInRead.str1.1
                0x0000000000078c0c       0x87 /tmp/ccfdZ3Du.ltrans8.ltrans.o
 *fill*         0x0000000000078c93        0x1 
 .rodata.FileInterfaceStdInRead.str2.2
                0x0000000000078c94       0x28 /tmp/ccfdZ3Du.ltrans8.ltrans.o
                                         0x48 (size before relaxing)
 .rodata.FreeEnvironmentVariableList.str1.1
                0x0000000000078cbc       0x40 /tmp/ccfdZ3Du.ltrans8.ltrans.o
                                         0x55 (size before relaxing)
 .rodata.GetPreviousNode.str1.1
                0x0000000000078cfc       0x22 /tmp/ccfdZ3Du.ltrans8.ltrans.o
 .rodata.InitializeListHead.str1.1
                0x0000000000078d1e       0x19 /tmp/ccfdZ3Du.ltrans8.ltrans.o
 .rodata.InternalBaseLibIsListValid.str1.1
                0x0000000000078d37       0x7c /tmp/ccfdZ3Du.ltrans8.ltrans.o
                                         0x91 (size before relaxing)
 .rodata.InternalSetAlias.str1.1
                0x0000000000078db3       0x16 /tmp/ccfdZ3Du.ltrans8.ltrans.o
 .rodata.IsListEmpty.str1.1
                0x0000000000078db3       0x26 /tmp/ccfdZ3Du.ltrans8.ltrans.o
 .rodata.IsNodeInList.str1.1
                0x0000000000078dd9       0x44 /tmp/ccfdZ3Du.ltrans8.ltrans.o
 .rodata.ManFileFindSections.str1.1
                0x0000000000078e1d       0x90 /tmp/ccfdZ3Du.ltrans8.ltrans.o
 *fill*         0x0000000000078ead        0x1 
 .rodata.ManFileFindSections.str2.2
                0x0000000000078eae       0x10 /tmp/ccfdZ3Du.ltrans8.ltrans.o
 .rodata.RemoveEntryList.str1.1
                0x0000000000078ebe       0x15 /tmp/ccfdZ3Du.ltrans8.ltrans.o
 .rodata.SetEnvironmentVariables.part.1.str1.1
                0x0000000000078ed3       0x2c /tmp/ccfdZ3Du.ltrans8.ltrans.o
 .rodata.SetEnvironmentVariables.part.1.str2.2
                0x0000000000078eff        0x4 /tmp/ccfdZ3Du.ltrans8.ltrans.o
 .rodata.SetMem.str1.1
                0x0000000000078eff       0x7c /tmp/ccfdZ3Du.ltrans8.ltrans.o
 .rodata.SetMem16.str1.1
                0x0000000000078f7b       0x99 /tmp/ccfdZ3Du.ltrans8.ltrans.o
                                         0xb0 (size before relaxing)
 .rodata.StrDecimalToUint64.str1.1
                0x0000000000079014       0x82 /tmp/ccfdZ3Du.ltrans8.ltrans.o
 .rodata.StrHexToBytes.str1.1
                0x0000000000079014       0x7a /tmp/ccfdZ3Du.ltrans8.ltrans.o
                                         0xe7 (size before relaxing)
 .rodata.StrLen.str1.1
                0x000000000007908e       0x3a /tmp/ccfdZ3Du.ltrans8.ltrans.o
                                         0x5d (size before relaxing)
 .rodata.StrStr.str1.1
                0x00000000000790c8       0x32 /tmp/ccfdZ3Du.ltrans8.ltrans.o
 .rodata.StrToGuid.str1.1
                0x00000000000790fa       0x17 /tmp/ccfdZ3Du.ltrans8.ltrans.o
 .rodata.StrnCatS.str1.1
                0x0000000000079111      0x111 /tmp/ccfdZ3Du.ltrans8.ltrans.o
                                        0x14d (size before relaxing)
 .rodata.StrnCmp.str1.1
                0x0000000000079222       0x72 /tmp/ccfdZ3Du.ltrans8.ltrans.o
 .rodata.StrnCpyS.str1.1
                0x0000000000079294       0x16 /tmp/ccfdZ3Du.ltrans8.ltrans.o
 .rodata.ZeroMem.str1.1
                0x0000000000079294       0x7b /tmp/ccfdZ3Du.ltrans8.ltrans.o
 *fill*         0x000000000007930f        0x1 
 .rodata.mNoNestingEnvVarName
                0x0000000000079310       0x14 /tmp/ccfdZ3Du.ltrans8.ltrans.o
                0x0000000000079310                mNoNestingEnvVarName
 .rodata.DevPathToTextBBS
                0x0000000000079324        0x6 /tmp/ccfdZ3Du.ltrans9.ltrans.o
 *fill*         0x000000000007932a        0x2 
 .rodata.DevPathToTextUart
                0x000000000007932c        0x4 /tmp/ccfdZ3Du.ltrans9.ltrans.o
 .rodata.DevPathFromTextUart
                0x0000000000079330       0x10 /tmp/ccfdZ3Du.ltrans9.ltrans.o
 .rodata.AllocateCopyPool.str1.1
                0x0000000000079340       0x93 /tmp/ccfdZ3Du.ltrans9.ltrans.o
 .rodata.CSWTCH.42
                0x00000000000793d3        0x6 /tmp/ccfdZ3Du.ltrans9.ltrans.o
 *fill*         0x00000000000793d9        0x1 
 .rodata.CatIPv4Address.str2.2
                0x00000000000793da       0x18 /tmp/ccfdZ3Du.ltrans9.ltrans.o
 .rodata.CatIPv6Address.str2.2
                0x00000000000793f2       0x90 /tmp/ccfdZ3Du.ltrans9.ltrans.o
 .rodata.CatNetworkProtocol.str2.2
                0x0000000000079482        0xa /tmp/ccfdZ3Du.ltrans9.ltrans.o
 .rodata.DebugAssert.str1.1
                0x0000000000079482       0x1e /tmp/ccfdZ3Du.ltrans9.ltrans.o
 .rodata.DevPathFromTextAcpiAdr.str1.1
                0x00000000000794a0       0x18 /tmp/ccfdZ3Du.ltrans9.ltrans.o
                                         0x65 (size before relaxing)
 .rodata.DevPathFromTextIPv6.str2.2
                0x00000000000794b8       0x3c /tmp/ccfdZ3Du.ltrans9.ltrans.o
 .rodata.DevPathFromTextSAS.str2.2
                0x00000000000794f4       0x16 /tmp/ccfdZ3Du.ltrans9.ltrans.o
 .rodata.DevPathFromTextUart.str2.2
                0x000000000007950a       0x10 /tmp/ccfdZ3Du.ltrans9.ltrans.o
                                         0x24 (size before relaxing)
 .rodata.DevPathFromTextUartFlowCtrl.str2.2
                0x000000000007951a       0x22 /tmp/ccfdZ3Du.ltrans9.ltrans.o
 .rodata.DevPathRelativeOffsetRange.str2.2
                0x000000000007953c       0x28 /tmp/ccfdZ3Du.ltrans9.ltrans.o
 .rodata.DevPathToText1394.str2.2
                0x0000000000079564       0x1c /tmp/ccfdZ3Du.ltrans9.ltrans.o
 .rodata.DevPathToTextAcpi.str2.2
                0x0000000000079580       0xfc /tmp/ccfdZ3Du.ltrans9.ltrans.o
 .rodata.DevPathToTextAcpiAdr.str2.2
                0x000000000007967c       0x26 /tmp/ccfdZ3Du.ltrans9.ltrans.o
 .rodata.DevPathToTextAcpiEx.str2.2
                0x00000000000796a2       0x9e /tmp/ccfdZ3Du.ltrans9.ltrans.o
                                         0xba (size before relaxing)
 .rodata.DevPathToTextAtapi.str2.2
                0x0000000000079740       0x64 /tmp/ccfdZ3Du.ltrans9.ltrans.o
                                         0x72 (size before relaxing)
 .rodata.DevPathToTextBBS.str2.2
                0x00000000000797a4       0x4a /tmp/ccfdZ3Du.ltrans9.ltrans.o
                                         0x84 (size before relaxing)
 .rodata.DevPathToTextBluetooth.str2.2
                0x00000000000797ee       0x48 /tmp/ccfdZ3Du.ltrans9.ltrans.o
 .rodata.DevPathToTextBluetoothLE.str2.2
                0x0000000000079836       0x5a /tmp/ccfdZ3Du.ltrans9.ltrans.o
 .rodata.DevPathToTextBmc.str2.2
                0x0000000000079890       0x20 /tmp/ccfdZ3Du.ltrans9.ltrans.o
 .rodata.DevPathToTextCDROM.str2.2
                0x00000000000798b0       0x48 /tmp/ccfdZ3Du.ltrans9.ltrans.o
 .rodata.DevPathToTextController.str2.2
                0x00000000000798f8       0x16 /tmp/ccfdZ3Du.ltrans9.ltrans.o
 .rodata.DevPathToTextDns.str2.2
                0x000000000007990e        0xa /tmp/ccfdZ3Du.ltrans9.ltrans.o
 .rodata.DevPathToTextEmmc.str2.2
                0x0000000000079918       0x16 /tmp/ccfdZ3Du.ltrans9.ltrans.o
 .rodata.DevPathToTextEndInstance.str2.2
                0x000000000007992e        0x4 /tmp/ccfdZ3Du.ltrans9.ltrans.o
 .rodata.DevPathToTextFibre.str2.2
                0x000000000007992e       0x26 /tmp/ccfdZ3Du.ltrans9.ltrans.o
 .rodata.DevPathToTextFibreEx.str2.2
                0x0000000000079954       0x16 /tmp/ccfdZ3Du.ltrans9.ltrans.o
 .rodata.DevPathToTextFilePath.str2.2
                0x000000000007996a        0x6 /tmp/ccfdZ3Du.ltrans9.ltrans.o
 .rodata.DevPathToTextFv.str2.2
                0x000000000007996a        0xe /tmp/ccfdZ3Du.ltrans9.ltrans.o
 .rodata.DevPathToTextFvFile.str2.2
                0x0000000000079978       0x16 /tmp/ccfdZ3Du.ltrans9.ltrans.o
 .rodata.DevPathToTextHardDrive.str2.2
                0x000000000007998e       0x64 /tmp/ccfdZ3Du.ltrans9.ltrans.o
                                         0x7e (size before relaxing)
 .rodata.DevPathToTextI2O.str2.2
                0x00000000000799f2       0x14 /tmp/ccfdZ3Du.ltrans9.ltrans.o
 .rodata.DevPathToTextIPv4.str2.2
                0x0000000000079a06       0x16 /tmp/ccfdZ3Du.ltrans9.ltrans.o
                                         0x20 (size before relaxing)
 .rodata.DevPathToTextIPv6.str2.2
                0x0000000000079a1c       0x80 /tmp/ccfdZ3Du.ltrans9.ltrans.o
 .rodata.DevPathToTextInfiniBand.str2.2
                0x0000000000079a9c       0x4c /tmp/ccfdZ3Du.ltrans9.ltrans.o
 .rodata.DevPathToTextLogicalUnit.str2.2
                0x0000000000079ae8       0x16 /tmp/ccfdZ3Du.ltrans9.ltrans.o
 .rodata.DevPathToTextMacAddr.str2.2
                0x0000000000079afe        0xa /tmp/ccfdZ3Du.ltrans9.ltrans.o
                                         0x14 (size before relaxing)
 .rodata.DevPathToTextMediaProtocol.str2.2
                0x0000000000079b08       0x14 /tmp/ccfdZ3Du.ltrans9.ltrans.o
 .rodata.DevPathToTextMemMap.str2.2
                0x0000000000079b1c       0x3e /tmp/ccfdZ3Du.ltrans9.ltrans.o
 .rodata.DevPathToTextNVMe.str2.2
                0x0000000000079b5a       0x66 /tmp/ccfdZ3Du.ltrans9.ltrans.o
 .rodata.DevPathToTextNodeGeneric.str2.2
                0x0000000000079bc0       0x22 /tmp/ccfdZ3Du.ltrans9.ltrans.o
 .rodata.DevPathToTextPccard.str2.2
                0x0000000000079be2       0x1a /tmp/ccfdZ3Du.ltrans9.ltrans.o
 .rodata.DevPathToTextPci.str2.2
                0x0000000000079bfc       0x1e /tmp/ccfdZ3Du.ltrans9.ltrans.o
 .rodata.DevPathToTextRamDisk.str2.2
                0x0000000000079c1a       0xca /tmp/ccfdZ3Du.ltrans9.ltrans.o
                                        0x136 (size before relaxing)
 .rodata.DevPathToTextSasEx.str2.2
                0x0000000000079ce4       0xb4 /tmp/ccfdZ3Du.ltrans9.ltrans.o
                                         0xce (size before relaxing)
 .rodata.DevPathToTextSata.str2.2
                0x0000000000079d98       0x2a /tmp/ccfdZ3Du.ltrans9.ltrans.o
 .rodata.DevPathToTextScsi.str2.2
                0x0000000000079dc2       0x20 /tmp/ccfdZ3Du.ltrans9.ltrans.o
 .rodata.DevPathToTextSd.str2.2
                0x0000000000079de2       0x12 /tmp/ccfdZ3Du.ltrans9.ltrans.o
 .rodata.DevPathToTextUart.str2.2
                0x0000000000079df4       0x56 /tmp/ccfdZ3Du.ltrans9.ltrans.o
                                         0x74 (size before relaxing)
 .rodata.DevPathToTextUfs.str2.2
                0x0000000000079e4a       0x1e /tmp/ccfdZ3Du.ltrans9.ltrans.o
 .rodata.DevPathToTextUri.str1.1
                0x0000000000079e68       0x17 /tmp/ccfdZ3Du.ltrans9.ltrans.o
 *fill*         0x0000000000079e7f        0x1 
 .rodata.DevPathToTextUri.str2.2
                0x0000000000079e80       0x10 /tmp/ccfdZ3Du.ltrans9.ltrans.o
 .rodata.DevPathToTextUsb.str2.2
                0x0000000000079e90       0x1e /tmp/ccfdZ3Du.ltrans9.ltrans.o
 .rodata.DevPathToTextUsbClass.str2.2
                0x0000000000079eae      0x14a /tmp/ccfdZ3Du.ltrans9.ltrans.o
                                        0x250 (size before relaxing)
 .rodata.DevPathToTextUsbWWID.str1.1
                0x0000000000079ff8       0x17 /tmp/ccfdZ3Du.ltrans9.ltrans.o
 *fill*         0x000000000007a00f        0x1 
 .rodata.DevPathToTextUsbWWID.str2.2
                0x000000000007a010       0x3a /tmp/ccfdZ3Du.ltrans9.ltrans.o
 .rodata.DevPathToTextVendor.str2.2
                0x000000000007a04a      0x114 /tmp/ccfdZ3Du.ltrans9.ltrans.o
                                        0x144 (size before relaxing)
 .rodata.DevPathToTextVlan.str2.2
                0x000000000007a15e       0x12 /tmp/ccfdZ3Du.ltrans9.ltrans.o
 .rodata.DevPathToTextWiFi.str2.2
                0x000000000007a170       0x14 /tmp/ccfdZ3Du.ltrans9.ltrans.o
 .rodata.DevPathToTextiSCSI.str2.2
                0x000000000007a184       0x6c /tmp/ccfdZ3Du.ltrans9.ltrans.o
                                         0x86 (size before relaxing)
 .rodata.FileHandleFindNextFile.part.1.str1.1
                0x000000000007a1f0       0x85 /tmp/ccfdZ3Du.ltrans9.ltrans.o
 .rodata.GetBestLanguage.str1.1
                0x000000000007a1f0       0x5b /tmp/ccfdZ3Du.ltrans9.ltrans.o
 .rodata.GetVariable2.str1.1
                0x000000000007a24b       0x5d /tmp/ccfdZ3Du.ltrans9.ltrans.o
 .rodata.HiiGetString.str1.1
                0x000000000007a2a8        0xe /tmp/ccfdZ3Du.ltrans9.ltrans.o
                                         0x52 (size before relaxing)
 .rodata.HiiGetString.str2.2
                0x000000000007a2b6       0x1a /tmp/ccfdZ3Du.ltrans9.ltrans.o
 .rodata.HiiGetSupportedLanguages.str1.1
                0x000000000007a2b6       0x45 /tmp/ccfdZ3Du.ltrans9.ltrans.o
 .rodata.HiiRemovePackages.str1.1
                0x000000000007a2fb       0x40 /tmp/ccfdZ3Du.ltrans9.ltrans.o
                                         0x5a (size before relaxing)
 *fill*         0x000000000007a33b        0x1 
 .rodata.NetworkProtocolFromText.str2.2
                0x000000000007a33c       0x10 /tmp/ccfdZ3Du.ltrans9.ltrans.o
 .rodata.PathCleanUpDirectories.str2.2
                0x000000000007a34c       0x1c /tmp/ccfdZ3Du.ltrans9.ltrans.o
 .rodata.QuickSortWorker.str1.1
                0x000000000007a368       0x20 /tmp/ccfdZ3Du.ltrans9.ltrans.o
                                         0x9a (size before relaxing)
 .rodata.SPrintLength.str1.1
                0x000000000007a388       0x27 /tmp/ccfdZ3Du.ltrans9.ltrans.o
                                         0x65 (size before relaxing)
 .rodata.SetDevicePathEndNode.str1.1
                0x000000000007a3af       0x63 /tmp/ccfdZ3Du.ltrans9.ltrans.o
 .rodata.SetDevicePathNodeLength.str1.1
                0x000000000007a3af       0x47 /tmp/ccfdZ3Du.ltrans9.ltrans.o
 .rodata.ShellInitialize.str1.1
                0x000000000007a3f6       0x79 /tmp/ccfdZ3Du.ltrans9.ltrans.o
 .rodata.ShellOpenFileByName.str1.1
                0x000000000007a3f6       0x26 /tmp/ccfdZ3Du.ltrans9.ltrans.o
                                         0x58 (size before relaxing)
 .rodata.ShellOpenFileByName.str2.2
                0x000000000007a41c       0x12 /tmp/ccfdZ3Du.ltrans9.ltrans.o
 .rodata.ShellOpenFileMetaArg.str1.1
                0x000000000007a41c       0x8e /tmp/ccfdZ3Du.ltrans9.ltrans.o
                                         0xbc (size before relaxing)
 .rodata.UefiDevicePathLibCatPrint.str1.1
                0x000000000007a4aa       0x64 /tmp/ccfdZ3Du.ltrans9.ltrans.o
 .rodata.UefiDevicePathLibConvertDevicePathToText.str2.2
                0x000000000007a50e        0x4 /tmp/ccfdZ3Du.ltrans9.ltrans.o
 .rodata.UnicodeVSPrint.str1.1
                0x000000000007a50e       0x28 /tmp/ccfdZ3Du.ltrans9.ltrans.o
 .rodata.WriteUnaligned16.str1.1
                0x000000000007a536       0x3e /tmp/ccfdZ3Du.ltrans9.ltrans.o
 .rodata.mEndOfPakageList
                0x000000000007a574        0x4 /tmp/ccfdZ3Du.ltrans9.ltrans.o
 .rodata.mHexStr
                0x000000000007a578       0x10 /tmp/ccfdZ3Du.ltrans9.ltrans.o
 .rodata.mUefiDevicePathLibEndDevicePath
                0x000000000007a588        0x4 /tmp/ccfdZ3Du.ltrans9.ltrans.o
 *fill*         0x000000000007a58c        0x4 
 .rodata.mUefiDevicePathLibToTextTable
                0x000000000007a590      0x320 /tmp/ccfdZ3Du.ltrans9.ltrans.o
 .rodata.mUefiDevicePathLibToTextTableGeneric
                0x000000000007a8b0       0x60 /tmp/ccfdZ3Du.ltrans9.ltrans.o
 .rodata.str2.2
                0x000000000007a910       0x50 /tmp/ccfdZ3Du.ltrans9.ltrans.o
 .rodata.CompareMem.str1.1
                0x000000000007a910       0x87 /tmp/ccfdZ3Du.ltrans10.ltrans.o
                                        0x108 (size before relaxing)
 .rodata.DisplayMemoryErrorOperation.str2.2
                0x000000000007a997        0xc /tmp/ccfdZ3Du.ltrans10.ltrans.o
 .rodata.DivU64x32Remainder.str1.1
                0x000000000007a997       0x43 /tmp/ccfdZ3Du.ltrans10.ltrans.o
                                         0x50 (size before relaxing)
 .rodata.MmioWrite16.str1.1
                0x000000000007a9da       0x13 /tmp/ccfdZ3Du.ltrans10.ltrans.o
 .rodata.MmioWrite32.str1.1
                0x000000000007a9ed       0x13 /tmp/ccfdZ3Du.ltrans10.ltrans.o
 .rodata.MmioWrite64.str1.1
                0x000000000007aa00       0x13 /tmp/ccfdZ3Du.ltrans10.ltrans.o
                                         0x57 (size before relaxing)
 *fill*         0x000000000007aa13        0x1 
 .rodata.PermanentString
                0x000000000007aa14       0x14 /tmp/ccfdZ3Du.ltrans10.ltrans.o
 .rodata.PingParamList
                0x000000000007aa28       0x60 /tmp/ccfdZ3Du.ltrans10.ltrans.o
 .rodata.PingSendEchoRequest.str1.1
                0x000000000007aa88       0x7f /tmp/ccfdZ3Du.ltrans10.ltrans.o
 *fill*         0x000000000007ab07        0x1 
 .rodata.PrintBitsInfo.str2.2
                0x000000000007ab08        0x8 /tmp/ccfdZ3Du.ltrans10.ltrans.o
                                          0xc (size before relaxing)
 .rodata.ShellCommandRunIfconfig.str1.1
                0x000000000007ab10       0x78 /tmp/ccfdZ3Du.ltrans10.ltrans.o
                                         0x8a (size before relaxing)
 .rodata.ShellCommandRunIfconfig.str2.2
                0x000000000007ab88       0xaa /tmp/ccfdZ3Du.ltrans10.ltrans.o
                                         0xe4 (size before relaxing)
 .rodata.ShellCommandRunPing.str1.1
                0x000000000007ac32       0x2d /tmp/ccfdZ3Du.ltrans10.ltrans.o
 *fill*         0x000000000007ac5f        0x1 
 .rodata.ShellCommandRunPing.str2.2
                0x000000000007ac60       0x14 /tmp/ccfdZ3Du.ltrans10.ltrans.o
                                         0x24 (size before relaxing)
 .rodata.gIp4AllMasks
                0x000000000007ac74       0x84 /tmp/ccfdZ3Du.ltrans10.ltrans.o
 .rodata.gShellNetwork1FileName
                0x000000000007acf8       0x1c /tmp/ccfdZ3Du.ltrans10.ltrans.o
 .rodata.str2.2
                0x000000000007ad14     0x1678 /tmp/ccfdZ3Du.ltrans10.ltrans.o
                                       0x17d6 (size before relaxing)
 *(.got .got.*)
 *:AutoGen.obj(.data.g*Guid)

.iplt           0x000000000007c38c        0x0
 .iplt          0x000000000007c38c        0x0 /home/vsts/work/1/edk2/Build/Lumia950XL-AARCH64/DEBUG_GCC5/AARCH64/ArmPkg/Library/ArmLib/ArmBaseLib/OUTPUT/ArmBaseLib.lib(AArch64Support.obj)

.data           0x000000000007d000    0x6203c
 *(.data .data.* .gnu.linkonce.d.*)
 .data.EmptyParamList
                0x000000000007d000       0x10 /tmp/ccfdZ3Du.ltrans0.ltrans.o
                0x000000000007d000                EmptyParamList
 .data.PCIBlankEntry
                0x000000000007d010       0x30 /tmp/ccfdZ3Du.ltrans0.ltrans.o
 .data.PCIPIFClass_0100
                0x000000000007d040       0x90 /tmp/ccfdZ3Du.ltrans0.ltrans.o
 .data.PCIPIFClass_0101
                0x000000000007d0d0      0x318 /tmp/ccfdZ3Du.ltrans0.ltrans.o
 .data.PCIPIFClass_0105
                0x000000000007d3e8       0x48 /tmp/ccfdZ3Du.ltrans0.ltrans.o
 .data.PCIPIFClass_0106
                0x000000000007d430       0x60 /tmp/ccfdZ3Du.ltrans0.ltrans.o
 .data.PCIPIFClass_0107
                0x000000000007d490       0x48 /tmp/ccfdZ3Du.ltrans0.ltrans.o
 .data.PCIPIFClass_0108
                0x000000000007d4d8       0x60 /tmp/ccfdZ3Du.ltrans0.ltrans.o
 .data.PCIPIFClass_0109
                0x000000000007d538       0x48 /tmp/ccfdZ3Du.ltrans0.ltrans.o
 .data.PCIPIFClass_0300
                0x000000000007d580       0x48 /tmp/ccfdZ3Du.ltrans0.ltrans.o
 .data.PCIPIFClass_0604
                0x000000000007d5c8       0x48 /tmp/ccfdZ3Du.ltrans0.ltrans.o
 .data.PCIPIFClass_0609
                0x000000000007d610       0x48 /tmp/ccfdZ3Du.ltrans0.ltrans.o
 .data.PCIPIFClass_060b
                0x000000000007d658       0x48 /tmp/ccfdZ3Du.ltrans0.ltrans.o
 .data.PCIPIFClass_0700
                0x000000000007d6a0       0xc0 /tmp/ccfdZ3Du.ltrans0.ltrans.o
 .data.PCIPIFClass_0701
                0x000000000007d760       0x90 /tmp/ccfdZ3Du.ltrans0.ltrans.o
 .data.PCIPIFClass_0703
                0x000000000007d7f0       0x90 /tmp/ccfdZ3Du.ltrans0.ltrans.o
 .data.PCIPIFClass_0800
                0x000000000007d880       0x90 /tmp/ccfdZ3Du.ltrans0.ltrans.o
 .data.PCIPIFClass_0801
                0x000000000007d910       0x60 /tmp/ccfdZ3Du.ltrans0.ltrans.o
 .data.PCIPIFClass_0802
                0x000000000007d970       0x60 /tmp/ccfdZ3Du.ltrans0.ltrans.o
 .data.PCIPIFClass_0803
                0x000000000007d9d0       0x60 /tmp/ccfdZ3Du.ltrans0.ltrans.o
 .data.PCIPIFClass_0904
                0x000000000007da30       0x48 /tmp/ccfdZ3Du.ltrans0.ltrans.o
 .data.PCIPIFClass_0c00
                0x000000000007da78       0x48 /tmp/ccfdZ3Du.ltrans0.ltrans.o
 .data.PCIPIFClass_0c03
                0x000000000007dac0       0xa8 /tmp/ccfdZ3Du.ltrans0.ltrans.o
 .data.PCIPIFClass_0c07
                0x000000000007db68       0x60 /tmp/ccfdZ3Du.ltrans0.ltrans.o
 .data.PCIPIFClass_0d01
                0x000000000007dbc8       0x48 /tmp/ccfdZ3Du.ltrans0.ltrans.o
 .data.PCIPIFClass_0e00
                0x000000000007dc10       0x48 /tmp/ccfdZ3Du.ltrans0.ltrans.o
 .data.PCISubClass_00
                0x000000000007dc58       0x48 /tmp/ccfdZ3Du.ltrans0.ltrans.o
 .data.PCISubClass_01
                0x000000000007dca0      0x120 /tmp/ccfdZ3Du.ltrans0.ltrans.o
 .data.PCISubClass_02
                0x000000000007ddc0       0xf0 /tmp/ccfdZ3Du.ltrans0.ltrans.o
 .data.PCISubClass_03
                0x000000000007deb0       0x78 /tmp/ccfdZ3Du.ltrans0.ltrans.o
 .data.PCISubClass_04
                0x000000000007df28       0x90 /tmp/ccfdZ3Du.ltrans0.ltrans.o
 .data.PCISubClass_05
                0x000000000007dfb8       0x60 /tmp/ccfdZ3Du.ltrans0.ltrans.o
 .data.PCISubClass_06
                0x000000000007e018      0x150 /tmp/ccfdZ3Du.ltrans0.ltrans.o
 .data.PCISubClass_07
                0x000000000007e168       0xc0 /tmp/ccfdZ3Du.ltrans0.ltrans.o
 .data.PCISubClass_08
                0x000000000007e228       0xf0 /tmp/ccfdZ3Du.ltrans0.ltrans.o
 .data.PCISubClass_09
                0x000000000007e318       0xa8 /tmp/ccfdZ3Du.ltrans0.ltrans.o
 .data.PCISubClass_0a
                0x000000000007e3c0       0x48 /tmp/ccfdZ3Du.ltrans0.ltrans.o
 .data.PCISubClass_0b
                0x000000000007e408       0xd8 /tmp/ccfdZ3Du.ltrans0.ltrans.o
 .data.PCISubClass_0c
                0x000000000007e4e0      0x120 /tmp/ccfdZ3Du.ltrans0.ltrans.o
 .data.PCISubClass_0d
                0x000000000007e600       0xd8 /tmp/ccfdZ3Du.ltrans0.ltrans.o
 .data.PCISubClass_0e
                0x000000000007e6d8       0x30 /tmp/ccfdZ3Du.ltrans0.ltrans.o
 .data.PCISubClass_0f
                0x000000000007e708       0x90 /tmp/ccfdZ3Du.ltrans0.ltrans.o
 .data.PCISubClass_10
                0x000000000007e798       0x60 /tmp/ccfdZ3Du.ltrans0.ltrans.o
 .data.PCISubClass_11
                0x000000000007e7f8       0x90 /tmp/ccfdZ3Du.ltrans0.ltrans.o
 .data.PCISubClass_12
                0x000000000007e888       0x30 /tmp/ccfdZ3Du.ltrans0.ltrans.o
 .data.PCISubClass_13
                0x000000000007e8b8       0x30 /tmp/ccfdZ3Du.ltrans0.ltrans.o
 .data.gClassStringList
                0x000000000007e8e8      0x210 /tmp/ccfdZ3Du.ltrans0.ltrans.o
 .data.gEfiCpuIo2ProtocolGuid
                0x000000000007eaf8       0x10 /tmp/ccfdZ3Du.ltrans0.ltrans.o
                0x000000000007eaf8                gEfiCpuIo2ProtocolGuid
 .data.gEfiPciRootBridgeIoProtocolGuid
                0x000000000007eb08       0x10 /tmp/ccfdZ3Du.ltrans0.ltrans.o
                0x000000000007eb08                gEfiPciRootBridgeIoProtocolGuid
 .data.gEfiSerialIoProtocolGuid
                0x000000000007eb18       0x10 /tmp/ccfdZ3Du.ltrans0.ltrans.o
                0x000000000007eb18                gEfiSerialIoProtocolGuid
 .data.gEfiSmbios3TableGuid
                0x000000000007eb28       0x10 /tmp/ccfdZ3Du.ltrans0.ltrans.o
                0x000000000007eb28                gEfiSmbios3TableGuid
 .data.gEfiSmbiosTableGuid
                0x000000000007eb38       0x10 /tmp/ccfdZ3Du.ltrans0.ltrans.o
                0x000000000007eb38                gEfiSmbiosTableGuid
 .data.gShowType
                0x000000000007eb48        0x1 /tmp/ccfdZ3Du.ltrans0.ltrans.o
 .data.UefiHandleParsingLibStrings
                0x000000000007eb49     0x4916 /tmp/ccfdZ3Du.ltrans1.ltrans.o
 *fill*         0x000000000008345f        0x1 
 .data.gEfiAbsolutePointerProtocolGuid
                0x0000000000083460       0x10 /tmp/ccfdZ3Du.ltrans1.ltrans.o
 .data.gEfiAcpiSdtProtocolGuid
                0x0000000000083470       0x10 /tmp/ccfdZ3Du.ltrans1.ltrans.o
 .data.gEfiAcpiTableProtocolGuid
                0x0000000000083480       0x10 /tmp/ccfdZ3Du.ltrans1.ltrans.o
 .data.gEfiAdapterInfoNetworkBootGuid
                0x0000000000083490       0x10 /tmp/ccfdZ3Du.ltrans1.ltrans.o
 .data.gEfiAdapterInfoSanMacAddressGuid
                0x00000000000834a0       0x10 /tmp/ccfdZ3Du.ltrans1.ltrans.o
 .data.gEfiAdapterInfoUndiIpv6SupportGuid
                0x00000000000834b0       0x10 /tmp/ccfdZ3Du.ltrans1.ltrans.o
 .data.gEfiArpProtocolGuid
                0x00000000000834c0       0x10 /tmp/ccfdZ3Du.ltrans1.ltrans.o
 .data.gEfiArpServiceBindingProtocolGuid
                0x00000000000834d0       0x10 /tmp/ccfdZ3Du.ltrans1.ltrans.o
 .data.gEfiAtaPassThruProtocolGuid
                0x00000000000834e0       0x10 /tmp/ccfdZ3Du.ltrans1.ltrans.o
 .data.gEfiAuthenticationInfoProtocolGuid
                0x00000000000834f0       0x10 /tmp/ccfdZ3Du.ltrans1.ltrans.o
 .data.gEfiBdsArchProtocolGuid
                0x0000000000083500       0x10 /tmp/ccfdZ3Du.ltrans1.ltrans.o
 .data.gEfiBisProtocolGuid
                0x0000000000083510       0x10 /tmp/ccfdZ3Du.ltrans1.ltrans.o
 .data.gEfiBlockIo2ProtocolGuid
                0x0000000000083520       0x10 /tmp/ccfdZ3Du.ltrans1.ltrans.o
 .data.gEfiBlockIoCryptoProtocolGuid
                0x0000000000083530       0x10 /tmp/ccfdZ3Du.ltrans1.ltrans.o
 .data.gEfiBluetoothAttributeProtocolGuid
                0x0000000000083540       0x10 /tmp/ccfdZ3Du.ltrans1.ltrans.o
 .data.gEfiBluetoothAttributeServiceBindingProtocolGuid
                0x0000000000083550       0x10 /tmp/ccfdZ3Du.ltrans1.ltrans.o
 .data.gEfiBluetoothConfigProtocolGuid
                0x0000000000083560       0x10 /tmp/ccfdZ3Du.ltrans1.ltrans.o
 .data.gEfiBluetoothHcProtocolGuid
                0x0000000000083570       0x10 /tmp/ccfdZ3Du.ltrans1.ltrans.o
 .data.gEfiBluetoothIoProtocolGuid
                0x0000000000083580       0x10 /tmp/ccfdZ3Du.ltrans1.ltrans.o
 .data.gEfiBluetoothIoServiceBindingProtocolGuid
                0x0000000000083590       0x10 /tmp/ccfdZ3Du.ltrans1.ltrans.o
 .data.gEfiBluetoothLeConfigProtocolGuid
                0x00000000000835a0       0x10 /tmp/ccfdZ3Du.ltrans1.ltrans.o
 .data.gEfiBootManagerPolicyProtocolGuid
                0x00000000000835b0       0x10 /tmp/ccfdZ3Du.ltrans1.ltrans.o
 .data.gEfiBusSpecificDriverOverrideProtocolGuid
                0x00000000000835c0       0x10 /tmp/ccfdZ3Du.ltrans1.ltrans.o
 .data.gEfiCapsuleArchProtocolGuid
                0x00000000000835d0       0x10 /tmp/ccfdZ3Du.ltrans1.ltrans.o
 .data.gEfiConfigKeywordHandlerProtocolGuid
                0x00000000000835e0       0x10 /tmp/ccfdZ3Du.ltrans1.ltrans.o
 .data.gEfiConsoleInDeviceGuid
                0x00000000000835f0       0x10 /tmp/ccfdZ3Du.ltrans1.ltrans.o
 .data.gEfiConsoleOutDeviceGuid
                0x0000000000083600       0x10 /tmp/ccfdZ3Du.ltrans1.ltrans.o
 .data.gEfiCpuArchProtocolGuid
                0x0000000000083610       0x10 /tmp/ccfdZ3Du.ltrans1.ltrans.o
 .data.gEfiDebugPortProtocolGuid
                0x0000000000083620       0x10 /tmp/ccfdZ3Du.ltrans1.ltrans.o
                0x0000000000083620                gEfiDebugPortProtocolGuid
 .data.gEfiDebugSupportProtocolGuid
                0x0000000000083630       0x10 /tmp/ccfdZ3Du.ltrans1.ltrans.o
 .data.gEfiDeferredImageLoadProtocolGuid
                0x0000000000083640       0x10 /tmp/ccfdZ3Du.ltrans1.ltrans.o
 .data.gEfiDeviceIoProtocolGuid
                0x0000000000083650       0x10 /tmp/ccfdZ3Du.ltrans1.ltrans.o
 .data.gEfiDevicePathFromTextProtocolGuid
                0x0000000000083660       0x10 /tmp/ccfdZ3Du.ltrans1.ltrans.o
 .data.gEfiDevicePathToTextProtocolGuid
                0x0000000000083670       0x10 /tmp/ccfdZ3Du.ltrans1.ltrans.o
 .data.gEfiDevicePathUtilitiesProtocolGuid
                0x0000000000083680       0x10 /tmp/ccfdZ3Du.ltrans1.ltrans.o
 .data.gEfiDhcp4ProtocolGuid
                0x0000000000083690       0x10 /tmp/ccfdZ3Du.ltrans1.ltrans.o
 .data.gEfiDhcp4ServiceBindingProtocolGuid
                0x00000000000836a0       0x10 /tmp/ccfdZ3Du.ltrans1.ltrans.o
 .data.gEfiDhcp6ProtocolGuid
                0x00000000000836b0       0x10 /tmp/ccfdZ3Du.ltrans1.ltrans.o
 .data.gEfiDhcp6ServiceBindingProtocolGuid
                0x00000000000836c0       0x10 /tmp/ccfdZ3Du.ltrans1.ltrans.o
 .data.gEfiDiskInfoProtocolGuid
                0x00000000000836d0       0x10 /tmp/ccfdZ3Du.ltrans1.ltrans.o
 .data.gEfiDiskIo2ProtocolGuid
                0x00000000000836e0       0x10 /tmp/ccfdZ3Du.ltrans1.ltrans.o
 .data.gEfiDiskIoProtocolGuid
                0x00000000000836f0       0x10 /tmp/ccfdZ3Du.ltrans1.ltrans.o
 .data.gEfiDns4ProtocolGuid
                0x0000000000083700       0x10 /tmp/ccfdZ3Du.ltrans1.ltrans.o
 .data.gEfiDns4ServiceBindingProtocolGuid
                0x0000000000083710       0x10 /tmp/ccfdZ3Du.ltrans1.ltrans.o
 .data.gEfiDns6ProtocolGuid
                0x0000000000083720       0x10 /tmp/ccfdZ3Du.ltrans1.ltrans.o
 .data.gEfiDns6ServiceBindingProtocolGuid
                0x0000000000083730       0x10 /tmp/ccfdZ3Du.ltrans1.ltrans.o
 .data.gEfiDriverFamilyOverrideProtocolGuid
                0x0000000000083740       0x10 /tmp/ccfdZ3Du.ltrans1.ltrans.o
 .data.gEfiDriverHealthProtocolGuid
                0x0000000000083750       0x10 /tmp/ccfdZ3Du.ltrans1.ltrans.o
 .data.gEfiDriverSupportedEfiVersionProtocolGuid
                0x0000000000083760       0x10 /tmp/ccfdZ3Du.ltrans1.ltrans.o
 .data.gEfiDxeMmReadyToLockProtocolGuid
                0x0000000000083770       0x10 /tmp/ccfdZ3Du.ltrans1.ltrans.o
 .data.gEfiDxeSmmReadyToLockProtocolGuid
                0x0000000000083780       0x10 /tmp/ccfdZ3Du.ltrans1.ltrans.o
 .data.gEfiEapConfigurationProtocolGuid
                0x0000000000083790       0x10 /tmp/ccfdZ3Du.ltrans1.ltrans.o
 .data.gEfiEapManagement2ProtocolGuid
                0x00000000000837a0       0x10 /tmp/ccfdZ3Du.ltrans1.ltrans.o
 .data.gEfiEapManagementProtocolGuid
                0x00000000000837b0       0x10 /tmp/ccfdZ3Du.ltrans1.ltrans.o
 .data.gEfiEapProtocolGuid
                0x00000000000837c0       0x10 /tmp/ccfdZ3Du.ltrans1.ltrans.o
 .data.gEfiEbcProtocolGuid
                0x00000000000837d0       0x10 /tmp/ccfdZ3Du.ltrans1.ltrans.o
 .data.gEfiEdidActiveProtocolGuid
                0x00000000000837e0       0x10 /tmp/ccfdZ3Du.ltrans1.ltrans.o
 .data.gEfiEdidDiscoveredProtocolGuid
                0x00000000000837f0       0x10 /tmp/ccfdZ3Du.ltrans1.ltrans.o
 .data.gEfiEdidOverrideProtocolGuid
                0x0000000000083800       0x10 /tmp/ccfdZ3Du.ltrans1.ltrans.o
 .data.gEfiEraseBlockProtocolGuid
                0x0000000000083810       0x10 /tmp/ccfdZ3Du.ltrans1.ltrans.o
 .data.gEfiExtScsiPassThruProtocolGuid
                0x0000000000083820       0x10 /tmp/ccfdZ3Du.ltrans1.ltrans.o
 .data.gEfiExtendedSalBaseIoServicesProtocolGuid
                0x0000000000083830       0x10 /tmp/ccfdZ3Du.ltrans1.ltrans.o
 .data.gEfiExtendedSalBaseServicesProtocolGuid
                0x0000000000083840       0x10 /tmp/ccfdZ3Du.ltrans1.ltrans.o
 .data.gEfiExtendedSalBootServiceProtocolGuid
                0x0000000000083850       0x10 /tmp/ccfdZ3Du.ltrans1.ltrans.o
 .data.gEfiExtendedSalCacheServicesProtocolGuid
                0x0000000000083860       0x10 /tmp/ccfdZ3Du.ltrans1.ltrans.o
 .data.gEfiExtendedSalFvBlockServicesProtocolGuid
                0x0000000000083870       0x10 /tmp/ccfdZ3Du.ltrans1.ltrans.o
 .data.gEfiExtendedSalMcaLogServicesProtocolGuid
                0x0000000000083880       0x10 /tmp/ccfdZ3Du.ltrans1.ltrans.o
 .data.gEfiExtendedSalMcaServicesProtocolGuid
                0x0000000000083890       0x10 /tmp/ccfdZ3Du.ltrans1.ltrans.o
 .data.gEfiExtendedSalMpServicesProtocolGuid
                0x00000000000838a0       0x10 /tmp/ccfdZ3Du.ltrans1.ltrans.o
 .data.gEfiExtendedSalMtcServicesProtocolGuid
                0x00000000000838b0       0x10 /tmp/ccfdZ3Du.ltrans1.ltrans.o
 .data.gEfiExtendedSalPalServicesProtocolGuid
                0x00000000000838c0       0x10 /tmp/ccfdZ3Du.ltrans1.ltrans.o
 .data.gEfiExtendedSalPciServicesProtocolGuid
                0x00000000000838d0       0x10 /tmp/ccfdZ3Du.ltrans1.ltrans.o
 .data.gEfiExtendedSalResetServicesProtocolGuid
                0x00000000000838e0       0x10 /tmp/ccfdZ3Du.ltrans1.ltrans.o
 .data.gEfiExtendedSalRtcServicesProtocolGuid
                0x00000000000838f0       0x10 /tmp/ccfdZ3Du.ltrans1.ltrans.o
 .data.gEfiExtendedSalStallServicesProtocolGuid
                0x0000000000083900       0x10 /tmp/ccfdZ3Du.ltrans1.ltrans.o
 .data.gEfiExtendedSalStatusCodeServicesProtocolGuid
                0x0000000000083910       0x10 /tmp/ccfdZ3Du.ltrans1.ltrans.o
 .data.gEfiExtendedSalVariableServicesProtocolGuid
                0x0000000000083920       0x10 /tmp/ccfdZ3Du.ltrans1.ltrans.o
 .data.gEfiFileInfoGuid
                0x0000000000083930       0x10 /tmp/ccfdZ3Du.ltrans1.ltrans.o
                0x0000000000083930                gEfiFileInfoGuid
 .data.gEfiFirmwareManagementProtocolGuid
                0x0000000000083940       0x10 /tmp/ccfdZ3Du.ltrans1.ltrans.o
 .data.gEfiFirmwareVolumeBlock2ProtocolGuid
                0x0000000000083950       0x10 /tmp/ccfdZ3Du.ltrans1.ltrans.o
 .data.gEfiFirmwareVolumeBlockProtocolGuid
                0x0000000000083960       0x10 /tmp/ccfdZ3Du.ltrans1.ltrans.o
 .data.gEfiFormBrowser2ProtocolGuid
                0x0000000000083970       0x10 /tmp/ccfdZ3Du.ltrans1.ltrans.o
 .data.gEfiFtp4ProtocolGuid
                0x0000000000083980       0x10 /tmp/ccfdZ3Du.ltrans1.ltrans.o
 .data.gEfiFtp4ServiceBindingProtocolGuid
                0x0000000000083990       0x10 /tmp/ccfdZ3Du.ltrans1.ltrans.o
 .data.gEfiGetPcdInfoProtocolGuid
                0x00000000000839a0       0x10 /tmp/ccfdZ3Du.ltrans1.ltrans.o
 .data.gEfiGraphicsOutputProtocolGuid
                0x00000000000839b0       0x10 /tmp/ccfdZ3Du.ltrans1.ltrans.o
 .data.gEfiHash2ProtocolGuid
                0x00000000000839c0       0x10 /tmp/ccfdZ3Du.ltrans1.ltrans.o
 .data.gEfiHash2ServiceBindingProtocolGuid
                0x00000000000839d0       0x10 /tmp/ccfdZ3Du.ltrans1.ltrans.o
 .data.gEfiHashProtocolGuid
                0x00000000000839e0       0x10 /tmp/ccfdZ3Du.ltrans1.ltrans.o
 .data.gEfiHashServiceBindingProtocolGuid
                0x00000000000839f0       0x10 /tmp/ccfdZ3Du.ltrans1.ltrans.o
 .data.gEfiHiiConfigRoutingProtocolGuid
                0x0000000000083a00       0x10 /tmp/ccfdZ3Du.ltrans1.ltrans.o
                0x0000000000083a00                gEfiHiiConfigRoutingProtocolGuid
 .data.gEfiHiiFontProtocolGuid
                0x0000000000083a10       0x10 /tmp/ccfdZ3Du.ltrans1.ltrans.o
                0x0000000000083a10                gEfiHiiFontProtocolGuid
 .data.gEfiHiiImageDecoderProtocolGuid
                0x0000000000083a20       0x10 /tmp/ccfdZ3Du.ltrans1.ltrans.o
 .data.gEfiHiiImageExProtocolGuid
                0x0000000000083a30       0x10 /tmp/ccfdZ3Du.ltrans1.ltrans.o
 .data.gEfiHiiImageProtocolGuid
                0x0000000000083a40       0x10 /tmp/ccfdZ3Du.ltrans1.ltrans.o
                0x0000000000083a40                gEfiHiiImageProtocolGuid
 .data.gEfiHiiPopupProtocolGuid
                0x0000000000083a50       0x10 /tmp/ccfdZ3Du.ltrans1.ltrans.o
 .data.gEfiHiiStringProtocolGuid
                0x0000000000083a60       0x10 /tmp/ccfdZ3Du.ltrans1.ltrans.o
                0x0000000000083a60                gEfiHiiStringProtocolGuid
 .data.gEfiHttpBootCallbackProtocolGuid
                0x0000000000083a70       0x10 /tmp/ccfdZ3Du.ltrans1.ltrans.o
 .data.gEfiHttpProtocolGuid
                0x0000000000083a80       0x10 /tmp/ccfdZ3Du.ltrans1.ltrans.o
 .data.gEfiHttpServiceBindingProtocolGuid
                0x0000000000083a90       0x10 /tmp/ccfdZ3Du.ltrans1.ltrans.o
 .data.gEfiHttpUtilitiesProtocolGuid
                0x0000000000083aa0       0x10 /tmp/ccfdZ3Du.ltrans1.ltrans.o
 .data.gEfiI2cBusConfigurationManagementProtocolGuid
                0x0000000000083ab0       0x10 /tmp/ccfdZ3Du.ltrans1.ltrans.o
 .data.gEfiI2cEnumerateProtocolGuid
                0x0000000000083ac0       0x10 /tmp/ccfdZ3Du.ltrans1.ltrans.o
 .data.gEfiI2cHostProtocolGuid
                0x0000000000083ad0       0x10 /tmp/ccfdZ3Du.ltrans1.ltrans.o
 .data.gEfiI2cIoProtocolGuid
                0x0000000000083ae0       0x10 /tmp/ccfdZ3Du.ltrans1.ltrans.o
 .data.gEfiI2cMasterProtocolGuid
                0x0000000000083af0       0x10 /tmp/ccfdZ3Du.ltrans1.ltrans.o
 .data.gEfiIScsiInitiatorNameProtocolGuid
                0x0000000000083b00       0x10 /tmp/ccfdZ3Du.ltrans1.ltrans.o
 .data.gEfiIdeControllerInitProtocolGuid
                0x0000000000083b10       0x10 /tmp/ccfdZ3Du.ltrans1.ltrans.o
 .data.gEfiIncompatiblePciDeviceSupportProtocolGuid
                0x0000000000083b20       0x10 /tmp/ccfdZ3Du.ltrans1.ltrans.o
 .data.gEfiIp4ConfigProtocolGuid
                0x0000000000083b30       0x10 /tmp/ccfdZ3Du.ltrans1.ltrans.o
 .data.gEfiIpSec2ProtocolGuid
                0x0000000000083b40       0x10 /tmp/ccfdZ3Du.ltrans1.ltrans.o
 .data.gEfiIpSecConfigProtocolGuid
                0x0000000000083b50       0x10 /tmp/ccfdZ3Du.ltrans1.ltrans.o
 .data.gEfiIpSecProtocolGuid
                0x0000000000083b60       0x10 /tmp/ccfdZ3Du.ltrans1.ltrans.o
 .data.gEfiIsaHcProtocolGuid
                0x0000000000083b70       0x10 /tmp/ccfdZ3Du.ltrans1.ltrans.o
 .data.gEfiIsaHcServiceBindingProtocolGuid
                0x0000000000083b80       0x10 /tmp/ccfdZ3Du.ltrans1.ltrans.o
 .data.gEfiKmsProtocolGuid
                0x0000000000083b90       0x10 /tmp/ccfdZ3Du.ltrans1.ltrans.o
 .data.gEfiLegacyRegion2ProtocolGuid
                0x0000000000083ba0       0x10 /tmp/ccfdZ3Du.ltrans1.ltrans.o
 .data.gEfiLoadFile2ProtocolGuid
                0x0000000000083bb0       0x10 /tmp/ccfdZ3Du.ltrans1.ltrans.o
 .data.gEfiLoadFileProtocolGuid
                0x0000000000083bc0       0x10 /tmp/ccfdZ3Du.ltrans1.ltrans.o
 .data.gEfiLoadedImageDevicePathProtocolGuid
                0x0000000000083bd0       0x10 /tmp/ccfdZ3Du.ltrans1.ltrans.o
 .data.gEfiManagedNetworkProtocolGuid
                0x0000000000083be0       0x10 /tmp/ccfdZ3Du.ltrans1.ltrans.o
 .data.gEfiManagedNetworkServiceBindingProtocolGuid
                0x0000000000083bf0       0x10 /tmp/ccfdZ3Du.ltrans1.ltrans.o
 .data.gEfiMetronomeArchProtocolGuid
                0x0000000000083c00       0x10 /tmp/ccfdZ3Du.ltrans1.ltrans.o
 .data.gEfiMmAccessProtocolGuid
                0x0000000000083c10       0x10 /tmp/ccfdZ3Du.ltrans1.ltrans.o
 .data.gEfiMmBaseProtocolGuid
                0x0000000000083c20       0x10 /tmp/ccfdZ3Du.ltrans1.ltrans.o
 .data.gEfiMmCommunicationProtocolGuid
                0x0000000000083c30       0x10 /tmp/ccfdZ3Du.ltrans1.ltrans.o
 .data.gEfiMmConfigurationProtocolGuid
                0x0000000000083c40       0x10 /tmp/ccfdZ3Du.ltrans1.ltrans.o
 .data.gEfiMmControlProtocolGuid
                0x0000000000083c50       0x10 /tmp/ccfdZ3Du.ltrans1.ltrans.o
 .data.gEfiMmCpuIoProtocolGuid
                0x0000000000083c60       0x10 /tmp/ccfdZ3Du.ltrans1.ltrans.o
 .data.gEfiMmCpuProtocolGuid
                0x0000000000083c70       0x10 /tmp/ccfdZ3Du.ltrans1.ltrans.o
 .data.gEfiMmEndOfDxeProtocolGuid
                0x0000000000083c80       0x10 /tmp/ccfdZ3Du.ltrans1.ltrans.o
 .data.gEfiMmGpiDispatchProtocolGuid
                0x0000000000083c90       0x10 /tmp/ccfdZ3Du.ltrans1.ltrans.o
 .data.gEfiMmIoTrapDispatchProtocolGuid
                0x0000000000083ca0       0x10 /tmp/ccfdZ3Du.ltrans1.ltrans.o
 .data.gEfiMmPciRootBridgeIoProtocolGuid
                0x0000000000083cb0       0x10 /tmp/ccfdZ3Du.ltrans1.ltrans.o
 .data.gEfiMmPeriodicTimerDispatchProtocolGuid
                0x0000000000083cc0       0x10 /tmp/ccfdZ3Du.ltrans1.ltrans.o
 .data.gEfiMmPowerButtonDispatchProtocolGuid
                0x0000000000083cd0       0x10 /tmp/ccfdZ3Du.ltrans1.ltrans.o
 .data.gEfiMmReadyToLockProtocolGuid
                0x0000000000083ce0       0x10 /tmp/ccfdZ3Du.ltrans1.ltrans.o
 .data.gEfiMmRscHandlerProtocolGuid
                0x0000000000083cf0       0x10 /tmp/ccfdZ3Du.ltrans1.ltrans.o
 .data.gEfiMmStandbyButtonDispatchProtocolGuid
                0x0000000000083d00       0x10 /tmp/ccfdZ3Du.ltrans1.ltrans.o
 .data.gEfiMmStatusCodeProtocolGuid
                0x0000000000083d10       0x10 /tmp/ccfdZ3Du.ltrans1.ltrans.o
 .data.gEfiMmSwDispatchProtocolGuid
                0x0000000000083d20       0x10 /tmp/ccfdZ3Du.ltrans1.ltrans.o
 .data.gEfiMmSxDispatchProtocolGuid
                0x0000000000083d30       0x10 /tmp/ccfdZ3Du.ltrans1.ltrans.o
 .data.gEfiMmUsbDispatchProtocolGuid
                0x0000000000083d40       0x10 /tmp/ccfdZ3Du.ltrans1.ltrans.o
 .data.gEfiMonotonicCounterArchProtocolGuid
                0x0000000000083d50       0x10 /tmp/ccfdZ3Du.ltrans1.ltrans.o
 .data.gEfiMpServiceProtocolGuid
                0x0000000000083d60       0x10 /tmp/ccfdZ3Du.ltrans1.ltrans.o
 .data.gEfiMtftp4ProtocolGuid
                0x0000000000083d70       0x10 /tmp/ccfdZ3Du.ltrans1.ltrans.o
 .data.gEfiMtftp4ServiceBindingProtocolGuid
                0x0000000000083d80       0x10 /tmp/ccfdZ3Du.ltrans1.ltrans.o
 .data.gEfiMtftp6ProtocolGuid
                0x0000000000083d90       0x10 /tmp/ccfdZ3Du.ltrans1.ltrans.o
 .data.gEfiMtftp6ServiceBindingProtocolGuid
                0x0000000000083da0       0x10 /tmp/ccfdZ3Du.ltrans1.ltrans.o
 .data.gEfiNetworkInterfaceIdentifierProtocolGuid
                0x0000000000083db0       0x10 /tmp/ccfdZ3Du.ltrans1.ltrans.o
 .data.gEfiNetworkInterfaceIdentifierProtocolGuid_31
                0x0000000000083dc0       0x10 /tmp/ccfdZ3Du.ltrans1.ltrans.o
 .data.gEfiNvmExpressPassThruProtocolGuid
                0x0000000000083dd0       0x10 /tmp/ccfdZ3Du.ltrans1.ltrans.o
 .data.gEfiPartTypeLegacyMbrGuid
                0x0000000000083de0       0x10 /tmp/ccfdZ3Du.ltrans1.ltrans.o
 .data.gEfiPartTypeSystemPartGuid
                0x0000000000083df0       0x10 /tmp/ccfdZ3Du.ltrans1.ltrans.o
 .data.gEfiPartitionInfoProtocolGuid
                0x0000000000083e00       0x10 /tmp/ccfdZ3Du.ltrans1.ltrans.o
 .data.gEfiPcAnsiGuid
                0x0000000000083e10       0x10 /tmp/ccfdZ3Du.ltrans1.ltrans.o
                0x0000000000083e10                gEfiPcAnsiGuid
 .data.gEfiPcdProtocolGuid
                0x0000000000083e20       0x10 /tmp/ccfdZ3Du.ltrans1.ltrans.o
 .data.gEfiPciEnumerationCompleteProtocolGuid
                0x0000000000083e30       0x10 /tmp/ccfdZ3Du.ltrans1.ltrans.o
 .data.gEfiPciHostBridgeResourceAllocationProtocolGuid
                0x0000000000083e40       0x10 /tmp/ccfdZ3Du.ltrans1.ltrans.o
 .data.gEfiPciHotPlugInitProtocolGuid
                0x0000000000083e50       0x10 /tmp/ccfdZ3Du.ltrans1.ltrans.o
 .data.gEfiPciHotPlugRequestProtocolGuid
                0x0000000000083e60       0x10 /tmp/ccfdZ3Du.ltrans1.ltrans.o
 .data.gEfiPciOverrideProtocolGuid
                0x0000000000083e70       0x10 /tmp/ccfdZ3Du.ltrans1.ltrans.o
 .data.gEfiPciPlatformProtocolGuid
                0x0000000000083e80       0x10 /tmp/ccfdZ3Du.ltrans1.ltrans.o
 .data.gEfiPkcs7VerifyProtocolGuid
                0x0000000000083e90       0x10 /tmp/ccfdZ3Du.ltrans1.ltrans.o
 .data.gEfiPlatformDriverOverrideProtocolGuid
                0x0000000000083ea0       0x10 /tmp/ccfdZ3Du.ltrans1.ltrans.o
 .data.gEfiPlatformToDriverConfigurationProtocolGuid
                0x0000000000083eb0       0x10 /tmp/ccfdZ3Du.ltrans1.ltrans.o
 .data.gEfiPxeBaseCodeCallbackProtocolGuid
                0x0000000000083ec0       0x10 /tmp/ccfdZ3Du.ltrans1.ltrans.o
 .data.gEfiPxeBaseCodeProtocolGuid
                0x0000000000083ed0       0x10 /tmp/ccfdZ3Du.ltrans1.ltrans.o
 .data.gEfiRamDiskProtocolGuid
                0x0000000000083ee0       0x10 /tmp/ccfdZ3Du.ltrans1.ltrans.o
 .data.gEfiRealTimeClockArchProtocolGuid
                0x0000000000083ef0       0x10 /tmp/ccfdZ3Du.ltrans1.ltrans.o
 .data.gEfiRegularExpressionProtocolGuid
                0x0000000000083f00       0x10 /tmp/ccfdZ3Du.ltrans1.ltrans.o
 .data.gEfiResetArchProtocolGuid
                0x0000000000083f10       0x10 /tmp/ccfdZ3Du.ltrans1.ltrans.o
 .data.gEfiResetNotificationProtocolGuid
                0x0000000000083f20       0x10 /tmp/ccfdZ3Du.ltrans1.ltrans.o
 .data.gEfiRestProtocolGuid
                0x0000000000083f30       0x10 /tmp/ccfdZ3Du.ltrans1.ltrans.o
 .data.gEfiRngProtocolGuid
                0x0000000000083f40       0x10 /tmp/ccfdZ3Du.ltrans1.ltrans.o
 .data.gEfiRscHandlerProtocolGuid
                0x0000000000083f50       0x10 /tmp/ccfdZ3Du.ltrans1.ltrans.o
 .data.gEfiRuntimeArchProtocolGuid
                0x0000000000083f60       0x10 /tmp/ccfdZ3Du.ltrans1.ltrans.o
 .data.gEfiS3SaveStateProtocolGuid
                0x0000000000083f70       0x10 /tmp/ccfdZ3Du.ltrans1.ltrans.o
 .data.gEfiS3SmmSaveStateProtocolGuid
                0x0000000000083f80       0x10 /tmp/ccfdZ3Du.ltrans1.ltrans.o
 .data.gEfiSalMcaInitPmiProtocolGuid
                0x0000000000083f90       0x10 /tmp/ccfdZ3Du.ltrans1.ltrans.o
 .data.gEfiSasDevicePathGuid
                0x0000000000083fa0       0x10 /tmp/ccfdZ3Du.ltrans1.ltrans.o
                0x0000000000083fa0                gEfiSasDevicePathGuid
 .data.gEfiScsiIoProtocolGuid
                0x0000000000083fb0       0x10 /tmp/ccfdZ3Du.ltrans1.ltrans.o
 .data.gEfiScsiPassThruProtocolGuid
                0x0000000000083fc0       0x10 /tmp/ccfdZ3Du.ltrans1.ltrans.o
 .data.gEfiSdMmcPassThruProtocolGuid
                0x0000000000083fd0       0x10 /tmp/ccfdZ3Du.ltrans1.ltrans.o
 .data.gEfiSecurity2ArchProtocolGuid
                0x0000000000083fe0       0x10 /tmp/ccfdZ3Du.ltrans1.ltrans.o
 .data.gEfiSecurityArchProtocolGuid
                0x0000000000083ff0       0x10 /tmp/ccfdZ3Du.ltrans1.ltrans.o
 .data.gEfiSecurityPolicyProtocolGuid
                0x0000000000084000       0x10 /tmp/ccfdZ3Du.ltrans1.ltrans.o
 .data.gEfiSimpleTextInProtocolGuid
                0x0000000000084010       0x10 /tmp/ccfdZ3Du.ltrans1.ltrans.o
                0x0000000000084010                gEfiSimpleTextInProtocolGuid
 .data.gEfiSimpleTextOutProtocolGuid
                0x0000000000084020       0x10 /tmp/ccfdZ3Du.ltrans1.ltrans.o
                0x0000000000084020                gEfiSimpleTextOutProtocolGuid
 .data.gEfiSioControlProtocolGuid
                0x0000000000084030       0x10 /tmp/ccfdZ3Du.ltrans1.ltrans.o
 .data.gEfiSioProtocolGuid
                0x0000000000084040       0x10 /tmp/ccfdZ3Du.ltrans1.ltrans.o
 .data.gEfiSmartCardEdgeProtocolGuid
                0x0000000000084050       0x10 /tmp/ccfdZ3Du.ltrans1.ltrans.o
 .data.gEfiSmartCardReaderProtocolGuid
                0x0000000000084060       0x10 /tmp/ccfdZ3Du.ltrans1.ltrans.o
 .data.gEfiSmbiosProtocolGuid
                0x0000000000084070       0x10 /tmp/ccfdZ3Du.ltrans1.ltrans.o
 .data.gEfiSmbusHcProtocolGuid
                0x0000000000084080       0x10 /tmp/ccfdZ3Du.ltrans1.ltrans.o
 .data.gEfiSmmAccess2ProtocolGuid
                0x0000000000084090       0x10 /tmp/ccfdZ3Du.ltrans1.ltrans.o
 .data.gEfiSmmBase2ProtocolGuid
                0x00000000000840a0       0x10 /tmp/ccfdZ3Du.ltrans1.ltrans.o
 .data.gEfiSmmCommunicationProtocolGuid
                0x00000000000840b0       0x10 /tmp/ccfdZ3Du.ltrans1.ltrans.o
 .data.gEfiSmmConfigurationProtocolGuid
                0x00000000000840c0       0x10 /tmp/ccfdZ3Du.ltrans1.ltrans.o
 .data.gEfiSmmControl2ProtocolGuid
                0x00000000000840d0       0x10 /tmp/ccfdZ3Du.ltrans1.ltrans.o
 .data.gEfiSmmCpuIo2ProtocolGuid
                0x00000000000840e0       0x10 /tmp/ccfdZ3Du.ltrans1.ltrans.o
 .data.gEfiSmmCpuProtocolGuid
                0x00000000000840f0       0x10 /tmp/ccfdZ3Du.ltrans1.ltrans.o
 .data.gEfiSmmEndOfDxeProtocolGuid
                0x0000000000084100       0x10 /tmp/ccfdZ3Du.ltrans1.ltrans.o
 .data.gEfiSmmGpiDispatch2ProtocolGuid
                0x0000000000084110       0x10 /tmp/ccfdZ3Du.ltrans1.ltrans.o
 .data.gEfiSmmIoTrapDispatch2ProtocolGuid
                0x0000000000084120       0x10 /tmp/ccfdZ3Du.ltrans1.ltrans.o
 .data.gEfiSmmPciRootBridgeIoProtocolGuid
                0x0000000000084130       0x10 /tmp/ccfdZ3Du.ltrans1.ltrans.o
 .data.gEfiSmmPeriodicTimerDispatch2ProtocolGuid
                0x0000000000084140       0x10 /tmp/ccfdZ3Du.ltrans1.ltrans.o
 .data.gEfiSmmPowerButtonDispatch2ProtocolGuid
                0x0000000000084150       0x10 /tmp/ccfdZ3Du.ltrans1.ltrans.o
 .data.gEfiSmmReadyToLockProtocolGuid
                0x0000000000084160       0x10 /tmp/ccfdZ3Du.ltrans1.ltrans.o
 .data.gEfiSmmRscHandlerProtocolGuid
                0x0000000000084170       0x10 /tmp/ccfdZ3Du.ltrans1.ltrans.o
 .data.gEfiSmmStandbyButtonDispatch2ProtocolGuid
                0x0000000000084180       0x10 /tmp/ccfdZ3Du.ltrans1.ltrans.o
 .data.gEfiSmmStatusCodeProtocolGuid
                0x0000000000084190       0x10 /tmp/ccfdZ3Du.ltrans1.ltrans.o
 .data.gEfiSmmSwDispatch2ProtocolGuid
                0x00000000000841a0       0x10 /tmp/ccfdZ3Du.ltrans1.ltrans.o
 .data.gEfiSmmSxDispatch2ProtocolGuid
                0x00000000000841b0       0x10 /tmp/ccfdZ3Du.ltrans1.ltrans.o
 .data.gEfiSmmUsbDispatch2ProtocolGuid
                0x00000000000841c0       0x10 /tmp/ccfdZ3Du.ltrans1.ltrans.o
 .data.gEfiStandardErrorDeviceGuid
                0x00000000000841d0       0x10 /tmp/ccfdZ3Du.ltrans1.ltrans.o
 .data.gEfiStatusCodeRuntimeProtocolGuid
                0x00000000000841e0       0x10 /tmp/ccfdZ3Du.ltrans1.ltrans.o
 .data.gEfiStorageSecurityCommandProtocolGuid
                0x00000000000841f0       0x10 /tmp/ccfdZ3Du.ltrans1.ltrans.o
 .data.gEfiSupplicantProtocolGuid
                0x0000000000084200       0x10 /tmp/ccfdZ3Du.ltrans1.ltrans.o
 .data.gEfiSupplicantServiceBindingProtocolGuid
                0x0000000000084210       0x10 /tmp/ccfdZ3Du.ltrans1.ltrans.o
 .data.gEfiTapeIoProtocolGuid
                0x0000000000084220       0x10 /tmp/ccfdZ3Du.ltrans1.ltrans.o
 .data.gEfiTcg2ProtocolGuid
                0x0000000000084230       0x10 /tmp/ccfdZ3Du.ltrans1.ltrans.o
 .data.gEfiTcgProtocolGuid
                0x0000000000084240       0x10 /tmp/ccfdZ3Du.ltrans1.ltrans.o
 .data.gEfiTcp4ProtocolGuid
                0x0000000000084250       0x10 /tmp/ccfdZ3Du.ltrans1.ltrans.o
 .data.gEfiTcp4ServiceBindingProtocolGuid
                0x0000000000084260       0x10 /tmp/ccfdZ3Du.ltrans1.ltrans.o
 .data.gEfiTcp6ProtocolGuid
                0x0000000000084270       0x10 /tmp/ccfdZ3Du.ltrans1.ltrans.o
 .data.gEfiTcp6ServiceBindingProtocolGuid
                0x0000000000084280       0x10 /tmp/ccfdZ3Du.ltrans1.ltrans.o
 .data.gEfiTimerArchProtocolGuid
                0x0000000000084290       0x10 /tmp/ccfdZ3Du.ltrans1.ltrans.o
 .data.gEfiTimestampProtocolGuid
                0x00000000000842a0       0x10 /tmp/ccfdZ3Du.ltrans1.ltrans.o
 .data.gEfiTlsConfigurationProtocolGuid
                0x00000000000842b0       0x10 /tmp/ccfdZ3Du.ltrans1.ltrans.o
 .data.gEfiTlsProtocolGuid
                0x00000000000842c0       0x10 /tmp/ccfdZ3Du.ltrans1.ltrans.o
 .data.gEfiTlsServiceBindingProtocolGuid
                0x00000000000842d0       0x10 /tmp/ccfdZ3Du.ltrans1.ltrans.o
 .data.gEfiUdp4ProtocolGuid
                0x00000000000842e0       0x10 /tmp/ccfdZ3Du.ltrans1.ltrans.o
 .data.gEfiUdp4ServiceBindingProtocolGuid
                0x00000000000842f0       0x10 /tmp/ccfdZ3Du.ltrans1.ltrans.o
 .data.gEfiUdp6ProtocolGuid
                0x0000000000084300       0x10 /tmp/ccfdZ3Du.ltrans1.ltrans.o
 .data.gEfiUdp6ServiceBindingProtocolGuid
                0x0000000000084310       0x10 /tmp/ccfdZ3Du.ltrans1.ltrans.o
 .data.gEfiUfsDeviceConfigProtocolGuid
                0x0000000000084320       0x10 /tmp/ccfdZ3Du.ltrans1.ltrans.o
 .data.gEfiUgaDrawProtocolGuid
                0x0000000000084330       0x10 /tmp/ccfdZ3Du.ltrans1.ltrans.o
 .data.gEfiUgaIoProtocolGuid
                0x0000000000084340       0x10 /tmp/ccfdZ3Du.ltrans1.ltrans.o
 .data.gEfiUnicodeCollation2ProtocolGuid
                0x0000000000084350       0x10 /tmp/ccfdZ3Du.ltrans1.ltrans.o
                0x0000000000084350                gEfiUnicodeCollation2ProtocolGuid
 .data.gEfiUnicodeCollationProtocolGuid
                0x0000000000084360       0x10 /tmp/ccfdZ3Du.ltrans1.ltrans.o
                0x0000000000084360                gEfiUnicodeCollationProtocolGuid
 .data.gEfiUsb2HcProtocolGuid
                0x0000000000084370       0x10 /tmp/ccfdZ3Du.ltrans1.ltrans.o
 .data.gEfiUsbFunctionIoProtocolGuid
                0x0000000000084380       0x10 /tmp/ccfdZ3Du.ltrans1.ltrans.o
 .data.gEfiUsbHcProtocolGuid
                0x0000000000084390       0x10 /tmp/ccfdZ3Du.ltrans1.ltrans.o
 .data.gEfiUsbIoProtocolGuid
                0x00000000000843a0       0x10 /tmp/ccfdZ3Du.ltrans1.ltrans.o
 .data.gEfiUserCredential2ProtocolGuid
                0x00000000000843b0       0x10 /tmp/ccfdZ3Du.ltrans1.ltrans.o
 .data.gEfiUserCredentialProtocolGuid
                0x00000000000843c0       0x10 /tmp/ccfdZ3Du.ltrans1.ltrans.o
 .data.gEfiUserManagerProtocolGuid
                0x00000000000843d0       0x10 /tmp/ccfdZ3Du.ltrans1.ltrans.o
 .data.gEfiVT100Guid
                0x00000000000843e0       0x10 /tmp/ccfdZ3Du.ltrans1.ltrans.o
                0x00000000000843e0                gEfiVT100Guid
 .data.gEfiVT100PlusGuid
                0x00000000000843f0       0x10 /tmp/ccfdZ3Du.ltrans1.ltrans.o
                0x00000000000843f0                gEfiVT100PlusGuid
 .data.gEfiVTUTF8Guid
                0x0000000000084400       0x10 /tmp/ccfdZ3Du.ltrans1.ltrans.o
                0x0000000000084400                gEfiVTUTF8Guid
 .data.gEfiVariableArchProtocolGuid
                0x0000000000084410       0x10 /tmp/ccfdZ3Du.ltrans1.ltrans.o
 .data.gEfiVariableWriteArchProtocolGuid
                0x0000000000084420       0x10 /tmp/ccfdZ3Du.ltrans1.ltrans.o
 .data.gEfiVlanConfigProtocolGuid
                0x0000000000084430       0x10 /tmp/ccfdZ3Du.ltrans1.ltrans.o
 .data.gEfiWatchdogTimerArchProtocolGuid
                0x0000000000084440       0x10 /tmp/ccfdZ3Du.ltrans1.ltrans.o
 .data.gEfiWiFi2ProtocolGuid
                0x0000000000084450       0x10 /tmp/ccfdZ3Du.ltrans1.ltrans.o
 .data.gEfiWiFiProtocolGuid
                0x0000000000084460       0x10 /tmp/ccfdZ3Du.ltrans1.ltrans.o
 .data.gGetPcdInfoProtocolGuid
                0x0000000000084470       0x10 /tmp/ccfdZ3Du.ltrans1.ltrans.o
 .data.gHandleParsingHiiGuid
                0x0000000000084480       0x10 /tmp/ccfdZ3Du.ltrans1.ltrans.o
 .data.gPcdProtocolGuid
                0x0000000000084490       0x10 /tmp/ccfdZ3Du.ltrans1.ltrans.o
 .data.mDayOfMonth
                0x00000000000844a0       0x60 /tmp/ccfdZ3Du.ltrans1.ltrans.o
 .data.CfgGuidList
                0x0000000000084500       0x18 /tmp/ccfdZ3Du.ltrans2.ltrans.o
 .data.DiagGuidList
                0x0000000000084518       0x18 /tmp/ccfdZ3Du.ltrans2.ltrans.o
 .data.gEfiComponentName2ProtocolGuid
                0x0000000000084530       0x10 /tmp/ccfdZ3Du.ltrans2.ltrans.o
                0x0000000000084530                gEfiComponentName2ProtocolGuid
 .data.gEfiComponentNameProtocolGuid
                0x0000000000084540       0x10 /tmp/ccfdZ3Du.ltrans2.ltrans.o
                0x0000000000084540                gEfiComponentNameProtocolGuid
 .data.gEfiDriverBindingProtocolGuid
                0x0000000000084550       0x10 /tmp/ccfdZ3Du.ltrans2.ltrans.o
                0x0000000000084550                gEfiDriverBindingProtocolGuid
 .data.gEfiDriverConfiguration2ProtocolGuid
                0x0000000000084560       0x10 /tmp/ccfdZ3Du.ltrans2.ltrans.o
                0x0000000000084560                gEfiDriverConfiguration2ProtocolGuid
 .data.gEfiDriverConfigurationProtocolGuid
                0x0000000000084570       0x10 /tmp/ccfdZ3Du.ltrans2.ltrans.o
                0x0000000000084570                gEfiDriverConfigurationProtocolGuid
 .data.gEfiDriverDiagnostics2ProtocolGuid
                0x0000000000084580       0x10 /tmp/ccfdZ3Du.ltrans2.ltrans.o
                0x0000000000084580                gEfiDriverDiagnostics2ProtocolGuid
 .data.gEfiDriverDiagnosticsProtocolGuid
                0x0000000000084590       0x10 /tmp/ccfdZ3Du.ltrans2.ltrans.o
                0x0000000000084590                gEfiDriverDiagnosticsProtocolGuid
 .data.gEfiFirmwareVolume2ProtocolGuid
                0x00000000000845a0       0x10 /tmp/ccfdZ3Du.ltrans2.ltrans.o
                0x00000000000845a0                gEfiFirmwareVolume2ProtocolGuid
 .data.gEfiHiiConfigAccessProtocolGuid
                0x00000000000845b0       0x10 /tmp/ccfdZ3Du.ltrans2.ltrans.o
                0x00000000000845b0                gEfiHiiConfigAccessProtocolGuid
 .data.gEfiHiiDatabaseProtocolGuid
                0x00000000000845c0       0x10 /tmp/ccfdZ3Du.ltrans2.ltrans.o
                0x00000000000845c0                gEfiHiiDatabaseProtocolGuid
 .data.gEfiPciIoProtocolGuid
                0x00000000000845d0       0x10 /tmp/ccfdZ3Du.ltrans2.ltrans.o
                0x00000000000845d0                gEfiPciIoProtocolGuid
 .data.gEfiShellDynamicCommandProtocolGuid
                0x00000000000845e0       0x10 /tmp/ccfdZ3Du.ltrans2.ltrans.o
                0x00000000000845e0                gEfiShellDynamicCommandProtocolGuid
 .data.FileInterfaceNulFile
                0x00000000000845f0       0x78 /tmp/ccfdZ3Du.ltrans3.ltrans.o
 .data.FileInterfaceStdErr
                0x0000000000084668       0x78 /tmp/ccfdZ3Du.ltrans3.ltrans.o
 .data.FileInterfaceStdIn
                0x00000000000846e0       0x78 /tmp/ccfdZ3Du.ltrans3.ltrans.o
 .data.FileInterfaceStdOut
                0x0000000000084758       0x78 /tmp/ccfdZ3Du.ltrans3.ltrans.o
 .data.ShellStrings
                0x00000000000847d0      0x5b7 /tmp/ccfdZ3Du.ltrans3.ltrans.o
 .data.UefiShellDebug1CommandsLibStrings
                0x0000000000084d87    0x1d179 /tmp/ccfdZ3Du.ltrans3.ltrans.o
 .data.UefiShellDriver1CommandsLibStrings
                0x00000000000a1f00     0xcaee /tmp/ccfdZ3Du.ltrans3.ltrans.o
 .data.UefiShellLevel1CommandsLibStrings
                0x00000000000ae9ee     0x8663 /tmp/ccfdZ3Du.ltrans3.ltrans.o
 .data.UefiShellLevel2CommandsLibStrings
                0x00000000000b7051    0x138f5 /tmp/ccfdZ3Du.ltrans3.ltrans.o
 .data.UefiShellLevel3CommandsLibStrings
                0x00000000000ca946     0x83a9 /tmp/ccfdZ3Du.ltrans3.ltrans.o
 .data.UefiShellNetwork1CommandsLibStrings
                0x00000000000d2cef     0x26a1 /tmp/ccfdZ3Du.ltrans3.ltrans.o
 .data.gEfiCallerIdGuid
                0x00000000000d5390       0x10 /tmp/ccfdZ3Du.ltrans3.ltrans.o
 .data.gEfiDxeServicesTableGuid
                0x00000000000d53a0       0x10 /tmp/ccfdZ3Du.ltrans3.ltrans.o
 .data.gEfiHobListGuid
                0x00000000000d53b0       0x10 /tmp/ccfdZ3Du.ltrans3.ltrans.o
 .data.gShellDebug1HiiGuid
                0x00000000000d53c0       0x10 /tmp/ccfdZ3Du.ltrans3.ltrans.o
 .data.gShellDriver1HiiGuid
                0x00000000000d53d0       0x10 /tmp/ccfdZ3Du.ltrans3.ltrans.o
 .data.gShellLevel1HiiGuid
                0x00000000000d53e0       0x10 /tmp/ccfdZ3Du.ltrans3.ltrans.o
 .data.gShellLevel2HiiGuid
                0x00000000000d53f0       0x10 /tmp/ccfdZ3Du.ltrans3.ltrans.o
 .data.gShellLevel3HiiGuid
                0x00000000000d5400       0x10 /tmp/ccfdZ3Du.ltrans3.ltrans.o
 .data.gShellNetwork1HiiGuid
                0x00000000000d5410       0x10 /tmp/ccfdZ3Du.ltrans3.ltrans.o
 .data.mShellProtocol
                0x00000000000d5420      0x168 /tmp/ccfdZ3Du.ltrans3.ltrans.o
 .data.gEfiFileSystemInfoGuid
                0x00000000000d5588       0x10 /tmp/ccfdZ3Du.ltrans4.ltrans.o
                0x00000000000d5588                gEfiFileSystemInfoGuid
 .data.gEfiSimpleFileSystemProtocolGuid
                0x00000000000d5598       0x10 /tmp/ccfdZ3Du.ltrans4.ltrans.o
                0x00000000000d5598                gEfiSimpleFileSystemProtocolGuid
 .data.FileBufferConst
                0x00000000000d55a8       0x78 /tmp/ccfdZ3Du.ltrans5.ltrans.o
 .data.HBufferImageConst
                0x00000000000d5620       0x78 /tmp/ccfdZ3Du.ltrans5.ltrans.o
 .data.HMainEditorConst
                0x00000000000d5698       0x50 /tmp/ccfdZ3Du.ltrans5.ltrans.o
 .data.HexMainControlBasedMenuFunctions
                0x00000000000d56e8       0xd8 /tmp/ccfdZ3Du.ltrans5.ltrans.o
 .data.MainControlBasedMenuFunctions
                0x00000000000d57c0       0xd8 /tmp/ccfdZ3Du.ltrans5.ltrans.o
 .data.MainEditorConst
                0x00000000000d5898       0x48 /tmp/ccfdZ3Du.ltrans5.ltrans.o
 .data.MainMenuItems
                0x00000000000d58e0       0xb0 /tmp/ccfdZ3Du.ltrans5.ltrans.o
 .data.SfoParamList
                0x00000000000d5990       0x20 /tmp/ccfdZ3Du.ltrans5.ltrans.o
                0x00000000000d5990                SfoParamList
 .data.gEfiAcpi10TableGuid
                0x00000000000d59b0       0x10 /tmp/ccfdZ3Du.ltrans5.ltrans.o
 .data.gEfiAcpi20TableGuid
                0x00000000000d59c0       0x10 /tmp/ccfdZ3Du.ltrans5.ltrans.o
 .data.gEfiDecompressProtocolGuid
                0x00000000000d59d0       0x10 /tmp/ccfdZ3Du.ltrans5.ltrans.o
                0x00000000000d59d0                gEfiDecompressProtocolGuid
 .data.gEfiMpsTableGuid
                0x00000000000d59e0       0x10 /tmp/ccfdZ3Du.ltrans5.ltrans.o
 .data.gEfiSalSystemTableGuid
                0x00000000000d59f0       0x10 /tmp/ccfdZ3Du.ltrans5.ltrans.o
 .data.gEfiSimplePointerProtocolGuid
                0x00000000000d5a00       0x10 /tmp/ccfdZ3Du.ltrans5.ltrans.o
                0x00000000000d5a00                gEfiSimplePointerProtocolGuid
 .data.gEfiSimpleTextInputExProtocolGuid
                0x00000000000d5a10       0x10 /tmp/ccfdZ3Du.ltrans5.ltrans.o
                0x00000000000d5a10                gEfiSimpleTextInputExProtocolGuid
 .data.BaseBoardBoardTypeTable
                0x00000000000d5a20       0xd0 /tmp/ccfdZ3Du.ltrans6.ltrans.o
 .data.BaseBoardFeatureFlagsTable
                0x00000000000d5af0       0x50 /tmp/ccfdZ3Du.ltrans6.ltrans.o
 .data.CacheAssociativityTable
                0x00000000000d5b40       0xe0 /tmp/ccfdZ3Du.ltrans6.ltrans.o
 .data.CacheErrCorrectingTypeTable
                0x00000000000d5c20       0x60 /tmp/ccfdZ3Du.ltrans6.ltrans.o
 .data.CacheSRAMTypeTable
                0x00000000000d5c80       0x70 /tmp/ccfdZ3Du.ltrans6.ltrans.o
 .data.CacheSystemCacheTypeTable
                0x00000000000d5cf0       0x50 /tmp/ccfdZ3Du.ltrans6.ltrans.o
 .data.CoolingDeviceStatusTable
                0x00000000000d5d40       0x60 /tmp/ccfdZ3Du.ltrans6.ltrans.o
 .data.CoolingDeviceTypeTable
                0x00000000000d5da0       0xb0 /tmp/ccfdZ3Du.ltrans6.ltrans.o
 .data.ECPLocTable
                0x00000000000d5e50       0xb0 /tmp/ccfdZ3Du.ltrans6.ltrans.o
 .data.ECPStatusTable
                0x00000000000d5f00       0x60 /tmp/ccfdZ3Du.ltrans6.ltrans.o
 .data.IPMIDIBMCInterfaceTypeTable
                0x00000000000d5f60       0x50 /tmp/ccfdZ3Du.ltrans6.ltrans.o
 .data.MCHostInterfaceTypeTable
                0x00000000000d5fb0       0x30 /tmp/ccfdZ3Du.ltrans6.ltrans.o
 .data.MDAddressTypeTable
                0x00000000000d5fe0       0x50 /tmp/ccfdZ3Du.ltrans6.ltrans.o
 .data.MDTypeTable
                0x00000000000d6030       0xd0 /tmp/ccfdZ3Du.ltrans6.ltrans.o
 .data.McErrorDetectMethodTable
                0x00000000000d6100       0x80 /tmp/ccfdZ3Du.ltrans6.ltrans.o
 .data.McMemorySpeedsTable
                0x00000000000d6180       0x50 /tmp/ccfdZ3Du.ltrans6.ltrans.o
 .data.MemoryChannelTypeTable
                0x00000000000d61d0       0x40 /tmp/ccfdZ3Du.ltrans6.ltrans.o
 .data.MemoryDeviceFormFactorTable
                0x00000000000d6210       0xf0 /tmp/ccfdZ3Du.ltrans6.ltrans.o
 .data.MemoryDeviceTypeDetailTable
                0x00000000000d6300       0xe0 /tmp/ccfdZ3Du.ltrans6.ltrans.o
 .data.MemoryDeviceTypeTable
                0x00000000000d63e0      0x1b0 /tmp/ccfdZ3Du.ltrans6.ltrans.o
 .data.MemoryModuleVoltageTable
                0x00000000000d6590       0x30 /tmp/ccfdZ3Du.ltrans6.ltrans.o
 .data.MmErrorStatusTable
                0x00000000000d65c0       0x30 /tmp/ccfdZ3Du.ltrans6.ltrans.o
 .data.PBDeviceChemistryTable
                0x00000000000d65f0       0x80 /tmp/ccfdZ3Du.ltrans6.ltrans.o
 .data.PMAErrorCorrectionTypesTable
                0x00000000000d6670       0x70 /tmp/ccfdZ3Du.ltrans6.ltrans.o
 .data.PMALocationTable
                0x00000000000d66e0       0xe0 /tmp/ccfdZ3Du.ltrans6.ltrans.o
 .data.PMAUseTable
                0x00000000000d67c0       0x70 /tmp/ccfdZ3Du.ltrans6.ltrans.o
 .data.PointingDeviceInterfaceTable
                0x00000000000d6830       0xb0 /tmp/ccfdZ3Du.ltrans6.ltrans.o
 .data.PointingDeviceTypeTable
                0x00000000000d68e0       0x70 /tmp/ccfdZ3Du.ltrans6.ltrans.o
 .data.PortTypeTable
                0x00000000000d6950      0x250 /tmp/ccfdZ3Du.ltrans6.ltrans.o
 .data.PostResultsBitmapDw1Table
                0x00000000000d6ba0      0x200 /tmp/ccfdZ3Du.ltrans6.ltrans.o
 .data.PostResultsBitmapDw2Table
                0x00000000000d6da0      0x200 /tmp/ccfdZ3Du.ltrans6.ltrans.o
 .data.ProcessorCharacteristicsTable
                0x00000000000d6fa0       0x70 /tmp/ccfdZ3Du.ltrans6.ltrans.o
 .data.ProcessorTypeTable
                0x00000000000d7010       0x60 /tmp/ccfdZ3Du.ltrans6.ltrans.o
 .data.ProcessorUpgradeTable
                0x00000000000d7070      0x380 /tmp/ccfdZ3Du.ltrans6.ltrans.o
 .data.SELTypesTable
                0x00000000000d73f0      0x1b0 /tmp/ccfdZ3Du.ltrans6.ltrans.o
 .data.SESecurityStatusTable
                0x00000000000d75a0       0x50 /tmp/ccfdZ3Du.ltrans6.ltrans.o
 .data.SlotCharacteristics1Table
                0x00000000000d75f0       0x80 /tmp/ccfdZ3Du.ltrans6.ltrans.o
 .data.SlotCharacteristics2Table
                0x00000000000d7670       0x30 /tmp/ccfdZ3Du.ltrans6.ltrans.o
 .data.StructureTypeInfoTable
                0x00000000000d76a0      0x2e0 /tmp/ccfdZ3Du.ltrans6.ltrans.o
 .data.SystemSlotCurrentUsageTable
                0x00000000000d7980       0x40 /tmp/ccfdZ3Du.ltrans6.ltrans.o
 .data.SystemSlotDataBusWidthTable
                0x00000000000d79c0       0xe0 /tmp/ccfdZ3Du.ltrans6.ltrans.o
 .data.SystemSlotLengthTable
                0x00000000000d7aa0       0x40 /tmp/ccfdZ3Du.ltrans6.ltrans.o
 .data.SystemWakeupTypeTable
                0x00000000000d7ae0       0x80 /tmp/ccfdZ3Du.ltrans6.ltrans.o
 .data.TemperatureProbeLocTable
                0x00000000000d7b60       0xb0 /tmp/ccfdZ3Du.ltrans6.ltrans.o
 .data.TemperatureProbeStatusTable
                0x00000000000d7c10       0x60 /tmp/ccfdZ3Du.ltrans6.ltrans.o
 .data.VPLocationTable
                0x00000000000d7c70       0x60 /tmp/ccfdZ3Du.ltrans6.ltrans.o
 .data.VPStatusTable
                0x00000000000d7cd0       0xb0 /tmp/ccfdZ3Du.ltrans6.ltrans.o
 .data.SELSysManagementTypesTable
                0x00000000000d7d80      0x100 /tmp/ccfdZ3Du.ltrans7.ltrans.o
 .data.ShellInfoObject
                0x00000000000d7e80      0x140 /tmp/ccfdZ3Du.ltrans7.ltrans.o
                0x00000000000d7e80                ShellInfoObject
 .data.UefiShellBcfgCommandLibStrings
                0x00000000000d7fc0     0x3034 /tmp/ccfdZ3Du.ltrans7.ltrans.o
 .data.font5x12
                0x00000000000daff4      0x300 /tmp/ccfdZ3Du.ltrans7.ltrans.o
 .data.gEdkiiVariableLockProtocolGuid
                0x00000000000db2f4       0x10 /tmp/ccfdZ3Du.ltrans7.ltrans.o
 .data.gEfiAdapterInfoMediaStateGuid
                0x00000000000db304       0x10 /tmp/ccfdZ3Du.ltrans7.ltrans.o
                0x00000000000db304                gEfiAdapterInfoMediaStateGuid
 .data.gEfiAdapterInformationProtocolGuid
                0x00000000000db314       0x10 /tmp/ccfdZ3Du.ltrans7.ltrans.o
                0x00000000000db314                gEfiAdapterInformationProtocolGuid
 .data.gEfiBlockIoProtocolGuid
                0x00000000000db324       0x10 /tmp/ccfdZ3Du.ltrans7.ltrans.o
                0x00000000000db324                gEfiBlockIoProtocolGuid
 .data.gEfiDevicePathProtocolGuid
                0x00000000000db334       0x10 /tmp/ccfdZ3Du.ltrans7.ltrans.o
                0x00000000000db334                gEfiDevicePathProtocolGuid
 .data.gEfiGlobalVariableGuid
                0x00000000000db344       0x10 /tmp/ccfdZ3Du.ltrans7.ltrans.o
                0x00000000000db344                gEfiGlobalVariableGuid
 .data.gEfiHiiPackageListProtocolGuid
                0x00000000000db354       0x10 /tmp/ccfdZ3Du.ltrans7.ltrans.o
                0x00000000000db354                gEfiHiiPackageListProtocolGuid
 .data.gEfiLoadedImageProtocolGuid
                0x00000000000db364       0x10 /tmp/ccfdZ3Du.ltrans7.ltrans.o
                0x00000000000db364                gEfiLoadedImageProtocolGuid
 .data.gEfiShellEnvironment2ExtGuid
                0x00000000000db374       0x10 /tmp/ccfdZ3Du.ltrans7.ltrans.o
 .data.gEfiShellEnvironment2Guid
                0x00000000000db384       0x10 /tmp/ccfdZ3Du.ltrans7.ltrans.o
                0x00000000000db384                gEfiShellEnvironment2Guid
 .data.gEfiShellInterfaceGuid
                0x00000000000db394       0x10 /tmp/ccfdZ3Du.ltrans7.ltrans.o
                0x00000000000db394                gEfiShellInterfaceGuid
 .data.gEfiShellParametersProtocolGuid
                0x00000000000db3a4       0x10 /tmp/ccfdZ3Du.ltrans7.ltrans.o
                0x00000000000db3a4                gEfiShellParametersProtocolGuid
 .data.gEfiShellProtocolGuid
                0x00000000000db3b4       0x10 /tmp/ccfdZ3Du.ltrans7.ltrans.o
                0x00000000000db3b4                gEfiShellProtocolGuid
 .data.gEfiSimpleNetworkProtocolGuid
                0x00000000000db3c4       0x10 /tmp/ccfdZ3Du.ltrans7.ltrans.o
                0x00000000000db3c4                gEfiSimpleNetworkProtocolGuid
 .data.gShellBcfgHiiGuid
                0x00000000000db3d4       0x10 /tmp/ccfdZ3Du.ltrans7.ltrans.o
 .data.mShellManHiiDevicePath
                0x00000000000db3e4       0x18 /tmp/ccfdZ3Du.ltrans7.ltrans.o
 .data.gShellAliasGuid
                0x00000000000db3fc       0x10 /tmp/ccfdZ3Du.ltrans8.ltrans.o
 .data.gShellVariableGuid
                0x00000000000db40c       0x10 /tmp/ccfdZ3Du.ltrans8.ltrans.o
                0x00000000000db40c                gShellVariableGuid
 .data.gEfiPersistentVirtualCdGuid
                0x00000000000db41c       0x10 /tmp/ccfdZ3Du.ltrans9.ltrans.o
 .data.gEfiPersistentVirtualDiskGuid
                0x00000000000db42c       0x10 /tmp/ccfdZ3Du.ltrans9.ltrans.o
 .data.gEfiUartDevicePathGuid
                0x00000000000db43c       0x10 /tmp/ccfdZ3Du.ltrans9.ltrans.o
 .data.gEfiVirtualCdGuid
                0x00000000000db44c       0x10 /tmp/ccfdZ3Du.ltrans9.ltrans.o
 .data.gEfiVirtualDiskGuid
                0x00000000000db45c       0x10 /tmp/ccfdZ3Du.ltrans9.ltrans.o
 *fill*         0x00000000000db46c        0x4 
 .data.McErrorCorrectCapabilityTable
                0x00000000000db470       0x60 /tmp/ccfdZ3Du.ltrans10.ltrans.o
 .data.McInterleaveSupportTable
                0x00000000000db4d0       0x70 /tmp/ccfdZ3Du.ltrans10.ltrans.o
 .data.MemoryErrorGranularityTable
                0x00000000000db540       0x40 /tmp/ccfdZ3Du.ltrans10.ltrans.o
 .data.MemoryErrorOperationTable
                0x00000000000db580       0x50 /tmp/ccfdZ3Du.ltrans10.ltrans.o
 .data.MemoryErrorTypeTable
                0x00000000000db5d0       0xe0 /tmp/ccfdZ3Du.ltrans10.ltrans.o
 .data.MmMemoryTypeTable
                0x00000000000db6b0       0xb0 /tmp/ccfdZ3Du.ltrans10.ltrans.o
 .data.OnboardDeviceTypesTable
                0x00000000000db760       0xa0 /tmp/ccfdZ3Du.ltrans10.ltrans.o
 .data.PortConnectorTypeTable
                0x00000000000db800      0x290 /tmp/ccfdZ3Du.ltrans10.ltrans.o
 .data.SELVarDataFormatTypeTable
                0x00000000000dba90       0x90 /tmp/ccfdZ3Du.ltrans10.ltrans.o
 .data.SystemEnclosureStatusTable
                0x00000000000dbb20       0x60 /tmp/ccfdZ3Du.ltrans10.ltrans.o
 .data.SystemEnclosureTypeTable
                0x00000000000dbb80      0x240 /tmp/ccfdZ3Du.ltrans10.ltrans.o
 .data.SystemSlotTypeTable
                0x00000000000dbdc0      0x3a0 /tmp/ccfdZ3Du.ltrans10.ltrans.o
 .data.gEfiIp4Config2ProtocolGuid
                0x00000000000dc160       0x10 /tmp/ccfdZ3Du.ltrans10.ltrans.o
                0x00000000000dc160                gEfiIp4Config2ProtocolGuid
 .data.gEfiIp4ProtocolGuid
                0x00000000000dc170       0x10 /tmp/ccfdZ3Du.ltrans10.ltrans.o
                0x00000000000dc170                gEfiIp4ProtocolGuid
 .data.gEfiIp4ServiceBindingProtocolGuid
                0x00000000000dc180       0x10 /tmp/ccfdZ3Du.ltrans10.ltrans.o
                0x00000000000dc180                gEfiIp4ServiceBindingProtocolGuid
 .data.gEfiIp6ConfigProtocolGuid
                0x00000000000dc190       0x10 /tmp/ccfdZ3Du.ltrans10.ltrans.o
                0x00000000000dc190                gEfiIp6ConfigProtocolGuid
 .data.gEfiIp6ProtocolGuid
                0x00000000000dc1a0       0x10 /tmp/ccfdZ3Du.ltrans10.ltrans.o
                0x00000000000dc1a0                gEfiIp6ProtocolGuid
 .data.gEfiIp6ServiceBindingProtocolGuid
                0x00000000000dc1b0       0x10 /tmp/ccfdZ3Du.ltrans10.ltrans.o
                0x00000000000dc1b0                gEfiIp6ServiceBindingProtocolGuid
 .data.mIfConfigCheckList
                0x00000000000dc1c0       0x60 /tmp/ccfdZ3Du.ltrans10.ltrans.o
 .data.mSetCheckList
                0x00000000000dc220       0x60 /tmp/ccfdZ3Du.ltrans10.ltrans.o
 *(.bss .bss.*)
 .bss.ControlBasedMenuFunctions
                0x00000000000dc280        0x8 /tmp/ccfdZ3Du.ltrans0.ltrans.o
                0x00000000000dc280                ControlBasedMenuFunctions
 .bss.HBufferImageBackupVar
                0x00000000000dc288       0x78 /tmp/ccfdZ3Du.ltrans0.ltrans.o
                0x00000000000dc288                HBufferImageBackupVar
 .bss.HBufferImageMouseNeedRefresh
                0x00000000000dc300        0x1 /tmp/ccfdZ3Du.ltrans0.ltrans.o
                0x00000000000dc300                HBufferImageMouseNeedRefresh
 .bss.HBufferImageNeedRefresh
                0x00000000000dc301        0x1 /tmp/ccfdZ3Du.ltrans0.ltrans.o
                0x00000000000dc301                HBufferImageNeedRefresh
 .bss.HBufferImageOnlyLineNeedRefresh
                0x00000000000dc302        0x1 /tmp/ccfdZ3Du.ltrans0.ltrans.o
                0x00000000000dc302                HBufferImageOnlyLineNeedRefresh
 *fill*         0x00000000000dc303        0x5 
 .bss.HDiskImage
                0x00000000000dc308       0x20 /tmp/ccfdZ3Du.ltrans0.ltrans.o
                0x00000000000dc308                HDiskImage
 .bss.HDiskImageBackupVar
                0x00000000000dc328       0x20 /tmp/ccfdZ3Du.ltrans0.ltrans.o
                0x00000000000dc328                HDiskImageBackupVar
 .bss.HEditorFirst
                0x00000000000dc348        0x1 /tmp/ccfdZ3Du.ltrans0.ltrans.o
                0x00000000000dc348                HEditorFirst
 .bss.HEditorMouseAction
                0x00000000000dc349        0x1 /tmp/ccfdZ3Du.ltrans0.ltrans.o
                0x00000000000dc349                HEditorMouseAction
 *fill*         0x00000000000dc34a        0x6 
 .bss.HFileImageBackupVar
                0x00000000000dc350       0x18 /tmp/ccfdZ3Du.ltrans0.ltrans.o
                0x00000000000dc350                HFileImageBackupVar
 .bss.HMainEditor
                0x00000000000dc368       0x50 /tmp/ccfdZ3Du.ltrans0.ltrans.o
                0x00000000000dc368                HMainEditor
 .bss.HMainEditorBackupVar
                0x00000000000dc3b8       0x50 /tmp/ccfdZ3Du.ltrans0.ltrans.o
                0x00000000000dc3b8                HMainEditorBackupVar
 .bss.HMemImageBackupVar
                0x00000000000dc408       0x18 /tmp/ccfdZ3Du.ltrans0.ltrans.o
                0x00000000000dc408                HMemImageBackupVar
 .bss.MenuItems
                0x00000000000dc420        0x8 /tmp/ccfdZ3Du.ltrans0.ltrans.o
 .bss.NumItems  0x00000000000dc428        0x8 /tmp/ccfdZ3Du.ltrans0.ltrans.o
 .bss.StringSize
                0x00000000000dc430        0x8 /tmp/ccfdZ3Du.ltrans0.ltrans.o
                0x00000000000dc430                StringSize
 .bss.Title     0x00000000000dc438        0x8 /tmp/ccfdZ3Du.ltrans0.ltrans.o
                0x00000000000dc438                Title
 .bss.m64Init   0x00000000000dc440        0x1 /tmp/ccfdZ3Du.ltrans0.ltrans.o
 *fill*         0x00000000000dc441        0x7 
 .bss.mConfigSpace
                0x00000000000dc448        0x8 /tmp/ccfdZ3Du.ltrans0.ltrans.o
 .bss.mFreq     0x00000000000dc450        0x8 /tmp/ccfdZ3Du.ltrans0.ltrans.o
 .bss.mHeap     0x00000000000dc458      0x3fe /tmp/ccfdZ3Du.ltrans0.ltrans.o
 *fill*         0x00000000000dc856        0x2 
 .bss.mHeapSize
                0x00000000000dc858        0x4 /tmp/ccfdZ3Du.ltrans0.ltrans.o
 .bss.mHuffmanDepth
                0x00000000000dc85c        0x4 /tmp/ccfdZ3Du.ltrans0.ltrans.o
 .bss.mInit     0x00000000000dc860        0x1 /tmp/ccfdZ3Du.ltrans0.ltrans.o
 *fill*         0x00000000000dc861        0x1 
 .bss.mLeft     0x00000000000dc862      0x7f6 /tmp/ccfdZ3Du.ltrans0.ltrans.o
 .bss.mLen      0x00000000000dd058        0x8 /tmp/ccfdZ3Du.ltrans0.ltrans.o
 .bss.mLenCnt   0x00000000000dd060       0x22 /tmp/ccfdZ3Du.ltrans0.ltrans.o
 *fill*         0x00000000000dd082        0x6 
 .bss.mNumberOfSmbios64BitStructures
                0x00000000000dd088        0x8 /tmp/ccfdZ3Du.ltrans0.ltrans.o
 .bss.mPrompt   0x00000000000dd090        0x8 /tmp/ccfdZ3Du.ltrans0.ltrans.o
                0x00000000000dd090                mPrompt
 .bss.mReturnString
                0x00000000000dd098        0x8 /tmp/ccfdZ3Du.ltrans0.ltrans.o
                0x00000000000dd098                mReturnString
 .bss.mRight    0x00000000000dd0a0      0x7f6 /tmp/ccfdZ3Du.ltrans0.ltrans.o
 *fill*         0x00000000000dd896        0x2 
 .bss.mSmbios64BitStatisticsTable
                0x00000000000dd898        0x8 /tmp/ccfdZ3Du.ltrans0.ltrans.o
 .bss.mSmbios64BitTable
                0x00000000000dd8a0        0x8 /tmp/ccfdZ3Du.ltrans0.ltrans.o
 .bss.mSmbios64BitTableLength
                0x00000000000dd8a8        0x8 /tmp/ccfdZ3Du.ltrans0.ltrans.o
 .bss.mSmbiosTable
                0x00000000000dd8b0        0x8 /tmp/ccfdZ3Du.ltrans0.ltrans.o
 .bss.mSortPtr  0x00000000000dd8b8        0x8 /tmp/ccfdZ3Du.ltrans0.ltrans.o
 .bss.mStatisticsTable
                0x00000000000dd8c0        0x8 /tmp/ccfdZ3Du.ltrans0.ltrans.o
 .bss.mTempInt32
                0x00000000000dd8c8        0x4 /tmp/ccfdZ3Du.ltrans0.ltrans.o
 *fill*         0x00000000000dd8cc        0x4 
 .bss.mTextInEx
                0x00000000000dd8d0        0x8 /tmp/ccfdZ3Du.ltrans0.ltrans.o
                0x00000000000dd8d0                mTextInEx
 .bss.m_Smbios64BitStruct
                0x00000000000dd8d8        0x8 /tmp/ccfdZ3Du.ltrans0.ltrans.o
 .bss.m_SmbiosStruct
                0x00000000000dd8e0        0x8 /tmp/ccfdZ3Du.ltrans0.ltrans.o
 .bss.gShellCurMapping
                0x00000000000dd8e8        0x8 /tmp/ccfdZ3Du.ltrans1.ltrans.o
                0x00000000000dd8e8                gShellCurMapping
 .bss.mAliasList.lto_priv.202
                0x00000000000dd8f0       0x20 /tmp/ccfdZ3Du.ltrans1.ltrans.o
                0x00000000000dd8f0                mAliasList.lto_priv.202
 .bss.mBlkMaxCount
                0x00000000000dd910        0x8 /tmp/ccfdZ3Du.ltrans1.ltrans.o
 .bss.mFileHandleList.lto_priv.204
                0x00000000000dd918       0x18 /tmp/ccfdZ3Du.ltrans1.ltrans.o
                0x00000000000dd918                mFileHandleList.lto_priv.204
 .bss.mFsMaxCount
                0x00000000000dd930        0x8 /tmp/ccfdZ3Du.ltrans1.ltrans.o
 .bss.mGuidList
                0x00000000000dd938        0x8 /tmp/ccfdZ3Du.ltrans1.ltrans.o
                0x00000000000dd938                mGuidList
 .bss.mGuidListCount
                0x00000000000dd940        0x8 /tmp/ccfdZ3Du.ltrans1.ltrans.o
                0x00000000000dd940                mGuidListCount
 .bss.mHandleList
                0x00000000000dd948       0x28 /tmp/ccfdZ3Du.ltrans1.ltrans.o
 .bss.mHandleParsingHiiHandle
                0x00000000000dd970        0x8 /tmp/ccfdZ3Du.ltrans1.ltrans.o
                0x00000000000dd970                mHandleParsingHiiHandle
 .bss.mProfileList.lto_priv.205
                0x00000000000dd978        0x8 /tmp/ccfdZ3Du.ltrans1.ltrans.o
                0x00000000000dd978                mProfileList.lto_priv.205
 .bss.mProfileListSize.lto_priv.207
                0x00000000000dd980        0x8 /tmp/ccfdZ3Du.ltrans1.ltrans.o
                0x00000000000dd980                mProfileListSize.lto_priv.207
 .bss.mScriptList.lto_priv.203
                0x00000000000dd988       0x18 /tmp/ccfdZ3Du.ltrans1.ltrans.o
                0x00000000000dd988                mScriptList.lto_priv.203
 .bss.gInReconnect
                0x00000000000dd9a0        0x1 /tmp/ccfdZ3Du.ltrans2.ltrans.o
 *fill*         0x00000000000dd9a1        0x7 
 .bss.gShellDriver1HiiHandle
                0x00000000000dd9a8        0x8 /tmp/ccfdZ3Du.ltrans2.ltrans.o
                0x00000000000dd9a8                gShellDriver1HiiHandle
 .bss.gShellLevel1HiiHandle
                0x00000000000dd9b0        0x8 /tmp/ccfdZ3Du.ltrans2.ltrans.o
                0x00000000000dd9b0                gShellLevel1HiiHandle
 .bss.gShellLevel3HiiHandle
                0x00000000000dd9b8        0x8 /tmp/ccfdZ3Du.ltrans2.ltrans.o
                0x00000000000dd9b8                gShellLevel3HiiHandle
 .bss.gDS       0x00000000000dd9c0        0x8 /tmp/ccfdZ3Du.ltrans3.ltrans.o
 .bss.gHiiConfigRouting
                0x00000000000dd9c8        0x8 /tmp/ccfdZ3Du.ltrans3.ltrans.o
 .bss.gHiiFont  0x00000000000dd9d0        0x8 /tmp/ccfdZ3Du.ltrans3.ltrans.o
 .bss.gHiiImage
                0x00000000000dd9d8        0x8 /tmp/ccfdZ3Du.ltrans3.ltrans.o
 .bss.mHobList  0x00000000000dd9e0        0x8 /tmp/ccfdZ3Du.ltrans3.ltrans.o
 .bss.gShellLevel2HiiHandle
                0x00000000000dd9e8        0x8 /tmp/ccfdZ3Du.ltrans4.ltrans.o
                0x00000000000dd9e8                gShellLevel2HiiHandle
 .bss.EditorExit
                0x00000000000dd9f0        0x1 /tmp/ccfdZ3Du.ltrans5.ltrans.o
 .bss.EditorFirst
                0x00000000000dd9f1        0x1 /tmp/ccfdZ3Du.ltrans5.ltrans.o
 .bss.EditorMouseAction
                0x00000000000dd9f2        0x1 /tmp/ccfdZ3Du.ltrans5.ltrans.o
 *fill*         0x00000000000dd9f3        0x5 
 .bss.FileBuffer
                0x00000000000dd9f8       0x78 /tmp/ccfdZ3Du.ltrans5.ltrans.o
 .bss.FileBufferBackupVar
                0x00000000000dda70       0x78 /tmp/ccfdZ3Du.ltrans5.ltrans.o
 .bss.FileBufferMouseNeedRefresh
                0x00000000000ddae8        0x1 /tmp/ccfdZ3Du.ltrans5.ltrans.o
 .bss.FileBufferNeedRefresh
                0x00000000000ddae9        0x1 /tmp/ccfdZ3Du.ltrans5.ltrans.o
 .bss.FileBufferOnlyLineNeedRefresh
                0x00000000000ddaea        0x1 /tmp/ccfdZ3Du.ltrans5.ltrans.o
 *fill*         0x00000000000ddaeb        0x5 
 .bss.HClipBoard
                0x00000000000ddaf0       0x10 /tmp/ccfdZ3Du.ltrans5.ltrans.o
 .bss.HClipBoardConst
                0x00000000000ddb00       0x10 /tmp/ccfdZ3Du.ltrans5.ltrans.o
 .bss.HDiskImageConst
                0x00000000000ddb10       0x20 /tmp/ccfdZ3Du.ltrans5.ltrans.o
 .bss.HEditorExit
                0x00000000000ddb30        0x1 /tmp/ccfdZ3Du.ltrans5.ltrans.o
 *fill*         0x00000000000ddb31        0x7 
 .bss.HFileImageConst
                0x00000000000ddb38       0x78 /tmp/ccfdZ3Du.ltrans5.ltrans.o
 .bss.HMemImageConst
                0x00000000000ddbb0       0x18 /tmp/ccfdZ3Du.ltrans5.ltrans.o
 .bss.HOriginalColors
                0x00000000000ddbc8        0x4 /tmp/ccfdZ3Du.ltrans5.ltrans.o
 *fill*         0x00000000000ddbcc        0x4 
 .bss.HOriginalMode
                0x00000000000ddbd0        0x8 /tmp/ccfdZ3Du.ltrans5.ltrans.o
 .bss.MainEditor
                0x00000000000ddbd8       0x48 /tmp/ccfdZ3Du.ltrans5.ltrans.o
 .bss.OriginalColors
                0x00000000000ddc20        0x4 /tmp/ccfdZ3Du.ltrans5.ltrans.o
 *fill*         0x00000000000ddc24        0x4 
 .bss.OriginalMode
                0x00000000000ddc28        0x8 /tmp/ccfdZ3Du.ltrans5.ltrans.o
 .bss.CPos.10088
                0x00000000000ddc30        0x4 /tmp/ccfdZ3Du.ltrans6.ltrans.o
 .bss.SmbiosMajorVersion
                0x00000000000ddc34        0x1 /tmp/ccfdZ3Du.ltrans6.ltrans.o
                0x00000000000ddc34                SmbiosMajorVersion
 .bss.SmbiosMinorVersion
                0x00000000000ddc35        0x1 /tmp/ccfdZ3Du.ltrans6.ltrans.o
                0x00000000000ddc35                SmbiosMinorVersion
 .bss.mAvail.lto_priv.155
                0x00000000000ddc36        0x2 /tmp/ccfdZ3Du.ltrans6.ltrans.o
                0x00000000000ddc36                mAvail.lto_priv.155
 .bss.mBitCount.lto_priv.141
                0x00000000000ddc38        0x4 /tmp/ccfdZ3Du.ltrans6.ltrans.o
                0x00000000000ddc38                mBitCount.lto_priv.141
 *fill*         0x00000000000ddc3c        0x4 
 .bss.mBuf.lto_priv.163
                0x00000000000ddc40        0x8 /tmp/ccfdZ3Du.ltrans6.ltrans.o
                0x00000000000ddc40                mBuf.lto_priv.163
 .bss.mBufSiz   0x00000000000ddc48        0x4 /tmp/ccfdZ3Du.ltrans6.ltrans.o
 .bss.mCCode    0x00000000000ddc4c      0x3fc /tmp/ccfdZ3Du.ltrans6.ltrans.o
 .bss.mCFreq    0x00000000000de048      0x7f6 /tmp/ccfdZ3Du.ltrans6.ltrans.o
 .bss.mCLen     0x00000000000de83e      0x1fe /tmp/ccfdZ3Du.ltrans6.ltrans.o
 *fill*         0x00000000000dea3c        0x4 
 .bss.mChildCount.lto_priv.152
                0x00000000000dea40        0x8 /tmp/ccfdZ3Du.ltrans6.ltrans.o
                0x00000000000dea40                mChildCount.lto_priv.152
 .bss.mCompSize.lto_priv.145
                0x00000000000dea48        0x4 /tmp/ccfdZ3Du.ltrans6.ltrans.o
                0x00000000000dea48                mCompSize.lto_priv.145
 .bss.mCrc.lto_priv.159
                0x00000000000dea4c        0x4 /tmp/ccfdZ3Du.ltrans6.ltrans.o
                0x00000000000dea4c                mCrc.lto_priv.159
 .bss.mCrcTable.lto_priv.160
                0x00000000000dea50      0x200 /tmp/ccfdZ3Du.ltrans6.ltrans.o
                0x00000000000dea50                mCrcTable.lto_priv.160
 .bss.mDst.lto_priv.143
                0x00000000000dec50        0x8 /tmp/ccfdZ3Du.ltrans6.ltrans.o
                0x00000000000dec50                mDst.lto_priv.143
 .bss.mDstUpperLimit.lto_priv.144
                0x00000000000dec58        0x8 /tmp/ccfdZ3Du.ltrans6.ltrans.o
                0x00000000000dec58                mDstUpperLimit.lto_priv.144
 .bss.mLevel.lto_priv.154
                0x00000000000dec60        0x8 /tmp/ccfdZ3Du.ltrans6.ltrans.o
                0x00000000000dec60                mLevel.lto_priv.154
 .bss.mMatchLen.lto_priv.161
                0x00000000000dec68        0x4 /tmp/ccfdZ3Du.ltrans6.ltrans.o
                0x00000000000dec68                mMatchLen.lto_priv.161
 .bss.mMatchPos.lto_priv.162
                0x00000000000dec6c        0x2 /tmp/ccfdZ3Du.ltrans6.ltrans.o
                0x00000000000dec6c                mMatchPos.lto_priv.162
 *fill*         0x00000000000dec6e        0x2 
 .bss.mNext.lto_priv.151
                0x00000000000dec70        0x8 /tmp/ccfdZ3Du.ltrans6.ltrans.o
                0x00000000000dec70                mNext.lto_priv.151
 .bss.mOrigSize.lto_priv.158
                0x00000000000dec78        0x4 /tmp/ccfdZ3Du.ltrans6.ltrans.o
                0x00000000000dec78                mOrigSize.lto_priv.158
 .bss.mOutputMask
                0x00000000000dec7c        0x4 /tmp/ccfdZ3Du.ltrans6.ltrans.o
 .bss.mOutputPos
                0x00000000000dec80        0x4 /tmp/ccfdZ3Du.ltrans6.ltrans.o
 .bss.mPFreq    0x00000000000dec84       0x36 /tmp/ccfdZ3Du.ltrans6.ltrans.o
 .bss.mPTCode   0x00000000000decba       0x26 /tmp/ccfdZ3Du.ltrans6.ltrans.o
 .bss.mPTLen    0x00000000000dece0       0x13 /tmp/ccfdZ3Du.ltrans6.ltrans.o
 *fill*         0x00000000000decf3        0x5 
 .bss.mParent.lto_priv.149
                0x00000000000decf8        0x8 /tmp/ccfdZ3Du.ltrans6.ltrans.o
                0x00000000000decf8                mParent.lto_priv.149
 .bss.mPos.lto_priv.147
                0x00000000000ded00        0x2 /tmp/ccfdZ3Du.ltrans6.ltrans.o
                0x00000000000ded00                mPos.lto_priv.147
 *fill*         0x00000000000ded02        0x6 
 .bss.mPosition.lto_priv.153
                0x00000000000ded08        0x8 /tmp/ccfdZ3Du.ltrans6.ltrans.o
                0x00000000000ded08                mPosition.lto_priv.153
 .bss.mPrev.lto_priv.150
                0x00000000000ded10        0x8 /tmp/ccfdZ3Du.ltrans6.ltrans.o
                0x00000000000ded10                mPrev.lto_priv.150
 .bss.mRemainder.lto_priv.146
                0x00000000000ded18        0x4 /tmp/ccfdZ3Du.ltrans6.ltrans.o
                0x00000000000ded18                mRemainder.lto_priv.146
 *fill*         0x00000000000ded1c        0x4 
 .bss.mSrc.lto_priv.156
                0x00000000000ded20        0x8 /tmp/ccfdZ3Du.ltrans6.ltrans.o
                0x00000000000ded20                mSrc.lto_priv.156
 .bss.mSrcUpperLimit.lto_priv.157
                0x00000000000ded28        0x8 /tmp/ccfdZ3Du.ltrans6.ltrans.o
                0x00000000000ded28                mSrcUpperLimit.lto_priv.157
 .bss.mSubBitBuf.lto_priv.142
                0x00000000000ded30        0x4 /tmp/ccfdZ3Du.ltrans6.ltrans.o
                0x00000000000ded30                mSubBitBuf.lto_priv.142
 .bss.mTFreq    0x00000000000ded34       0x4a /tmp/ccfdZ3Du.ltrans6.ltrans.o
 *fill*         0x00000000000ded7e        0x2 
 .bss.mText.lto_priv.148
                0x00000000000ded80        0x8 /tmp/ccfdZ3Du.ltrans6.ltrans.o
                0x00000000000ded80                mText.lto_priv.148
 .bss.FileFunctionMap
                0x00000000000ded88       0x50 /tmp/ccfdZ3Du.ltrans7.ltrans.o
                0x00000000000ded88                FileFunctionMap
 .bss.HBufferImage
                0x00000000000dedd8       0x78 /tmp/ccfdZ3Du.ltrans7.ltrans.o
                0x00000000000dedd8                HBufferImage
 .bss.HFileImage
                0x00000000000dee50       0x18 /tmp/ccfdZ3Du.ltrans7.ltrans.o
                0x00000000000dee50                HFileImage
 .bss.HMemImage
                0x00000000000dee68       0x18 /tmp/ccfdZ3Du.ltrans7.ltrans.o
                0x00000000000dee68                HMemImage
 .bss.StatusBarNeedRefresh
                0x00000000000dee80        0x1 /tmp/ccfdZ3Du.ltrans7.ltrans.o
                0x00000000000dee80                StatusBarNeedRefresh
 *fill*         0x00000000000dee81        0x7 
 .bss.StatusString
                0x00000000000dee88        0x8 /tmp/ccfdZ3Du.ltrans7.ltrans.o
                0x00000000000dee88                StatusString
 .bss.StatusStringChanged
                0x00000000000dee90        0x1 /tmp/ccfdZ3Du.ltrans7.ltrans.o
                0x00000000000dee90                StatusStringChanged
 *fill*         0x00000000000dee91        0x7 
 .bss.gBS       0x00000000000dee98        0x8 /tmp/ccfdZ3Du.ltrans7.ltrans.o
                0x00000000000dee98                gBS
 .bss.gEfiShellParametersProtocol
                0x00000000000deea0        0x8 /tmp/ccfdZ3Du.ltrans7.ltrans.o
                0x00000000000deea0                gEfiShellParametersProtocol
 .bss.gEfiShellProtocol
                0x00000000000deea8        0x8 /tmp/ccfdZ3Du.ltrans7.ltrans.o
                0x00000000000deea8                gEfiShellProtocol
 .bss.gHiiDatabase
                0x00000000000deeb0        0x8 /tmp/ccfdZ3Du.ltrans7.ltrans.o
                0x00000000000deeb0                gHiiDatabase
 .bss.gImageHandle
                0x00000000000deeb8        0x8 /tmp/ccfdZ3Du.ltrans7.ltrans.o
                0x00000000000deeb8                gImageHandle
 .bss.gRT       0x00000000000deec0        0x8 /tmp/ccfdZ3Du.ltrans7.ltrans.o
                0x00000000000deec0                gRT
 .bss.gST       0x00000000000deec8        0x8 /tmp/ccfdZ3Du.ltrans7.ltrans.o
                0x00000000000deec8                gST
 .bss.gShellBcfgHiiHandle.lto_priv.206
                0x00000000000deed0        0x8 /tmp/ccfdZ3Du.ltrans7.ltrans.o
                0x00000000000deed0                gShellBcfgHiiHandle.lto_priv.206
 .bss.gShellDebug1HiiHandle
                0x00000000000deed8        0x8 /tmp/ccfdZ3Du.ltrans7.ltrans.o
                0x00000000000deed8                gShellDebug1HiiHandle
 .bss.gShellMapList
                0x00000000000deee0       0x30 /tmp/ccfdZ3Du.ltrans7.ltrans.o
                0x00000000000deee0                gShellMapList
 .bss.gUnicodeCollation
                0x00000000000def10        0x8 /tmp/ccfdZ3Du.ltrans7.ltrans.o
                0x00000000000def10                gUnicodeCollation
 .bss.mCommandList.lto_priv.190
                0x00000000000def18       0x40 /tmp/ccfdZ3Du.ltrans7.ltrans.o
                0x00000000000def18                mCommandList.lto_priv.190
 .bss.mEchoState.lto_priv.191
                0x00000000000def58        0x1 /tmp/ccfdZ3Du.ltrans7.ltrans.o
                0x00000000000def58                mEchoState.lto_priv.191
 *fill*         0x00000000000def59        0x7 
 .bss.mEfiShellEnvironment2
                0x00000000000def60        0x8 /tmp/ccfdZ3Du.ltrans7.ltrans.o
                0x00000000000def60                mEfiShellEnvironment2
 .bss.mEfiShellEnvironment2Handle
                0x00000000000def68        0x8 /tmp/ccfdZ3Du.ltrans7.ltrans.o
                0x00000000000def68                mEfiShellEnvironment2Handle
 .bss.mEfiShellInterface
                0x00000000000def70        0x8 /tmp/ccfdZ3Du.ltrans7.ltrans.o
                0x00000000000def70                mEfiShellInterface
 .bss.mExitCode.lto_priv.200
                0x00000000000def78        0x8 /tmp/ccfdZ3Du.ltrans7.ltrans.o
                0x00000000000def78                mExitCode.lto_priv.200
 .bss.mExitRequested.lto_priv.198
                0x00000000000def80        0x1 /tmp/ccfdZ3Du.ltrans7.ltrans.o
                0x00000000000def80                mExitRequested.lto_priv.198
 .bss.mExitScript.lto_priv.199
                0x00000000000def81        0x1 /tmp/ccfdZ3Du.ltrans7.ltrans.o
                0x00000000000def81                mExitScript.lto_priv.199
 *fill*         0x00000000000def82        0x6 
 .bss.mShellManDriverHandle
                0x00000000000def88        0x8 /tmp/ccfdZ3Du.ltrans7.ltrans.o
 .bss.mShellManHiiHandle
                0x00000000000def90        0x8 /tmp/ccfdZ3Du.ltrans7.ltrans.o
 .bss.m_Color   0x00000000000def98       0x10 /tmp/ccfdZ3Du.ltrans7.ltrans.o
                0x00000000000def98                m_Color
 .bss.m_Initialized
                0x00000000000defa8        0x1 /tmp/ccfdZ3Du.ltrans7.ltrans.o
                0x00000000000defa8                m_Initialized
 *fill*         0x00000000000defa9        0x7 
 .bss.m_MaxPosition
                0x00000000000defb0       0x10 /tmp/ccfdZ3Du.ltrans7.ltrans.o
                0x00000000000defb0                m_MaxPosition
 .bss.m_Position
                0x00000000000defc0       0x10 /tmp/ccfdZ3Du.ltrans7.ltrans.o
                0x00000000000defc0                m_Position
 .bss.AsciiRedirection
                0x00000000000defd0        0x1 /tmp/ccfdZ3Du.ltrans8.ltrans.o
                0x00000000000defd0                AsciiRedirection
 *fill*         0x00000000000defd1        0x7 
 .bss.gShellEnvVarList
                0x00000000000defd8       0x28 /tmp/ccfdZ3Du.ltrans8.ltrans.o
                0x00000000000defd8                gShellEnvVarList
 .bss.gHiiString
                0x00000000000df000        0x8 /tmp/ccfdZ3Du.ltrans9.ltrans.o
                0x00000000000df000                gHiiString
 .bss.mUnicodeCollation
                0x00000000000df008        0x8 /tmp/ccfdZ3Du.ltrans9.ltrans.o
 .bss.mUnicodeCollationProtocol
                0x00000000000df010        0x8 /tmp/ccfdZ3Du.ltrans9.ltrans.o
                0x00000000000df010                mUnicodeCollationProtocol
 .bss.CheckConflict.13217
                0x00000000000df018        0x4 /tmp/ccfdZ3Du.ltrans10.ltrans.o
 .bss.CheckDuplicate.13216
                0x00000000000df01c        0x4 /tmp/ccfdZ3Du.ltrans10.ltrans.o
 .bss.gShellNetwork1HiiHandle
                0x00000000000df020        0x8 /tmp/ccfdZ3Du.ltrans10.ltrans.o
                0x00000000000df020                gShellNetwork1HiiHandle
 .bss.mDstString
                0x00000000000df028        0x8 /tmp/ccfdZ3Du.ltrans10.ltrans.o
 .bss.mSrcString
                0x00000000000df030        0x8 /tmp/ccfdZ3Du.ltrans10.ltrans.o
 .bss.mZeroIp4Addr
                0x00000000000df038        0x4 /tmp/ccfdZ3Du.ltrans10.ltrans.o

.igot.plt       0x00000000000df040        0x0
 .igot.plt      0x00000000000df040        0x0 /home/vsts/work/1/edk2/Build/Lumia950XL-AARCH64/DEBUG_GCC5/AARCH64/ArmPkg/Library/ArmLib/ArmBaseLib/OUTPUT/ArmBaseLib.lib(AArch64Support.obj)

.eh_frame
 *(.eh_frame)

.rela           0x00000000000df040        0x0
 *(.rela .rela.*)
 .rela.iplt     0x00000000000df040        0x0 /home/vsts/work/1/edk2/Build/Lumia950XL-AARCH64/DEBUG_GCC5/AARCH64/ArmPkg/Library/ArmLib/ArmBaseLib/OUTPUT/ArmBaseLib.lib(AArch64Support.obj)

.hii
 *(.hii)

.build-id       0x00000000000df03c       0x24
 *(.note.gnu.build-id)
 .note.gnu.build-id
                0x00000000000df03c       0x24 /home/vsts/work/1/edk2/ArmPkg/Library/GccLto/liblto-aarch64.a

/DISCARD/
 *(.note.GNU-stack)
 *(.gnu_debuglink)
 *(.interp)
 *(.dynsym)
 *(.dynstr)
 *(.dynamic)
 *(.hash .gnu.hash)
 *(.comment)
 *(COMMON)
                0x0000000000000228                PECOFF_HEADER_SIZE = 0x228
OUTPUT(/home/vsts/work/1/edk2/Build/Lumia950XL-AARCH64/DEBUG_GCC5/AARCH64/ShellPkg/Application/Shell/Shell/DEBUG/Shell.dll elf64-littleaarch64)

.debug_info     0x0000000000000000    0xbd5f2
 .debug_info    0x0000000000000000    0x15ecf /tmp/ccfdZ3Du.ltrans0.ltrans.o
 .debug_info    0x0000000000015ecf    0x17568 /tmp/ccfdZ3Du.ltrans1.ltrans.o
 .debug_info    0x000000000002d437    0x11bdf /tmp/ccfdZ3Du.ltrans2.ltrans.o
 .debug_info    0x000000000003f016    0x130c6 /tmp/ccfdZ3Du.ltrans3.ltrans.o
 .debug_info    0x00000000000520dc     0xf391 /tmp/ccfdZ3Du.ltrans4.ltrans.o
 .debug_info    0x000000000006146d     0xf7b6 /tmp/ccfdZ3Du.ltrans5.ltrans.o
 .debug_info    0x0000000000070c23    0x122ce /tmp/ccfdZ3Du.ltrans6.ltrans.o
 .debug_info    0x0000000000082ef1    0x12b54 /tmp/ccfdZ3Du.ltrans7.ltrans.o
 .debug_info    0x0000000000095a45     0xcfd6 /tmp/ccfdZ3Du.ltrans8.ltrans.o
 .debug_info    0x00000000000a2a1b    0x127a9 /tmp/ccfdZ3Du.ltrans9.ltrans.o
 .debug_info    0x00000000000b51c4     0x842e /tmp/ccfdZ3Du.ltrans10.ltrans.o

.debug_abbrev   0x0000000000000000     0x45df
 .debug_abbrev  0x0000000000000000      0x744 /tmp/ccfdZ3Du.ltrans0.ltrans.o
 .debug_abbrev  0x0000000000000744      0x763 /tmp/ccfdZ3Du.ltrans1.ltrans.o
 .debug_abbrev  0x0000000000000ea7      0x5ba /tmp/ccfdZ3Du.ltrans2.ltrans.o
 .debug_abbrev  0x0000000000001461      0x68f /tmp/ccfdZ3Du.ltrans3.ltrans.o
 .debug_abbrev  0x0000000000001af0      0x516 /tmp/ccfdZ3Du.ltrans4.ltrans.o
 .debug_abbrev  0x0000000000002006      0x679 /tmp/ccfdZ3Du.ltrans5.ltrans.o
 .debug_abbrev  0x000000000000267f      0x479 /tmp/ccfdZ3Du.ltrans6.ltrans.o
 .debug_abbrev  0x0000000000002af8      0x6c5 /tmp/ccfdZ3Du.ltrans7.ltrans.o
 .debug_abbrev  0x00000000000031bd      0x676 /tmp/ccfdZ3Du.ltrans8.ltrans.o
 .debug_abbrev  0x0000000000003833      0x6ff /tmp/ccfdZ3Du.ltrans9.ltrans.o
 .debug_abbrev  0x0000000000003f32      0x6ad /tmp/ccfdZ3Du.ltrans10.ltrans.o

.debug_loc      0x0000000000000000    0x89d1a
 .debug_loc     0x0000000000000000    0x1043f /tmp/ccfdZ3Du.ltrans0.ltrans.o
 .debug_loc     0x000000000001043f     0xfd9d /tmp/ccfdZ3Du.ltrans1.ltrans.o
 .debug_loc     0x00000000000201dc     0xd25e /tmp/ccfdZ3Du.ltrans2.ltrans.o
 .debug_loc     0x000000000002d43a     0xb4fd /tmp/ccfdZ3Du.ltrans3.ltrans.o
 .debug_loc     0x0000000000038937     0xbe43 /tmp/ccfdZ3Du.ltrans4.ltrans.o
 .debug_loc     0x000000000004477a     0xdcc8 /tmp/ccfdZ3Du.ltrans5.ltrans.o
 .debug_loc     0x0000000000052442     0x5ef8 /tmp/ccfdZ3Du.ltrans6.ltrans.o
 .debug_loc     0x000000000005833a     0xf62c /tmp/ccfdZ3Du.ltrans7.ltrans.o
 .debug_loc     0x0000000000067966     0xdb27 /tmp/ccfdZ3Du.ltrans8.ltrans.o
 .debug_loc     0x000000000007548d     0xfe74 /tmp/ccfdZ3Du.ltrans9.ltrans.o
 .debug_loc     0x0000000000085301     0x4a19 /tmp/ccfdZ3Du.ltrans10.ltrans.o

.debug_aranges  0x0000000000000000     0x3730
 .debug_aranges
                0x0000000000000000      0x4d0 /tmp/ccfdZ3Du.ltrans0.ltrans.o
 .debug_aranges
                0x00000000000004d0      0x7a0 /tmp/ccfdZ3Du.ltrans1.ltrans.o
 .debug_aranges
                0x0000000000000c70      0x2d0 /tmp/ccfdZ3Du.ltrans2.ltrans.o
 .debug_aranges
                0x0000000000000f40      0x380 /tmp/ccfdZ3Du.ltrans3.ltrans.o
 .debug_aranges
                0x00000000000012c0      0x240 /tmp/ccfdZ3Du.ltrans4.ltrans.o
 .debug_aranges
                0x0000000000001500      0x400 /tmp/ccfdZ3Du.ltrans5.ltrans.o
 .debug_aranges
                0x0000000000001900       0xc0 /tmp/ccfdZ3Du.ltrans6.ltrans.o
 .debug_aranges
                0x00000000000019c0      0x430 /tmp/ccfdZ3Du.ltrans7.ltrans.o
 .debug_aranges
                0x0000000000001df0      0x840 /tmp/ccfdZ3Du.ltrans8.ltrans.o
 .debug_aranges
                0x0000000000002630      0xea0 /tmp/ccfdZ3Du.ltrans9.ltrans.o
 .debug_aranges
                0x00000000000034d0      0x260 /tmp/ccfdZ3Du.ltrans10.ltrans.o

.debug_ranges   0x0000000000000000     0xff60
 .debug_ranges  0x0000000000000000     0x1870 /tmp/ccfdZ3Du.ltrans0.ltrans.o
 .debug_ranges  0x0000000000001870     0x1150 /tmp/ccfdZ3Du.ltrans1.ltrans.o
 .debug_ranges  0x00000000000029c0     0x1030 /tmp/ccfdZ3Du.ltrans2.ltrans.o
 .debug_ranges  0x00000000000039f0     0x2010 /tmp/ccfdZ3Du.ltrans3.ltrans.o
 .debug_ranges  0x0000000000005a00     0x10c0 /tmp/ccfdZ3Du.ltrans4.ltrans.o
 .debug_ranges  0x0000000000006ac0     0x1af0 /tmp/ccfdZ3Du.ltrans5.ltrans.o
 .debug_ranges  0x00000000000085b0     0x2950 /tmp/ccfdZ3Du.ltrans6.ltrans.o
 .debug_ranges  0x000000000000af00     0x1740 /tmp/ccfdZ3Du.ltrans7.ltrans.o
 .debug_ranges  0x000000000000c640     0x1110 /tmp/ccfdZ3Du.ltrans8.ltrans.o
 .debug_ranges  0x000000000000d750     0x19b0 /tmp/ccfdZ3Du.ltrans9.ltrans.o
 .debug_ranges  0x000000000000f100      0xe60 /tmp/ccfdZ3Du.ltrans10.ltrans.o

.debug_line     0x0000000000000000    0x17aea
 .debug_line    0x0000000000000000     0x2690 /tmp/ccfdZ3Du.ltrans0.ltrans.o
 .debug_line    0x0000000000002690     0x2854 /tmp/ccfdZ3Du.ltrans1.ltrans.o
 .debug_line    0x0000000000004ee4     0x1ff9 /tmp/ccfdZ3Du.ltrans2.ltrans.o
 .debug_line    0x0000000000006edd     0x2912 /tmp/ccfdZ3Du.ltrans3.ltrans.o
 .debug_line    0x00000000000097ef     0x1c23 /tmp/ccfdZ3Du.ltrans4.ltrans.o
 .debug_line    0x000000000000b412     0x2824 /tmp/ccfdZ3Du.ltrans5.ltrans.o
 .debug_line    0x000000000000dc36     0x14fd /tmp/ccfdZ3Du.ltrans6.ltrans.o
 .debug_line    0x000000000000f133     0x2b0c /tmp/ccfdZ3Du.ltrans7.ltrans.o
 .debug_line    0x0000000000011c3f     0x1f44 /tmp/ccfdZ3Du.ltrans8.ltrans.o
 .debug_line    0x0000000000013b83     0x2e28 /tmp/ccfdZ3Du.ltrans9.ltrans.o
 .debug_line    0x00000000000169ab     0x113f /tmp/ccfdZ3Du.ltrans10.ltrans.o

.debug_str      0x0000000000000000    0x1e4cf
 .debug_str     0x0000000000000000     0x81ea /tmp/ccfdZ3Du.ltrans0.ltrans.o
                                       0x944c (size before relaxing)
 .debug_str     0x00000000000081ea     0x6843 /tmp/ccfdZ3Du.ltrans1.ltrans.o
                                       0x9baf (size before relaxing)
 .debug_str     0x000000000000ea2d     0x19bd /tmp/ccfdZ3Du.ltrans2.ltrans.o
                                       0x4d39 (size before relaxing)
 .debug_str     0x00000000000103ea     0x2812 /tmp/ccfdZ3Du.ltrans3.ltrans.o
                                       0x606f (size before relaxing)
 .debug_str     0x0000000000012bfc      0xdb2 /tmp/ccfdZ3Du.ltrans4.ltrans.o
                                       0x385b (size before relaxing)
 .debug_str     0x00000000000139ae     0x186a /tmp/ccfdZ3Du.ltrans5.ltrans.o
                                       0x4c4a (size before relaxing)
 .debug_str     0x0000000000015218     0x194a /tmp/ccfdZ3Du.ltrans6.ltrans.o
                                       0x4129 (size before relaxing)
 .debug_str     0x0000000000016b62     0x2c46 /tmp/ccfdZ3Du.ltrans7.ltrans.o
                                       0x6dc7 (size before relaxing)
 .debug_str     0x00000000000197a8     0x13df /tmp/ccfdZ3Du.ltrans8.ltrans.o
                                       0x41bd (size before relaxing)
 .debug_str     0x000000000001ab87     0x1e43 /tmp/ccfdZ3Du.ltrans9.ltrans.o
                                       0x57e8 (size before relaxing)
 .debug_str     0x000000000001c9ca     0x1b05 /tmp/ccfdZ3Du.ltrans10.ltrans.o
                                       0x370c (size before relaxing)

.debug_frame    0x0000000000000000     0xb998
 .debug_frame   0x0000000000000000     0x1150 /tmp/ccfdZ3Du.ltrans0.ltrans.o
 .debug_frame   0x0000000000001150     0x1c18 /tmp/ccfdZ3Du.ltrans1.ltrans.o
 .debug_frame   0x0000000000002d68      0xb48 /tmp/ccfdZ3Du.ltrans2.ltrans.o
 .debug_frame   0x00000000000038b0      0xcc0 /tmp/ccfdZ3Du.ltrans3.ltrans.o
 .debug_frame   0x0000000000004570      0x900 /tmp/ccfdZ3Du.ltrans4.ltrans.o
 .debug_frame   0x0000000000004e70      0xf90 /tmp/ccfdZ3Du.ltrans5.ltrans.o
 .debug_frame   0x0000000000005e00      0x280 /tmp/ccfdZ3Du.ltrans6.ltrans.o
 .debug_frame   0x0000000000006080      0xf10 /tmp/ccfdZ3Du.ltrans7.ltrans.o
 .debug_frame   0x0000000000006f90     0x19a8 /tmp/ccfdZ3Du.ltrans8.ltrans.o
 .debug_frame   0x0000000000008938     0x28e8 /tmp/ccfdZ3Du.ltrans9.ltrans.o
 .debug_frame   0x000000000000b220      0x778 /tmp/ccfdZ3Du.ltrans10.ltrans.o
