Archive member included to satisfy reference by file (symbol)

/home/vsts/work/1/edk2/Build/Lumia950XL-AARCH64/DEBUG_GCC5/AARCH64/ArmPkg/Library/CompilerIntrinsicsLib/CompilerIntrinsicsLib/OUTPUT/CompilerIntrinsicsLib.lib(memcpy.obj)
                              /home/vsts/work/1/edk2/ArmPkg/Library/GccLto/liblto-aarch64.a (memcpy)
/home/vsts/work/1/edk2/Build/Lumia950XL-AARCH64/DEBUG_GCC5/AARCH64/ArmPkg/Library/CompilerIntrinsicsLib/CompilerIntrinsicsLib/OUTPUT/CompilerIntrinsicsLib.lib(memset.obj)
                              /home/vsts/work/1/edk2/ArmPkg/Library/GccLto/liblto-aarch64.a (memset)
/home/vsts/work/1/edk2/Build/Lumia950XL-AARCH64/DEBUG_GCC5/AARCH64/MdePkg/Library/UefiApplicationEntryPoint/UefiApplicationEntryPoint/OUTPUT/UefiApplicationEntryPoint.lib(ApplicationEntryPoint.obj)
                              (_ModuleEntryPoint)
/home/vsts/work/1/edk2/Build/Lumia950XL-AARCH64/DEBUG_GCC5/AARCH64/Lumia950XLPkg/Application/BdsMenuApp/BdsMenuApp/OUTPUT/UiApp.lib(AutoGen.obj)
                              ApplicationEntryPoint.obj (symbol from plugin) (ProcessLibraryConstructorList)
/home/vsts/work/1/edk2/Build/Lumia950XL-AARCH64/DEBUG_GCC5/AARCH64/Lumia950XLPkg/Application/BdsMenuApp/BdsMenuApp/OUTPUT/UiApp.lib(BootApp.obj)
                              AutoGen.obj (symbol from plugin) (InitializeUserInterface)
/home/vsts/work/1/edk2/Build/Lumia950XL-AARCH64/DEBUG_GCC5/AARCH64/Lumia950XLPkg/Application/BdsMenuApp/BdsMenuApp/OUTPUT/UiApp.lib(Touch.obj)
                              BootApp.obj (symbol from plugin) (EfiTouchScreenInit)
/home/vsts/work/1/edk2/Build/Lumia950XL-AARCH64/DEBUG_GCC5/AARCH64/Lumia950XLPkg/Application/BdsMenuApp/BdsMenuApp/OUTPUT/UiApp.lib(GopBlt.obj)
                              BootApp.obj (symbol from plugin) (GopDisplayInit)
/home/vsts/work/1/edk2/Build/Lumia950XL-AARCH64/DEBUG_GCC5/AARCH64/Lumia950XLPkg/Application/BdsMenuApp/BdsMenuApp/OUTPUT/UiApp.lib(SystemInfo.obj)
                              BootApp.obj (symbol from plugin) (SystemInfoEntry)
/home/vsts/work/1/edk2/Build/Lumia950XL-AARCH64/DEBUG_GCC5/AARCH64/MdePkg/Library/BaseLib/BaseLib/OUTPUT/BaseLib.lib(MultU64x32.obj)
                              BootApp.obj (symbol from plugin) (MultU64x32)
/home/vsts/work/1/edk2/Build/Lumia950XL-AARCH64/DEBUG_GCC5/AARCH64/MdePkg/Library/BaseLib/BaseLib/OUTPUT/BaseLib.lib(SafeString.obj)
                              SystemInfo.obj (symbol from plugin) (UnicodeStrToAsciiStrS)
/home/vsts/work/1/edk2/Build/Lumia950XL-AARCH64/DEBUG_GCC5/AARCH64/MdePkg/Library/BaseLib/BaseLib/OUTPUT/BaseLib.lib(String.obj)
                              SafeString.obj (symbol from plugin) (InternalIsDecimalDigitCharacter)
/home/vsts/work/1/edk2/Build/Lumia950XL-AARCH64/DEBUG_GCC5/AARCH64/MdePkg/Library/BaseLib/BaseLib/OUTPUT/BaseLib.lib(Math64.obj)
                              MultU64x32.obj (symbol from plugin) (InternalMathMultU64x32)
/home/vsts/work/1/edk2/Build/Lumia950XL-AARCH64/DEBUG_GCC5/AARCH64/MdePkg/Library/BaseLib/BaseLib/OUTPUT/BaseLib.lib(SwapBytes32.obj)
                              SafeString.obj (symbol from plugin) (SwapBytes32)
/home/vsts/work/1/edk2/Build/Lumia950XL-AARCH64/DEBUG_GCC5/AARCH64/MdePkg/Library/BaseLib/BaseLib/OUTPUT/BaseLib.lib(SwapBytes16.obj)
                              SafeString.obj (symbol from plugin) (SwapBytes16)
/home/vsts/work/1/edk2/Build/Lumia950XL-AARCH64/DEBUG_GCC5/AARCH64/MdePkg/Library/BaseLib/BaseLib/OUTPUT/BaseLib.lib(RShiftU64.obj)
                              SafeString.obj (symbol from plugin) (RShiftU64)
/home/vsts/work/1/edk2/Build/Lumia950XL-AARCH64/DEBUG_GCC5/AARCH64/MdePkg/Library/BaseLib/BaseLib/OUTPUT/BaseLib.lib(LShiftU64.obj)
                              SafeString.obj (symbol from plugin) (LShiftU64)
/home/vsts/work/1/edk2/Build/Lumia950XL-AARCH64/DEBUG_GCC5/AARCH64/MdePkg/Library/BaseLib/BaseLib/OUTPUT/BaseLib.lib(DivU64x32.obj)
                              SafeString.obj (symbol from plugin) (DivU64x32)
/home/vsts/work/1/edk2/Build/Lumia950XL-AARCH64/DEBUG_GCC5/AARCH64/MdePkg/Library/BasePrintLib/BasePrintLib/OUTPUT/BasePrintLib.lib(PrintLib.obj)
                              SystemInfo.obj (symbol from plugin) (UnicodeSPrint)
/home/vsts/work/1/edk2/Build/Lumia950XL-AARCH64/DEBUG_GCC5/AARCH64/MdePkg/Library/BasePrintLib/BasePrintLib/OUTPUT/BasePrintLib.lib(PrintLibInternal.obj)
                              PrintLib.obj (symbol from plugin) (BasePrintLibConvertValueToString)
/home/vsts/work/1/edk2/Build/Lumia950XL-AARCH64/DEBUG_GCC5/AARCH64/MdePkg/Library/BaseDebugLibSerialPort/BaseDebugLibSerialPort/OUTPUT/BaseDebugLibSerialPort.lib(DebugLib.obj)
                              AutoGen.obj (symbol from plugin) (BaseDebugLibSerialPortConstructor)
/home/vsts/work/1/edk2/Build/Lumia950XL-AARCH64/DEBUG_GCC5/AARCH64/MdePkg/Library/UefiBootServicesTableLib/UefiBootServicesTableLib/OUTPUT/UefiBootServicesTableLib.lib(UefiBootServicesTableLib.obj)
                              AutoGen.obj (symbol from plugin) (UefiBootServicesTableLibConstructor)
/home/vsts/work/1/edk2/Build/Lumia950XL-AARCH64/DEBUG_GCC5/AARCH64/MdePkg/Library/UefiRuntimeServicesTableLib/UefiRuntimeServicesTableLib/OUTPUT/UefiRuntimeServicesTableLib.lib(UefiRuntimeServicesTableLib.obj)
                              AutoGen.obj (symbol from plugin) (UefiRuntimeServicesTableLibConstructor)
/home/vsts/work/1/edk2/Build/Lumia950XL-AARCH64/DEBUG_GCC5/AARCH64/MdePkg/Library/UefiLib/UefiLib/OUTPUT/UefiLib.lib(UefiLib.obj)
                              AutoGen.obj (symbol from plugin) (UefiLibConstructor)
/home/vsts/work/1/edk2/Build/Lumia950XL-AARCH64/DEBUG_GCC5/AARCH64/MdePkg/Library/DxeHobLib/DxeHobLib/OUTPUT/DxeHobLib.lib(HobLib.obj)
                              AutoGen.obj (symbol from plugin) (HobLibConstructor)
/home/vsts/work/1/edk2/Build/Lumia950XL-AARCH64/DEBUG_GCC5/AARCH64/MdeModulePkg/Library/UefiHiiServicesLib/UefiHiiServicesLib/OUTPUT/UefiHiiServicesLib.lib(UefiHiiServicesLib.obj)
                              AutoGen.obj (symbol from plugin) (UefiHiiServicesLibConstructor)
/home/vsts/work/1/edk2/Build/Lumia950XL-AARCH64/DEBUG_GCC5/AARCH64/MdePkg/Library/DxeServicesTableLib/DxeServicesTableLib/OUTPUT/DxeServicesTableLib.lib(DxeServicesTableLib.obj)
                              AutoGen.obj (symbol from plugin) (DxeServicesTableLibConstructor)
/home/vsts/work/1/edk2/Build/Lumia950XL-AARCH64/DEBUG_GCC5/AARCH64/MdeModulePkg/Library/DxeReportStatusCodeLib/DxeReportStatusCodeLib/OUTPUT/DxeReportStatusCodeLib.lib(ReportStatusCodeLib.obj)
                              BootApp.obj (symbol from plugin) (ReportProgressCodeEnabled)
/home/vsts/work/1/edk2/Build/Lumia950XL-AARCH64/DEBUG_GCC5/AARCH64/ArmPkg/Library/ArmArchTimerLib/ArmArchTimerLib/OUTPUT/ArmArchTimerLib.lib(ArmArchTimerLib.obj)
                              AutoGen.obj (symbol from plugin) (TimerConstructor)
/home/vsts/work/1/edk2/Build/Lumia950XL-AARCH64/DEBUG_GCC5/AARCH64/MdeModulePkg/Library/UefiBootManagerLib/UefiBootManagerLib/OUTPUT/UefiBootManagerLib.lib(BmConnect.obj)
                              BootApp.obj (symbol from plugin) (EfiBootManagerConnectAll)
/home/vsts/work/1/edk2/Build/Lumia950XL-AARCH64/DEBUG_GCC5/AARCH64/MdeModulePkg/Library/UefiBootManagerLib/UefiBootManagerLib/OUTPUT/UefiBootManagerLib.lib(BmConsole.obj)
                              BmConnect.obj (symbol from plugin) (EfiBootManagerConnectAllDefaultConsoles)
/home/vsts/work/1/edk2/Build/Lumia950XL-AARCH64/DEBUG_GCC5/AARCH64/MdeModulePkg/Library/UefiBootManagerLib/UefiBootManagerLib/OUTPUT/UefiBootManagerLib.lib(BmBoot.obj)
                              BootApp.obj (symbol from plugin) (EfiBootManagerRefreshAllBootOption)
/home/vsts/work/1/edk2/Build/Lumia950XL-AARCH64/DEBUG_GCC5/AARCH64/MdeModulePkg/Library/UefiBootManagerLib/UefiBootManagerLib/OUTPUT/UefiBootManagerLib.lib(BmBootDescription.obj)
                              BmBoot.obj (symbol from plugin) (BmGetBootDescription)
/home/vsts/work/1/edk2/Build/Lumia950XL-AARCH64/DEBUG_GCC5/AARCH64/MdeModulePkg/Library/UefiBootManagerLib/UefiBootManagerLib/OUTPUT/UefiBootManagerLib.lib(BmLoadOption.obj)
                              BmBoot.obj (symbol from plugin) (mBmLoadOptionName)
/home/vsts/work/1/edk2/Build/Lumia950XL-AARCH64/DEBUG_GCC5/AARCH64/MdeModulePkg/Library/UefiBootManagerLib/UefiBootManagerLib/OUTPUT/UefiBootManagerLib.lib(BmHotkey.obj)
                              BmBoot.obj (symbol from plugin) (BmStopHotkeyService)
/home/vsts/work/1/edk2/Build/Lumia950XL-AARCH64/DEBUG_GCC5/AARCH64/MdeModulePkg/Library/UefiBootManagerLib/UefiBootManagerLib/OUTPUT/UefiBootManagerLib.lib(BmDriverHealth.obj)
                              BmBoot.obj (symbol from plugin) (BmRepairAllControllers)
/home/vsts/work/1/edk2/Build/Lumia950XL-AARCH64/DEBUG_GCC5/AARCH64/MdeModulePkg/Library/UefiBootManagerLib/UefiBootManagerLib/OUTPUT/UefiBootManagerLib.lib(BmMisc.obj)
                              BmConsole.obj (symbol from plugin) (BmDelPartMatchInstance)
/home/vsts/work/1/edk2/Build/Lumia950XL-AARCH64/DEBUG_GCC5/AARCH64/MdeModulePkg/Library/FileExplorerLib/FileExplorerLib/OUTPUT/FileExplorerLib.lib(FileExplorer.obj)
                              AutoGen.obj (symbol from plugin) (FileExplorerLibConstructor)
/home/vsts/work/1/edk2/Build/Lumia950XL-AARCH64/DEBUG_GCC5/AARCH64/MdeModulePkg/Library/FileExplorerLib/FileExplorerLib/OUTPUT/FileExplorerLib.lib(AutoGen.obj)
                              FileExplorer.obj (symbol from plugin) (FileExplorerLibStrings)
/home/vsts/work/1/edk2/Build/Lumia950XL-AARCH64/DEBUG_GCC5/AARCH64/MdeModulePkg/Library/FileExplorerLib/FileExplorerLib/OUTPUT/FileExplorerLib.lib(FileExplorerVfr.obj)
                              FileExplorer.obj (symbol from plugin) (FileExplorerVfrBin)
/home/vsts/work/1/edk2/Build/Lumia950XL-AARCH64/DEBUG_GCC5/AARCH64/Lumia950XLPkg/Library/LittleVglLib/LittleVglLib/OUTPUT/LittleVglLib.lib(lv_obj.obj)
                              BootApp.obj (symbol from plugin) (lv_obj_set_width)
/home/vsts/work/1/edk2/Build/Lumia950XL-AARCH64/DEBUG_GCC5/AARCH64/Lumia950XLPkg/Library/LittleVglLib/LittleVglLib/OUTPUT/LittleVglLib.lib(lv_refr.obj)
                              lv_obj.obj (symbol from plugin) (lv_refr_init)
/home/vsts/work/1/edk2/Build/Lumia950XL-AARCH64/DEBUG_GCC5/AARCH64/Lumia950XLPkg/Library/LittleVglLib/LittleVglLib/OUTPUT/LittleVglLib.lib(lv_style.obj)
                              lv_obj.obj (symbol from plugin) (lv_style_init)
/home/vsts/work/1/edk2/Build/Lumia950XL-AARCH64/DEBUG_GCC5/AARCH64/Lumia950XLPkg/Library/LittleVglLib/LittleVglLib/OUTPUT/LittleVglLib.lib(lv_vdb.obj)
                              lv_refr.obj (symbol from plugin) (lv_vdb_get)
/home/vsts/work/1/edk2/Build/Lumia950XL-AARCH64/DEBUG_GCC5/AARCH64/Lumia950XLPkg/Library/LittleVglLib/LittleVglLib/OUTPUT/LittleVglLib.lib(lv_draw_rect.obj)
                              lv_obj.obj (symbol from plugin) (lv_draw_rect)
/home/vsts/work/1/edk2/Build/Lumia950XL-AARCH64/DEBUG_GCC5/AARCH64/Lumia950XLPkg/Library/LittleVglLib/LittleVglLib/OUTPUT/LittleVglLib.lib(lv_font_dejavu_20.obj)
                              BootApp.obj (symbol from plugin) (lv_font_dejavu_20)
/home/vsts/work/1/edk2/Build/Lumia950XL-AARCH64/DEBUG_GCC5/AARCH64/Lumia950XLPkg/Library/LittleVglLib/LittleVglLib/OUTPUT/LittleVglLib.lib(lv_font_dejavu_40.obj)
                              BootApp.obj (symbol from plugin) (lv_font_dejavu_40)
/home/vsts/work/1/edk2/Build/Lumia950XL-AARCH64/DEBUG_GCC5/AARCH64/Lumia950XLPkg/Library/LittleVglLib/LittleVglLib/OUTPUT/LittleVglLib.lib(lv_hal_disp.obj)
                              GopBlt.obj (symbol from plugin) (lv_disp_drv_init)
/home/vsts/work/1/edk2/Build/Lumia950XL-AARCH64/DEBUG_GCC5/AARCH64/Lumia950XLPkg/Library/LittleVglLib/LittleVglLib/OUTPUT/LittleVglLib.lib(lv_hal_indev.obj)
                              BootApp.obj (symbol from plugin) (lv_indev_drv_init)
/home/vsts/work/1/edk2/Build/Lumia950XL-AARCH64/DEBUG_GCC5/AARCH64/Lumia950XLPkg/Library/LittleVglLib/LittleVglLib/OUTPUT/LittleVglLib.lib(lv_hal_tick.obj)
                              BootApp.obj (symbol from plugin) (lv_tick_inc)
/home/vsts/work/1/edk2/Build/Lumia950XL-AARCH64/DEBUG_GCC5/AARCH64/Lumia950XLPkg/Library/LittleVglLib/LittleVglLib/OUTPUT/LittleVglLib.lib(lv_font.obj)
                              lv_obj.obj (symbol from plugin) (lv_font_init)
/home/vsts/work/1/edk2/Build/Lumia950XL-AARCH64/DEBUG_GCC5/AARCH64/Lumia950XLPkg/Library/LittleVglLib/LittleVglLib/OUTPUT/LittleVglLib.lib(lv_circ.obj)
                              lv_draw_rect.obj (symbol from plugin) (lv_circ_init)
/home/vsts/work/1/edk2/Build/Lumia950XL-AARCH64/DEBUG_GCC5/AARCH64/Lumia950XLPkg/Library/LittleVglLib/LittleVglLib/OUTPUT/LittleVglLib.lib(lv_area.obj)
                              lv_draw_rect.obj (symbol from plugin) (lv_area_set)
/home/vsts/work/1/edk2/Build/Lumia950XL-AARCH64/DEBUG_GCC5/AARCH64/Lumia950XLPkg/Library/LittleVglLib/LittleVglLib/OUTPUT/LittleVglLib.lib(lv_task.obj)
                              lv_obj.obj (symbol from plugin) (lv_task_init)
/home/vsts/work/1/edk2/Build/Lumia950XL-AARCH64/DEBUG_GCC5/AARCH64/Lumia950XLPkg/Library/LittleVglLib/LittleVglLib/OUTPUT/LittleVglLib.lib(lv_fs.obj)
                              lv_obj.obj (symbol from plugin) (lv_fs_init)
/home/vsts/work/1/edk2/Build/Lumia950XL-AARCH64/DEBUG_GCC5/AARCH64/Lumia950XLPkg/Library/LittleVglLib/LittleVglLib/OUTPUT/LittleVglLib.lib(lv_anim.obj)
                              lv_obj.obj (symbol from plugin) (lv_anim_init)
/home/vsts/work/1/edk2/Build/Lumia950XL-AARCH64/DEBUG_GCC5/AARCH64/Lumia950XLPkg/Library/LittleVglLib/LittleVglLib/OUTPUT/LittleVglLib.lib(lv_mem.obj)
                              lv_obj.obj (symbol from plugin) (lv_mem_init)
/home/vsts/work/1/edk2/Build/Lumia950XL-AARCH64/DEBUG_GCC5/AARCH64/Lumia950XLPkg/Library/LittleVglLib/LittleVglLib/OUTPUT/LittleVglLib.lib(lv_ll.obj)
                              lv_obj.obj (symbol from plugin) (lv_ll_init)
/home/vsts/work/1/edk2/Build/Lumia950XL-AARCH64/DEBUG_GCC5/AARCH64/Lumia950XLPkg/Library/LittleVglLib/LittleVglLib/OUTPUT/LittleVglLib.lib(lv_ufs.obj)
                              lv_obj.obj (symbol from plugin) (lv_ufs_init)
/home/vsts/work/1/edk2/Build/Lumia950XL-AARCH64/DEBUG_GCC5/AARCH64/Lumia950XLPkg/Library/LittleVglLib/LittleVglLib/OUTPUT/LittleVglLib.lib(lv_math.obj)
                              lv_anim.obj (symbol from plugin) (lv_bezier3)
/home/vsts/work/1/edk2/Build/Lumia950XL-AARCH64/DEBUG_GCC5/AARCH64/Lumia950XLPkg/Library/LittleVglLib/LittleVglLib/OUTPUT/LittleVglLib.lib(lv_log.obj)
                              lv_obj.obj (symbol from plugin) (lv_log_add)
/home/vsts/work/1/edk2/Build/Lumia950XL-AARCH64/DEBUG_GCC5/AARCH64/Lumia950XLPkg/Library/LittleVglLib/LittleVglLib/OUTPUT/LittleVglLib.lib(lv_tabview.obj)
                              BootApp.obj (symbol from plugin) (lv_tabview_add_tab)
/home/vsts/work/1/edk2/Build/Lumia950XL-AARCH64/DEBUG_GCC5/AARCH64/Lumia950XLPkg/Library/LittleVglLib/LittleVglLib/OUTPUT/LittleVglLib.lib(lv_label.obj)
                              BootApp.obj (symbol from plugin) (lv_label_set_align)
/home/vsts/work/1/edk2/Build/Lumia950XL-AARCH64/DEBUG_GCC5/AARCH64/Lumia950XLPkg/Library/LittleVglLib/LittleVglLib/OUTPUT/LittleVglLib.lib(lv_btnm.obj)
                              lv_tabview.obj (symbol from plugin) (lv_btnm_set_action)
/home/vsts/work/1/edk2/Build/Lumia950XL-AARCH64/DEBUG_GCC5/AARCH64/Lumia950XLPkg/Library/LittleVglLib/LittleVglLib/OUTPUT/LittleVglLib.lib(lv_cont.obj)
                              lv_tabview.obj (symbol from plugin) (lv_cont_create)
/home/vsts/work/1/edk2/Build/Lumia950XL-AARCH64/DEBUG_GCC5/AARCH64/Lumia950XLPkg/Library/LittleVglLib/LittleVglLib/OUTPUT/LittleVglLib.lib(lv_page.obj)
                              lv_tabview.obj (symbol from plugin) (lv_page_set_sb_mode)
/home/vsts/work/1/edk2/Build/Lumia950XL-AARCH64/DEBUG_GCC5/AARCH64/Lumia950XLPkg/Library/LittleVglLib/LittleVglLib/OUTPUT/LittleVglLib.lib(lv_win.obj)
                              BootApp.obj (symbol from plugin) (lv_win_add_btn)
/home/vsts/work/1/edk2/Build/Lumia950XL-AARCH64/DEBUG_GCC5/AARCH64/Lumia950XLPkg/Library/LittleVglLib/LittleVglLib/OUTPUT/LittleVglLib.lib(lv_theme.obj)
                              BootApp.obj (symbol from plugin) (lv_theme_set_current)
/home/vsts/work/1/edk2/Build/Lumia950XL-AARCH64/DEBUG_GCC5/AARCH64/Lumia950XLPkg/Library/LittleVglLib/LittleVglLib/OUTPUT/LittleVglLib.lib(lv_theme_material.obj)
                              BootApp.obj (symbol from plugin) (lv_theme_material_init)
/home/vsts/work/1/edk2/Build/Lumia950XL-AARCH64/DEBUG_GCC5/AARCH64/Lumia950XLPkg/Library/LittleVglLib/LittleVglLib/OUTPUT/LittleVglLib.lib(lv_group.obj)
                              lv_obj.obj (symbol from plugin) (lv_group_add_obj)
/home/vsts/work/1/edk2/Build/Lumia950XL-AARCH64/DEBUG_GCC5/AARCH64/Lumia950XLPkg/Library/LittleVglLib/LittleVglLib/OUTPUT/LittleVglLib.lib(lv_indev.obj)
                              lv_obj.obj (symbol from plugin) (lv_indev_init)
/home/vsts/work/1/edk2/Build/Lumia950XL-AARCH64/DEBUG_GCC5/AARCH64/Lumia950XLPkg/Library/LittleVglLib/LittleVglLib/OUTPUT/LittleVglLib.lib(lv_draw.obj)
                              lv_draw_rect.obj (symbol from plugin) (lv_draw_aa_get_opa)
/home/vsts/work/1/edk2/Build/Lumia950XL-AARCH64/DEBUG_GCC5/AARCH64/Lumia950XLPkg/Library/LittleVglLib/LittleVglLib/OUTPUT/LittleVglLib.lib(lv_draw_label.obj)
                              lv_label.obj (symbol from plugin) (lv_draw_label)
/home/vsts/work/1/edk2/Build/Lumia950XL-AARCH64/DEBUG_GCC5/AARCH64/Lumia950XLPkg/Library/LittleVglLib/LittleVglLib/OUTPUT/LittleVglLib.lib(lv_font_builtin.obj)
                              lv_font.obj (symbol from plugin) (lv_font_builtin_init)
/home/vsts/work/1/edk2/Build/Lumia950XL-AARCH64/DEBUG_GCC5/AARCH64/Lumia950XLPkg/Library/LittleVglLib/LittleVglLib/OUTPUT/LittleVglLib.lib(lv_font_dejavu_10.obj)
                              lv_font_builtin.obj (symbol from plugin) (lv_font_dejavu_10)
/home/vsts/work/1/edk2/Build/Lumia950XL-AARCH64/DEBUG_GCC5/AARCH64/Lumia950XLPkg/Library/LittleVglLib/LittleVglLib/OUTPUT/LittleVglLib.lib(lv_font_dejavu_30.obj)
                              lv_font_builtin.obj (symbol from plugin) (lv_font_dejavu_30)
/home/vsts/work/1/edk2/Build/Lumia950XL-AARCH64/DEBUG_GCC5/AARCH64/Lumia950XLPkg/Library/LittleVglLib/LittleVglLib/OUTPUT/LittleVglLib.lib(lv_font_dejavu_10_cyrillic.obj)
                              lv_font_builtin.obj (symbol from plugin) (lv_font_dejavu_10_cyrillic)
/home/vsts/work/1/edk2/Build/Lumia950XL-AARCH64/DEBUG_GCC5/AARCH64/Lumia950XLPkg/Library/LittleVglLib/LittleVglLib/OUTPUT/LittleVglLib.lib(lv_font_dejavu_20_cyrillic.obj)
                              lv_font_builtin.obj (symbol from plugin) (lv_font_dejavu_20_cyrillic)
/home/vsts/work/1/edk2/Build/Lumia950XL-AARCH64/DEBUG_GCC5/AARCH64/Lumia950XLPkg/Library/LittleVglLib/LittleVglLib/OUTPUT/LittleVglLib.lib(lv_font_dejavu_30_cyrillic.obj)
                              lv_font_builtin.obj (symbol from plugin) (lv_font_dejavu_30_cyrillic)
/home/vsts/work/1/edk2/Build/Lumia950XL-AARCH64/DEBUG_GCC5/AARCH64/Lumia950XLPkg/Library/LittleVglLib/LittleVglLib/OUTPUT/LittleVglLib.lib(lv_font_dejavu_40_cyrillic.obj)
                              lv_font_builtin.obj (symbol from plugin) (lv_font_dejavu_40_cyrillic)
/home/vsts/work/1/edk2/Build/Lumia950XL-AARCH64/DEBUG_GCC5/AARCH64/Lumia950XLPkg/Library/LittleVglLib/LittleVglLib/OUTPUT/LittleVglLib.lib(lv_font_dejavu_10_latin_sup.obj)
                              lv_font_builtin.obj (symbol from plugin) (lv_font_dejavu_10_latin_sup)
/home/vsts/work/1/edk2/Build/Lumia950XL-AARCH64/DEBUG_GCC5/AARCH64/Lumia950XLPkg/Library/LittleVglLib/LittleVglLib/OUTPUT/LittleVglLib.lib(lv_font_dejavu_20_latin_sup.obj)
                              lv_font_builtin.obj (symbol from plugin) (lv_font_dejavu_20_latin_sup)
/home/vsts/work/1/edk2/Build/Lumia950XL-AARCH64/DEBUG_GCC5/AARCH64/Lumia950XLPkg/Library/LittleVglLib/LittleVglLib/OUTPUT/LittleVglLib.lib(lv_font_dejavu_30_latin_sup.obj)
                              lv_font_builtin.obj (symbol from plugin) (lv_font_dejavu_30_latin_sup)
/home/vsts/work/1/edk2/Build/Lumia950XL-AARCH64/DEBUG_GCC5/AARCH64/Lumia950XLPkg/Library/LittleVglLib/LittleVglLib/OUTPUT/LittleVglLib.lib(lv_font_dejavu_40_latin_sup.obj)
                              lv_font_builtin.obj (symbol from plugin) (lv_font_dejavu_40_latin_sup)
/home/vsts/work/1/edk2/Build/Lumia950XL-AARCH64/DEBUG_GCC5/AARCH64/Lumia950XLPkg/Library/LittleVglLib/LittleVglLib/OUTPUT/LittleVglLib.lib(lv_font_symbol_10.obj)
                              lv_font_builtin.obj (symbol from plugin) (lv_font_symbol_10)
/home/vsts/work/1/edk2/Build/Lumia950XL-AARCH64/DEBUG_GCC5/AARCH64/Lumia950XLPkg/Library/LittleVglLib/LittleVglLib/OUTPUT/LittleVglLib.lib(lv_font_symbol_20.obj)
                              lv_font_builtin.obj (symbol from plugin) (lv_font_symbol_20)
/home/vsts/work/1/edk2/Build/Lumia950XL-AARCH64/DEBUG_GCC5/AARCH64/Lumia950XLPkg/Library/LittleVglLib/LittleVglLib/OUTPUT/LittleVglLib.lib(lv_font_symbol_30.obj)
                              lv_font_builtin.obj (symbol from plugin) (lv_font_symbol_30)
/home/vsts/work/1/edk2/Build/Lumia950XL-AARCH64/DEBUG_GCC5/AARCH64/Lumia950XLPkg/Library/LittleVglLib/LittleVglLib/OUTPUT/LittleVglLib.lib(lv_font_symbol_40.obj)
                              lv_font_builtin.obj (symbol from plugin) (lv_font_symbol_40)
/home/vsts/work/1/edk2/Build/Lumia950XL-AARCH64/DEBUG_GCC5/AARCH64/Lumia950XLPkg/Library/LittleVglLib/LittleVglLib/OUTPUT/LittleVglLib.lib(lv_color.obj)
                              lv_theme_material.obj (symbol from plugin) (lv_color_hsv_to_rgb)
/home/vsts/work/1/edk2/Build/Lumia950XL-AARCH64/DEBUG_GCC5/AARCH64/Lumia950XLPkg/Library/LittleVglLib/LittleVglLib/OUTPUT/LittleVglLib.lib(lv_txt.obj)
                              lv_label.obj (symbol from plugin) (lv_txt_encoded_size)
/home/vsts/work/1/edk2/Build/Lumia950XL-AARCH64/DEBUG_GCC5/AARCH64/Lumia950XLPkg/Library/LittleVglLib/LittleVglLib/OUTPUT/LittleVglLib.lib(lv_btn.obj)
                              lv_win.obj (symbol from plugin) (lv_btn_set_action)
/home/vsts/work/1/edk2/Build/Lumia950XL-AARCH64/DEBUG_GCC5/AARCH64/Lumia950XLPkg/Library/LittleVglLib/LittleVglLib/OUTPUT/LittleVglLib.lib(lv_img.obj)
                              lv_win.obj (symbol from plugin) (lv_img_set_src)
/home/vsts/work/1/edk2/Build/Lumia950XL-AARCH64/DEBUG_GCC5/AARCH64/Lumia950XLPkg/Library/LittleVglLib/LittleVglLib/OUTPUT/LittleVglLib.lib(lv_draw_vbasic.obj)
                              lv_draw.obj (symbol from plugin) (lv_vpx)
/home/vsts/work/1/edk2/Build/Lumia950XL-AARCH64/DEBUG_GCC5/AARCH64/Lumia950XLPkg/Library/LittleVglLib/LittleVglLib/OUTPUT/LittleVglLib.lib(lv_draw_img.obj)
                              lv_img.obj (symbol from plugin) (lv_img_src_get_type)
/home/vsts/work/1/edk2/Build/Lumia950XL-AARCH64/DEBUG_GCC5/AARCH64/MdeModulePkg/Library/DeviceManagerUiLib/DeviceManagerUiLib/OUTPUT/DeviceManagerUiLib.lib(DeviceManager.obj)
                              AutoGen.obj (symbol from plugin) (DeviceManagerUiLibConstructor)
/home/vsts/work/1/edk2/Build/Lumia950XL-AARCH64/DEBUG_GCC5/AARCH64/MdeModulePkg/Library/DeviceManagerUiLib/DeviceManagerUiLib/OUTPUT/DeviceManagerUiLib.lib(AutoGen.obj)
                              DeviceManager.obj (symbol from plugin) (DeviceManagerUiLibStrings)
/home/vsts/work/1/edk2/Build/Lumia950XL-AARCH64/DEBUG_GCC5/AARCH64/MdeModulePkg/Library/DeviceManagerUiLib/DeviceManagerUiLib/OUTPUT/DeviceManagerUiLib.lib(DeviceManagerVfr.obj)
                              DeviceManager.obj (symbol from plugin) (DeviceManagerVfrBin)
/home/vsts/work/1/edk2/Build/Lumia950XL-AARCH64/DEBUG_GCC5/AARCH64/MdeModulePkg/Library/BootManagerUiLib/BootManagerUiLib/OUTPUT/BootManagerUiLib.lib(BootManager.obj)
                              AutoGen.obj (symbol from plugin) (BootManagerUiLibConstructor)
/home/vsts/work/1/edk2/Build/Lumia950XL-AARCH64/DEBUG_GCC5/AARCH64/MdeModulePkg/Library/BootManagerUiLib/BootManagerUiLib/OUTPUT/BootManagerUiLib.lib(AutoGen.obj)
                              BootManager.obj (symbol from plugin) (BootManagerUiLibStrings)
/home/vsts/work/1/edk2/Build/Lumia950XL-AARCH64/DEBUG_GCC5/AARCH64/MdeModulePkg/Library/BootManagerUiLib/BootManagerUiLib/OUTPUT/BootManagerUiLib.lib(BootManagerVfr.obj)
                              BootManager.obj (symbol from plugin) (BootManagerVfrBin)
/home/vsts/work/1/edk2/Build/Lumia950XL-AARCH64/DEBUG_GCC5/AARCH64/MdeModulePkg/Library/BootMaintenanceManagerUiLib/BootMaintenanceManagerUiLib/OUTPUT/BootMaintenanceManagerUiLib.lib(BootMaintenance.obj)
                              AutoGen.obj (symbol from plugin) (BootMaintenanceManagerUiLibConstructor)
/home/vsts/work/1/edk2/Build/Lumia950XL-AARCH64/DEBUG_GCC5/AARCH64/MdeModulePkg/Library/BootMaintenanceManagerUiLib/BootMaintenanceManagerUiLib/OUTPUT/BootMaintenanceManagerUiLib.lib(BootOption.obj)
                              BootMaintenance.obj (symbol from plugin) (BOpt_GetMenuEntry)
/home/vsts/work/1/edk2/Build/Lumia950XL-AARCH64/DEBUG_GCC5/AARCH64/MdeModulePkg/Library/BootMaintenanceManagerUiLib/BootMaintenanceManagerUiLib/OUTPUT/BootMaintenanceManagerUiLib.lib(ConsoleOption.obj)
                              BootMaintenance.obj (symbol from plugin) (ChangeTerminalDevicePath)
/home/vsts/work/1/edk2/Build/Lumia950XL-AARCH64/DEBUG_GCC5/AARCH64/MdeModulePkg/Library/BootMaintenanceManagerUiLib/BootMaintenanceManagerUiLib/OUTPUT/BootMaintenanceManagerUiLib.lib(Data.obj)
                              ConsoleOption.obj (symbol from plugin) (TerminalTypeGuid)
/home/vsts/work/1/edk2/Build/Lumia950XL-AARCH64/DEBUG_GCC5/AARCH64/MdeModulePkg/Library/BootMaintenanceManagerUiLib/BootMaintenanceManagerUiLib/OUTPUT/BootMaintenanceManagerUiLib.lib(Variable.obj)
                              BootMaintenance.obj (symbol from plugin) (Var_DelBootOption)
/home/vsts/work/1/edk2/Build/Lumia950XL-AARCH64/DEBUG_GCC5/AARCH64/MdeModulePkg/Library/BootMaintenanceManagerUiLib/BootMaintenanceManagerUiLib/OUTPUT/BootMaintenanceManagerUiLib.lib(UpdatePage.obj)
                              BootMaintenance.obj (symbol from plugin) (CreateUpdateData)
/home/vsts/work/1/edk2/Build/Lumia950XL-AARCH64/DEBUG_GCC5/AARCH64/MdeModulePkg/Library/BootMaintenanceManagerUiLib/BootMaintenanceManagerUiLib/OUTPUT/BootMaintenanceManagerUiLib.lib(BmLib.obj)
                              Variable.obj (symbol from plugin) (EfiLibDeleteVariable)
/home/vsts/work/1/edk2/Build/Lumia950XL-AARCH64/DEBUG_GCC5/AARCH64/MdeModulePkg/Library/BootMaintenanceManagerUiLib/BootMaintenanceManagerUiLib/OUTPUT/BootMaintenanceManagerUiLib.lib(BootMaintenanceManagerCustomizedUi.obj)
                              BootMaintenance.obj (symbol from plugin) (UiCustomizeBMMPage)
/home/vsts/work/1/edk2/Build/Lumia950XL-AARCH64/DEBUG_GCC5/AARCH64/MdeModulePkg/Library/BootMaintenanceManagerUiLib/BootMaintenanceManagerUiLib/OUTPUT/BootMaintenanceManagerUiLib.lib(BootMaintenanceManagerCustomizedUiSupport.obj)
                              BootMaintenanceManagerCustomizedUi.obj (symbol from plugin) (BmmCreateBootNextMenu)
/home/vsts/work/1/edk2/Build/Lumia950XL-AARCH64/DEBUG_GCC5/AARCH64/MdeModulePkg/Library/BootMaintenanceManagerUiLib/BootMaintenanceManagerUiLib/OUTPUT/BootMaintenanceManagerUiLib.lib(AutoGen.obj)
                              BootMaintenance.obj (symbol from plugin) (BootMaintenanceManagerUiLibStrings)
/home/vsts/work/1/edk2/Build/Lumia950XL-AARCH64/DEBUG_GCC5/AARCH64/MdeModulePkg/Library/BootMaintenanceManagerUiLib/BootMaintenanceManagerUiLib/OUTPUT/BootMaintenanceManagerUiLib.lib(BootMaintenanceManager.obj)
                              BootMaintenance.obj (symbol from plugin) (BootMaintenanceManagerBin)
/home/vsts/work/1/edk2/Build/Lumia950XL-AARCH64/DEBUG_GCC5/AARCH64/MdePkg/Library/DxePcdLib/DxePcdLib/OUTPUT/DxePcdLib.lib(DxePcdLib.obj)
                              BootManager.obj (symbol from plugin) (LibPcdGet32)
/home/vsts/work/1/edk2/Build/Lumia950XL-AARCH64/DEBUG_GCC5/AARCH64/MdePkg/Library/BaseMemoryLib/BaseMemoryLib/OUTPUT/BaseMemoryLib.lib(ZeroMemWrapper.obj)
                              SafeString.obj (symbol from plugin) (ZeroMem)
/home/vsts/work/1/edk2/Build/Lumia950XL-AARCH64/DEBUG_GCC5/AARCH64/MdePkg/Library/BaseMemoryLib/BaseMemoryLib/OUTPUT/BaseMemoryLib.lib(CompareMemWrapper.obj)
                              BmBoot.obj (symbol from plugin) (CompareMem)
/home/vsts/work/1/edk2/Build/Lumia950XL-AARCH64/DEBUG_GCC5/AARCH64/MdePkg/Library/BaseMemoryLib/BaseMemoryLib/OUTPUT/BaseMemoryLib.lib(SetMemWrapper.obj)
                              DebugLib.obj (symbol from plugin) (SetMem)
/home/vsts/work/1/edk2/Build/Lumia950XL-AARCH64/DEBUG_GCC5/AARCH64/MdePkg/Library/BaseMemoryLib/BaseMemoryLib/OUTPUT/BaseMemoryLib.lib(CopyMemWrapper.obj)
                              SafeString.obj (symbol from plugin) (CopyMem)
/home/vsts/work/1/edk2/Build/Lumia950XL-AARCH64/DEBUG_GCC5/AARCH64/MdePkg/Library/BaseMemoryLib/BaseMemoryLib/OUTPUT/BaseMemoryLib.lib(IsZeroBufferWrapper.obj)
                              FileExplorer.obj (symbol from plugin) (IsZeroBuffer)
/home/vsts/work/1/edk2/Build/Lumia950XL-AARCH64/DEBUG_GCC5/AARCH64/MdePkg/Library/BaseMemoryLib/BaseMemoryLib/OUTPUT/BaseMemoryLib.lib(MemLibGeneric.obj)
                              ZeroMemWrapper.obj (symbol from plugin) (InternalMemZeroMem)
/home/vsts/work/1/edk2/Build/Lumia950XL-AARCH64/DEBUG_GCC5/AARCH64/MdePkg/Library/BaseMemoryLib/BaseMemoryLib/OUTPUT/BaseMemoryLib.lib(MemLibGuid.obj)
                              SafeString.obj (symbol from plugin) (CopyGuid)
/home/vsts/work/1/edk2/Build/Lumia950XL-AARCH64/DEBUG_GCC5/AARCH64/MdePkg/Library/BaseMemoryLib/BaseMemoryLib/OUTPUT/BaseMemoryLib.lib(CopyMem.obj)
                              CopyMemWrapper.obj (symbol from plugin) (InternalMemCopyMem)
/home/vsts/work/1/edk2/Build/Lumia950XL-AARCH64/DEBUG_GCC5/AARCH64/MdePkg/Library/BaseMemoryLib/BaseMemoryLib/OUTPUT/BaseMemoryLib.lib(SetMem.obj)
                              SetMemWrapper.obj (symbol from plugin) (InternalMemSetMem)
/home/vsts/work/1/edk2/Build/Lumia950XL-AARCH64/DEBUG_GCC5/AARCH64/MdePkg/Library/BaseMemoryLib/BaseMemoryLib/OUTPUT/BaseMemoryLib.lib(SetMem64Wrapper.obj)
                              SetMemWrapper.obj (symbol from plugin) (SetMem64)
/home/vsts/work/1/edk2/Build/Lumia950XL-AARCH64/DEBUG_GCC5/AARCH64/MdePkg/Library/BaseLib/BaseLib/OUTPUT/BaseLib.lib(MultU64x64.obj)
                              ArmArchTimerLib.obj (symbol from plugin) (MultU64x64)
/home/vsts/work/1/edk2/Build/Lumia950XL-AARCH64/DEBUG_GCC5/AARCH64/MdePkg/Library/BaseLib/BaseLib/OUTPUT/BaseLib.lib(LowBitSet32.obj)
                              BmHotkey.obj (symbol from plugin) (LowBitSet32)
/home/vsts/work/1/edk2/Build/Lumia950XL-AARCH64/DEBUG_GCC5/AARCH64/MdePkg/Library/BaseLib/BaseLib/OUTPUT/BaseLib.lib(DivU64x32Remainder.obj)
                              PrintLibInternal.obj (symbol from plugin) (DivU64x32Remainder)
/home/vsts/work/1/edk2/Build/Lumia950XL-AARCH64/DEBUG_GCC5/AARCH64/MdePkg/Library/BaseLib/BaseLib/OUTPUT/BaseLib.lib(CpuDeadLoop.obj)
                              DebugLib.obj (symbol from plugin) (CpuDeadLoop)
/home/vsts/work/1/edk2/Build/Lumia950XL-AARCH64/DEBUG_GCC5/AARCH64/MdePkg/Library/BaseLib/BaseLib/OUTPUT/BaseLib.lib(LinkedList.obj)
                              FileExplorer.obj (symbol from plugin) (InitializeListHead)
/home/vsts/work/1/edk2/Build/Lumia950XL-AARCH64/DEBUG_GCC5/AARCH64/MdePkg/Library/BaseLib/BaseLib/OUTPUT/BaseLib.lib(Unaligned.obj)
                              PrintLibInternal.obj (symbol from plugin) (ReadUnaligned16)
/home/vsts/work/1/edk2/Build/Lumia950XL-AARCH64/DEBUG_GCC5/AARCH64/MdePkg/Library/BaseLib/BaseLib/OUTPUT/BaseLib.lib(CpuBreakpoint.obj)
                              DebugLib.obj (symbol from plugin) (CpuBreakpoint)
/home/vsts/work/1/edk2/Build/Lumia950XL-AARCH64/DEBUG_GCC5/AARCH64/ArmPkg/Library/ArmLib/ArmBaseLib/OUTPUT/ArmBaseLib.lib(AArch64Support.obj)
                              ArmArchTimerLib.obj (symbol from plugin) (ArmIsArchTimerImplemented)
/home/vsts/work/1/edk2/Build/Lumia950XL-AARCH64/DEBUG_GCC5/AARCH64/MdePkg/Library/BaseDebugPrintErrorLevelLib/BaseDebugPrintErrorLevelLib/OUTPUT/BaseDebugPrintErrorLevelLib.lib(BaseDebugPrintErrorLevelLib.obj)
                              DebugLib.obj (symbol from plugin) (GetDebugPrintErrorLevel)
/home/vsts/work/1/edk2/Build/Lumia950XL-AARCH64/DEBUG_GCC5/AARCH64/Lumia950XLPkg/Library/FrameBufferSerialPortLib/FrameBufferSerialPortLib/OUTPUT/FrameBufferSerialPortLib.lib(FrameBufferSerialPortLib.obj)
                              DebugLib.obj (symbol from plugin) (SerialPortInitialize)
/home/vsts/work/1/edk2/Build/Lumia950XL-AARCH64/DEBUG_GCC5/AARCH64/MdePkg/Library/UefiMemoryAllocationLib/UefiMemoryAllocationLib/OUTPUT/UefiMemoryAllocationLib.lib(MemoryAllocationLib.obj)
                              BmBoot.obj (symbol from plugin) (AllocateReservedPages)
/home/vsts/work/1/edk2/Build/Lumia950XL-AARCH64/DEBUG_GCC5/AARCH64/MdePkg/Library/UefiDevicePathLib/UefiDevicePathLib/OUTPUT/UefiDevicePathLib.lib(DevicePathUtilities.obj)
                              BmConnect.obj (symbol from plugin) (DevicePathType)
/home/vsts/work/1/edk2/Build/Lumia950XL-AARCH64/DEBUG_GCC5/AARCH64/MdePkg/Library/UefiDevicePathLib/UefiDevicePathLib/OUTPUT/UefiDevicePathLib.lib(UefiDevicePathLib.obj)
                              ReportStatusCodeLib.obj (symbol from plugin) (GetDevicePathSize)
/home/vsts/work/1/edk2/Build/Lumia950XL-AARCH64/DEBUG_GCC5/AARCH64/MdePkg/Library/UefiDevicePathLib/UefiDevicePathLib/OUTPUT/UefiDevicePathLib.lib(DevicePathToText.obj)
                              UefiDevicePathLib.obj (symbol from plugin) (UefiDevicePathLibConvertDeviceNodeToText)
/home/vsts/work/1/edk2/Build/Lumia950XL-AARCH64/DEBUG_GCC5/AARCH64/MdePkg/Library/UefiDevicePathLib/UefiDevicePathLib/OUTPUT/UefiDevicePathLib.lib(DevicePathFromText.obj)
                              UefiDevicePathLib.obj (symbol from plugin) (UefiDevicePathLibConvertTextToDeviceNode)
/home/vsts/work/1/edk2/Build/Lumia950XL-AARCH64/DEBUG_GCC5/AARCH64/MdePkg/Library/UefiLib/UefiLib/OUTPUT/UefiLib.lib(UefiLibPrint.obj)
                              BmDriverHealth.obj (symbol from plugin) (Print)
/home/vsts/work/1/edk2/Build/Lumia950XL-AARCH64/DEBUG_GCC5/AARCH64/MdePkg/Library/UefiLib/UefiLib/OUTPUT/UefiLib.lib(UefiNotTiano.obj)
                              BmBoot.obj (symbol from plugin) (EfiCreateEventLegacyBootEx)
/home/vsts/work/1/edk2/Build/Lumia950XL-AARCH64/DEBUG_GCC5/AARCH64/MdePkg/Library/UefiLib/UefiLib/OUTPUT/UefiLib.lib(Console.obj)
                              BootManager.obj (symbol from plugin) (CreatePopUp)
/home/vsts/work/1/edk2/Build/Lumia950XL-AARCH64/DEBUG_GCC5/AARCH64/ArmPkg/Library/ArmGenericTimerPhyCounterLib/ArmGenericTimerPhyCounterLib/OUTPUT/ArmGenericTimerPhyCounterLib.lib(ArmGenericTimerPhyCounterLib.obj)
                              ArmArchTimerLib.obj (symbol from plugin) (ArmGenericTimerGetTimerFreq)
/home/vsts/work/1/edk2/Build/Lumia950XL-AARCH64/DEBUG_GCC5/AARCH64/MdeModulePkg/Library/UefiSortLib/UefiSortLib/OUTPUT/UefiSortLib.lib(UefiSortLib.obj)
                              BmLoadOption.obj (symbol from plugin) (PerformQuickSort)
/home/vsts/work/1/edk2/Build/Lumia950XL-AARCH64/DEBUG_GCC5/AARCH64/MdePkg/Library/DxeServicesLib/DxeServicesLib/OUTPUT/DxeServicesLib.lib(DxeServicesLib.obj)
                              BmBoot.obj (symbol from plugin) (GetSectionFromFv)
/home/vsts/work/1/edk2/Build/Lumia950XL-AARCH64/DEBUG_GCC5/AARCH64/MdeModulePkg/Library/DxePerformanceLib/DxePerformanceLib/OUTPUT/DxePerformanceLib.lib(DxePerformanceLib.obj)
                              BmBoot.obj (symbol from plugin) (StartPerformanceMeasurementEx)
/home/vsts/work/1/edk2/Build/Lumia950XL-AARCH64/DEBUG_GCC5/AARCH64/MdeModulePkg/Library/UefiHiiLib/UefiHiiLib/OUTPUT/UefiHiiLib.lib(HiiLib.obj)
                              FileExplorer.obj (symbol from plugin) (HiiAddPackages)
/home/vsts/work/1/edk2/Build/Lumia950XL-AARCH64/DEBUG_GCC5/AARCH64/MdeModulePkg/Library/UefiHiiLib/UefiHiiLib/OUTPUT/UefiHiiLib.lib(HiiString.obj)
                              FileExplorer.obj (symbol from plugin) (HiiSetString)
/home/vsts/work/1/edk2/Build/Lumia950XL-AARCH64/DEBUG_GCC5/AARCH64/MdeModulePkg/Library/UefiHiiLib/UefiHiiLib/OUTPUT/UefiHiiLib.lib(HiiLanguage.obj)
                              HiiString.obj (symbol from plugin) (HiiGetSupportedLanguages)
/home/vsts/work/1/edk2/Build/Lumia950XL-AARCH64/DEBUG_GCC5/AARCH64/MdePkg/Library/BaseMemoryLib/BaseMemoryLib/OUTPUT/BaseMemoryLib.lib(SetMem16Wrapper.obj)
                              Console.obj (symbol from plugin) (SetMem16)
/home/vsts/work/1/edk2/Build/Lumia950XL-AARCH64/DEBUG_GCC5/AARCH64/MdePkg/Library/BaseLib/BaseLib/OUTPUT/BaseLib.lib(SwapBytes64.obj)
                              DevicePathFromText.obj (symbol from plugin) (SwapBytes64)
/home/vsts/work/1/edk2/Build/Lumia950XL-AARCH64/DEBUG_GCC5/AARCH64/MdePkg/Library/BaseLib/BaseLib/OUTPUT/BaseLib.lib(BitField.obj)
                              HiiLib.obj (symbol from plugin) (BitFieldRead32)
/home/vsts/work/1/edk2/Build/Lumia950XL-AARCH64/DEBUG_GCC5/AARCH64/ArmPkg/Library/ArmLib/ArmBaseLib/OUTPUT/ArmBaseLib.lib(ArmLibSupport.obj)
                              FrameBufferSerialPortLib.obj (symbol from plugin) (ArmGetInterruptState)
/home/vsts/work/1/edk2/Build/Lumia950XL-AARCH64/DEBUG_GCC5/AARCH64/ArmPkg/Library/ArmLib/ArmBaseLib/OUTPUT/ArmBaseLib.lib(ArmLibSupportV8.obj)
                              FrameBufferSerialPortLib.obj (symbol from plugin) (ArmEnableInterrupts)
/home/vsts/work/1/edk2/Build/Lumia950XL-AARCH64/DEBUG_GCC5/AARCH64/ArmPkg/Library/ArmLib/ArmBaseLib/OUTPUT/ArmBaseLib.lib(AArch64ArchTimerSupport.obj)
                              ArmGenericTimerPhyCounterLib.obj (symbol from plugin) (ArmReadCntFrq)
/home/vsts/work/1/edk2/Build/Lumia950XL-AARCH64/DEBUG_GCC5/AARCH64/ArmPkg/Library/ArmCacheMaintenanceLib/ArmCacheMaintenanceLib/OUTPUT/ArmCacheMaintenanceLib.lib(ArmCacheMaintenanceLib.obj)
                              FrameBufferSerialPortLib.obj (symbol from plugin) (WriteBackInvalidateDataCacheRange)
/home/vsts/work/1/edk2/Build/Lumia950XL-AARCH64/DEBUG_GCC5/AARCH64/ArmPkg/Library/ArmLib/ArmBaseLib/OUTPUT/ArmBaseLib.lib(ArmLib.obj)
                              ArmCacheMaintenanceLib.obj (symbol from plugin) (ArmDataCacheLineLength)

Discarded input sections

 .text          0x0000000000000000       0x10 /home/vsts/work/1/edk2/ArmPkg/Library/GccLto/liblto-aarch64.a
 .data          0x0000000000000000        0x0 /home/vsts/work/1/edk2/ArmPkg/Library/GccLto/liblto-aarch64.a
 .bss           0x0000000000000000        0x0 /home/vsts/work/1/edk2/ArmPkg/Library/GccLto/liblto-aarch64.a
 .text          0x0000000000000000        0x0 /tmp/ccgdRr0t.ltrans0.ltrans.o
 .data          0x0000000000000000        0x0 /tmp/ccgdRr0t.ltrans0.ltrans.o
 .bss           0x0000000000000000        0x0 /tmp/ccgdRr0t.ltrans0.ltrans.o
 .text.BmCollectLoadOptions
                0x0000000000000000      0x140 /tmp/ccgdRr0t.ltrans0.ltrans.o
 .rodata.BmCollectLoadOptions.str1.1
                0x0000000000000000       0x1f /tmp/ccgdRr0t.ltrans0.ltrans.o
 .comment       0x0000000000000000       0x2e /tmp/ccgdRr0t.ltrans0.ltrans.o
 .text          0x0000000000000000        0x0 /tmp/ccgdRr0t.ltrans1.ltrans.o
 .data          0x0000000000000000        0x0 /tmp/ccgdRr0t.ltrans1.ltrans.o
 .bss           0x0000000000000000        0x0 /tmp/ccgdRr0t.ltrans1.ltrans.o
 .comment       0x0000000000000000       0x2e /tmp/ccgdRr0t.ltrans1.ltrans.o
 .text          0x0000000000000000        0x0 /tmp/ccgdRr0t.ltrans2.ltrans.o
 .data          0x0000000000000000        0x0 /tmp/ccgdRr0t.ltrans2.ltrans.o
 .bss           0x0000000000000000        0x0 /tmp/ccgdRr0t.ltrans2.ltrans.o
 .rodata.lv_txt_encoded_next
                0x0000000000000000        0x8 /tmp/ccgdRr0t.ltrans2.ltrans.o
 .rodata.lv_txt_encoded_size
                0x0000000000000000        0x8 /tmp/ccgdRr0t.ltrans2.ltrans.o
 .comment       0x0000000000000000       0x2e /tmp/ccgdRr0t.ltrans2.ltrans.o
 .text          0x0000000000000000        0x0 /tmp/ccgdRr0t.ltrans3.ltrans.o
 .data          0x0000000000000000        0x0 /tmp/ccgdRr0t.ltrans3.ltrans.o
 .bss           0x0000000000000000        0x0 /tmp/ccgdRr0t.ltrans3.ltrans.o
 .rodata._gPcd_FixedAtBuild_PcdFixedDebugPrintErrorLevel
                0x0000000000000000        0x4 /tmp/ccgdRr0t.ltrans3.ltrans.o
 .rodata._gPcd_FixedAtBuild_PcdMaximumUnicodeStringLength
                0x0000000000000000        0x4 /tmp/ccgdRr0t.ltrans3.ltrans.o
 .comment       0x0000000000000000       0x2e /tmp/ccgdRr0t.ltrans3.ltrans.o
 .text          0x0000000000000000        0x0 /tmp/ccgdRr0t.ltrans4.ltrans.o
 .data          0x0000000000000000        0x0 /tmp/ccgdRr0t.ltrans4.ltrans.o
 .bss           0x0000000000000000        0x0 /tmp/ccgdRr0t.ltrans4.ltrans.o
 .text.IsNodeInList
                0x0000000000000000       0xb0 /tmp/ccgdRr0t.ltrans4.ltrans.o
 .rodata.IsNodeInList.str1.1
                0x0000000000000000       0x44 /tmp/ccgdRr0t.ltrans4.ltrans.o
 .rodata._gPcd_FixedAtBuild_PcdResetOnMemoryTypeInformationChange
                0x0000000000000000        0x1 /tmp/ccgdRr0t.ltrans4.ltrans.o
 .rodata._gUefiDriverRevision
                0x0000000000000000        0x4 /tmp/ccgdRr0t.ltrans4.ltrans.o
 .rodata.gHeight
                0x0000000000000000        0x8 /tmp/ccgdRr0t.ltrans4.ltrans.o
 .rodata.gWidth
                0x0000000000000000        0x8 /tmp/ccgdRr0t.ltrans4.ltrans.o
 .rodata.mBmmCallbackInfo
                0x0000000000000000        0x8 /tmp/ccgdRr0t.ltrans4.ltrans.o
 .comment       0x0000000000000000       0x2e /tmp/ccgdRr0t.ltrans4.ltrans.o
 .text          0x0000000000000000        0x0 memcpy.obj (symbol from plugin)
 .text          0x0000000000000000        0x0 memset.obj (symbol from plugin)
 .text          0x0000000000000000        0x0 ApplicationEntryPoint.obj (symbol from plugin)
 .text          0x0000000000000000        0x0 AutoGen.obj (symbol from plugin)
 .text          0x0000000000000000        0x0 BootApp.obj (symbol from plugin)
 .text          0x0000000000000000        0x0 Touch.obj (symbol from plugin)
 .text          0x0000000000000000        0x0 GopBlt.obj (symbol from plugin)
 .text          0x0000000000000000        0x0 SystemInfo.obj (symbol from plugin)
 .text          0x0000000000000000        0x0 MultU64x32.obj (symbol from plugin)
 .text          0x0000000000000000        0x0 SafeString.obj (symbol from plugin)
 .text          0x0000000000000000        0x0 String.obj (symbol from plugin)
 .text          0x0000000000000000        0x0 Math64.obj (symbol from plugin)
 .text          0x0000000000000000        0x0 SwapBytes32.obj (symbol from plugin)
 .text          0x0000000000000000        0x0 SwapBytes16.obj (symbol from plugin)
 .text          0x0000000000000000        0x0 RShiftU64.obj (symbol from plugin)
 .text          0x0000000000000000        0x0 LShiftU64.obj (symbol from plugin)
 .text          0x0000000000000000        0x0 DivU64x32.obj (symbol from plugin)
 .text          0x0000000000000000        0x0 PrintLib.obj (symbol from plugin)
 .text          0x0000000000000000        0x0 PrintLibInternal.obj (symbol from plugin)
 .text          0x0000000000000000        0x0 DebugLib.obj (symbol from plugin)
 .text          0x0000000000000000        0x0 UefiBootServicesTableLib.obj (symbol from plugin)
 .text          0x0000000000000000        0x0 UefiRuntimeServicesTableLib.obj (symbol from plugin)
 .text          0x0000000000000000        0x0 UefiLib.obj (symbol from plugin)
 .text          0x0000000000000000        0x0 HobLib.obj (symbol from plugin)
 .text          0x0000000000000000        0x0 UefiHiiServicesLib.obj (symbol from plugin)
 .text          0x0000000000000000        0x0 DxeServicesTableLib.obj (symbol from plugin)
 .text          0x0000000000000000        0x0 ReportStatusCodeLib.obj (symbol from plugin)
 .text          0x0000000000000000        0x0 ArmArchTimerLib.obj (symbol from plugin)
 .text          0x0000000000000000        0x0 BmConnect.obj (symbol from plugin)
 .text          0x0000000000000000        0x0 BmConsole.obj (symbol from plugin)
 .text          0x0000000000000000        0x0 BmBoot.obj (symbol from plugin)
 .text          0x0000000000000000        0x0 BmBootDescription.obj (symbol from plugin)
 .text          0x0000000000000000        0x0 BmLoadOption.obj (symbol from plugin)
 .text          0x0000000000000000        0x0 BmHotkey.obj (symbol from plugin)
 .text          0x0000000000000000        0x0 BmDriverHealth.obj (symbol from plugin)
 .text          0x0000000000000000        0x0 BmMisc.obj (symbol from plugin)
 .text          0x0000000000000000        0x0 FileExplorer.obj (symbol from plugin)
 .text          0x0000000000000000        0x0 AutoGen.obj (symbol from plugin)
 .text          0x0000000000000000        0x0 FileExplorerVfr.obj (symbol from plugin)
 .text          0x0000000000000000        0x0 lv_obj.obj (symbol from plugin)
 .text          0x0000000000000000        0x0 lv_refr.obj (symbol from plugin)
 .text          0x0000000000000000        0x0 lv_style.obj (symbol from plugin)
 .text          0x0000000000000000        0x0 lv_vdb.obj (symbol from plugin)
 .text          0x0000000000000000        0x0 lv_draw_rect.obj (symbol from plugin)
 .text          0x0000000000000000        0x0 lv_font_dejavu_20.obj (symbol from plugin)
 .text          0x0000000000000000        0x0 lv_font_dejavu_40.obj (symbol from plugin)
 .text          0x0000000000000000        0x0 lv_hal_disp.obj (symbol from plugin)
 .text          0x0000000000000000        0x0 lv_hal_indev.obj (symbol from plugin)
 .text          0x0000000000000000        0x0 lv_hal_tick.obj (symbol from plugin)
 .text          0x0000000000000000        0x0 lv_font.obj (symbol from plugin)
 .text          0x0000000000000000        0x0 lv_circ.obj (symbol from plugin)
 .text          0x0000000000000000        0x0 lv_area.obj (symbol from plugin)
 .text          0x0000000000000000        0x0 lv_task.obj (symbol from plugin)
 .text          0x0000000000000000        0x0 lv_fs.obj (symbol from plugin)
 .text          0x0000000000000000        0x0 lv_anim.obj (symbol from plugin)
 .text          0x0000000000000000        0x0 lv_mem.obj (symbol from plugin)
 .text          0x0000000000000000        0x0 lv_ll.obj (symbol from plugin)
 .text          0x0000000000000000        0x0 lv_ufs.obj (symbol from plugin)
 .text          0x0000000000000000        0x0 lv_math.obj (symbol from plugin)
 .text          0x0000000000000000        0x0 lv_log.obj (symbol from plugin)
 .text          0x0000000000000000        0x0 lv_tabview.obj (symbol from plugin)
 .text          0x0000000000000000        0x0 lv_label.obj (symbol from plugin)
 .text          0x0000000000000000        0x0 lv_btnm.obj (symbol from plugin)
 .text          0x0000000000000000        0x0 lv_cont.obj (symbol from plugin)
 .text          0x0000000000000000        0x0 lv_page.obj (symbol from plugin)
 .text          0x0000000000000000        0x0 lv_win.obj (symbol from plugin)
 .text          0x0000000000000000        0x0 lv_theme.obj (symbol from plugin)
 .text          0x0000000000000000        0x0 lv_theme_material.obj (symbol from plugin)
 .text          0x0000000000000000        0x0 lv_group.obj (symbol from plugin)
 .text          0x0000000000000000        0x0 lv_indev.obj (symbol from plugin)
 .text          0x0000000000000000        0x0 lv_draw.obj (symbol from plugin)
 .text          0x0000000000000000        0x0 lv_draw_label.obj (symbol from plugin)
 .text          0x0000000000000000        0x0 lv_font_builtin.obj (symbol from plugin)
 .text          0x0000000000000000        0x0 lv_font_dejavu_10.obj (symbol from plugin)
 .text          0x0000000000000000        0x0 lv_font_dejavu_30.obj (symbol from plugin)
 .text          0x0000000000000000        0x0 lv_font_dejavu_10_cyrillic.obj (symbol from plugin)
 .text          0x0000000000000000        0x0 lv_font_dejavu_20_cyrillic.obj (symbol from plugin)
 .text          0x0000000000000000        0x0 lv_font_dejavu_30_cyrillic.obj (symbol from plugin)
 .text          0x0000000000000000        0x0 lv_font_dejavu_40_cyrillic.obj (symbol from plugin)
 .text          0x0000000000000000        0x0 lv_font_dejavu_10_latin_sup.obj (symbol from plugin)
 .text          0x0000000000000000        0x0 lv_font_dejavu_20_latin_sup.obj (symbol from plugin)
 .text          0x0000000000000000        0x0 lv_font_dejavu_30_latin_sup.obj (symbol from plugin)
 .text          0x0000000000000000        0x0 lv_font_dejavu_40_latin_sup.obj (symbol from plugin)
 .text          0x0000000000000000        0x0 lv_font_symbol_10.obj (symbol from plugin)
 .text          0x0000000000000000        0x0 lv_font_symbol_20.obj (symbol from plugin)
 .text          0x0000000000000000        0x0 lv_font_symbol_30.obj (symbol from plugin)
 .text          0x0000000000000000        0x0 lv_font_symbol_40.obj (symbol from plugin)
 .text          0x0000000000000000        0x0 lv_color.obj (symbol from plugin)
 .text          0x0000000000000000        0x0 lv_txt.obj (symbol from plugin)
 .text          0x0000000000000000        0x0 lv_btn.obj (symbol from plugin)
 .text          0x0000000000000000        0x0 lv_img.obj (symbol from plugin)
 .text          0x0000000000000000        0x0 lv_draw_vbasic.obj (symbol from plugin)
 .text          0x0000000000000000        0x0 lv_draw_img.obj (symbol from plugin)
 .text          0x0000000000000000        0x0 DeviceManager.obj (symbol from plugin)
 .text          0x0000000000000000        0x0 AutoGen.obj (symbol from plugin)
 .text          0x0000000000000000        0x0 DeviceManagerVfr.obj (symbol from plugin)
 .text          0x0000000000000000        0x0 BootManager.obj (symbol from plugin)
 .text          0x0000000000000000        0x0 AutoGen.obj (symbol from plugin)
 .text          0x0000000000000000        0x0 BootManagerVfr.obj (symbol from plugin)
 .text          0x0000000000000000        0x0 BootMaintenance.obj (symbol from plugin)
 .text          0x0000000000000000        0x0 BootOption.obj (symbol from plugin)
 .text          0x0000000000000000        0x0 ConsoleOption.obj (symbol from plugin)
 .text          0x0000000000000000        0x0 Data.obj (symbol from plugin)
 .text          0x0000000000000000        0x0 Variable.obj (symbol from plugin)
 .text          0x0000000000000000        0x0 UpdatePage.obj (symbol from plugin)
 .text          0x0000000000000000        0x0 BmLib.obj (symbol from plugin)
 .text          0x0000000000000000        0x0 BootMaintenanceManagerCustomizedUi.obj (symbol from plugin)
 .text          0x0000000000000000        0x0 BootMaintenanceManagerCustomizedUiSupport.obj (symbol from plugin)
 .text          0x0000000000000000        0x0 AutoGen.obj (symbol from plugin)
 .text          0x0000000000000000        0x0 BootMaintenanceManager.obj (symbol from plugin)
 .text          0x0000000000000000        0x0 DxePcdLib.obj (symbol from plugin)
 .text          0x0000000000000000        0x0 ZeroMemWrapper.obj (symbol from plugin)
 .text          0x0000000000000000        0x0 CompareMemWrapper.obj (symbol from plugin)
 .text          0x0000000000000000        0x0 SetMemWrapper.obj (symbol from plugin)
 .text          0x0000000000000000        0x0 CopyMemWrapper.obj (symbol from plugin)
 .text          0x0000000000000000        0x0 IsZeroBufferWrapper.obj (symbol from plugin)
 .text          0x0000000000000000        0x0 MemLibGeneric.obj (symbol from plugin)
 .text          0x0000000000000000        0x0 MemLibGuid.obj (symbol from plugin)
 .text          0x0000000000000000        0x0 CopyMem.obj (symbol from plugin)
 .text          0x0000000000000000        0x0 SetMem.obj (symbol from plugin)
 .text          0x0000000000000000        0x0 SetMem64Wrapper.obj (symbol from plugin)
 .text          0x0000000000000000        0x0 MultU64x64.obj (symbol from plugin)
 .text          0x0000000000000000        0x0 LowBitSet32.obj (symbol from plugin)
 .text          0x0000000000000000        0x0 DivU64x32Remainder.obj (symbol from plugin)
 .text          0x0000000000000000        0x0 CpuDeadLoop.obj (symbol from plugin)
 .text          0x0000000000000000        0x0 LinkedList.obj (symbol from plugin)
 .text          0x0000000000000000        0x0 Unaligned.obj (symbol from plugin)
 .text          0x0000000000000000        0x8 /home/vsts/work/1/edk2/Build/Lumia950XL-AARCH64/DEBUG_GCC5/AARCH64/MdePkg/Library/BaseLib/BaseLib/OUTPUT/BaseLib.lib(CpuBreakpoint.obj)
 .data          0x0000000000000000        0x0 /home/vsts/work/1/edk2/Build/Lumia950XL-AARCH64/DEBUG_GCC5/AARCH64/MdePkg/Library/BaseLib/BaseLib/OUTPUT/BaseLib.lib(CpuBreakpoint.obj)
 .bss           0x0000000000000000        0x0 /home/vsts/work/1/edk2/Build/Lumia950XL-AARCH64/DEBUG_GCC5/AARCH64/MdePkg/Library/BaseLib/BaseLib/OUTPUT/BaseLib.lib(CpuBreakpoint.obj)
 .text          0x0000000000000000        0x0 /home/vsts/work/1/edk2/Build/Lumia950XL-AARCH64/DEBUG_GCC5/AARCH64/ArmPkg/Library/ArmLib/ArmBaseLib/OUTPUT/ArmBaseLib.lib(AArch64Support.obj)
 .data          0x0000000000000000        0x0 /home/vsts/work/1/edk2/Build/Lumia950XL-AARCH64/DEBUG_GCC5/AARCH64/ArmPkg/Library/ArmLib/ArmBaseLib/OUTPUT/ArmBaseLib.lib(AArch64Support.obj)
 .bss           0x0000000000000000        0x0 /home/vsts/work/1/edk2/Build/Lumia950XL-AARCH64/DEBUG_GCC5/AARCH64/ArmPkg/Library/ArmLib/ArmBaseLib/OUTPUT/ArmBaseLib.lib(AArch64Support.obj)
 .text.ArmInvalidateDataCacheEntryByMVA
                0x0000000000000000        0x8 /home/vsts/work/1/edk2/Build/Lumia950XL-AARCH64/DEBUG_GCC5/AARCH64/ArmPkg/Library/ArmLib/ArmBaseLib/OUTPUT/ArmBaseLib.lib(AArch64Support.obj)
 .text.ArmCleanDataCacheEntryByMVA
                0x0000000000000000        0x8 /home/vsts/work/1/edk2/Build/Lumia950XL-AARCH64/DEBUG_GCC5/AARCH64/ArmPkg/Library/ArmLib/ArmBaseLib/OUTPUT/ArmBaseLib.lib(AArch64Support.obj)
 .text.ArmCleanDataCacheEntryToPoUByMVA
                0x0000000000000000        0x8 /home/vsts/work/1/edk2/Build/Lumia950XL-AARCH64/DEBUG_GCC5/AARCH64/ArmPkg/Library/ArmLib/ArmBaseLib/OUTPUT/ArmBaseLib.lib(AArch64Support.obj)
 .text.ArmInvalidateInstructionCacheEntryToPoUByMVA
                0x0000000000000000        0x8 /home/vsts/work/1/edk2/Build/Lumia950XL-AARCH64/DEBUG_GCC5/AARCH64/ArmPkg/Library/ArmLib/ArmBaseLib/OUTPUT/ArmBaseLib.lib(AArch64Support.obj)
 .text.ArmInvalidateDataCacheEntryBySetWay
                0x0000000000000000        0x8 /home/vsts/work/1/edk2/Build/Lumia950XL-AARCH64/DEBUG_GCC5/AARCH64/ArmPkg/Library/ArmLib/ArmBaseLib/OUTPUT/ArmBaseLib.lib(AArch64Support.obj)
 .text.ArmCleanInvalidateDataCacheEntryBySetWay
                0x0000000000000000        0x8 /home/vsts/work/1/edk2/Build/Lumia950XL-AARCH64/DEBUG_GCC5/AARCH64/ArmPkg/Library/ArmLib/ArmBaseLib/OUTPUT/ArmBaseLib.lib(AArch64Support.obj)
 .text.ArmCleanDataCacheEntryBySetWay
                0x0000000000000000        0x8 /home/vsts/work/1/edk2/Build/Lumia950XL-AARCH64/DEBUG_GCC5/AARCH64/ArmPkg/Library/ArmLib/ArmBaseLib/OUTPUT/ArmBaseLib.lib(AArch64Support.obj)
 .text.ArmInvalidateInstructionCache
                0x0000000000000000       0x10 /home/vsts/work/1/edk2/Build/Lumia950XL-AARCH64/DEBUG_GCC5/AARCH64/ArmPkg/Library/ArmLib/ArmBaseLib/OUTPUT/ArmBaseLib.lib(AArch64Support.obj)
 .text.ArmEnableMmu
                0x0000000000000000       0x88 /home/vsts/work/1/edk2/Build/Lumia950XL-AARCH64/DEBUG_GCC5/AARCH64/ArmPkg/Library/ArmLib/ArmBaseLib/OUTPUT/ArmBaseLib.lib(AArch64Support.obj)
 .text.ArmDisableMmu
                0x0000000000000000       0x74 /home/vsts/work/1/edk2/Build/Lumia950XL-AARCH64/DEBUG_GCC5/AARCH64/ArmPkg/Library/ArmLib/ArmBaseLib/OUTPUT/ArmBaseLib.lib(AArch64Support.obj)
 .text.ArmDisableCachesAndMmu
                0x0000000000000000       0x6c /home/vsts/work/1/edk2/Build/Lumia950XL-AARCH64/DEBUG_GCC5/AARCH64/ArmPkg/Library/ArmLib/ArmBaseLib/OUTPUT/ArmBaseLib.lib(AArch64Support.obj)
 .text.ArmMmuEnabled
                0x0000000000000000       0x34 /home/vsts/work/1/edk2/Build/Lumia950XL-AARCH64/DEBUG_GCC5/AARCH64/ArmPkg/Library/ArmLib/ArmBaseLib/OUTPUT/ArmBaseLib.lib(AArch64Support.obj)
 .text.ArmEnableDataCache
                0x0000000000000000       0x68 /home/vsts/work/1/edk2/Build/Lumia950XL-AARCH64/DEBUG_GCC5/AARCH64/ArmPkg/Library/ArmLib/ArmBaseLib/OUTPUT/ArmBaseLib.lib(AArch64Support.obj)
 .text.ArmDisableDataCache
                0x0000000000000000       0x68 /home/vsts/work/1/edk2/Build/Lumia950XL-AARCH64/DEBUG_GCC5/AARCH64/ArmPkg/Library/ArmLib/ArmBaseLib/OUTPUT/ArmBaseLib.lib(AArch64Support.obj)
 .text.ArmEnableInstructionCache
                0x0000000000000000       0x68 /home/vsts/work/1/edk2/Build/Lumia950XL-AARCH64/DEBUG_GCC5/AARCH64/ArmPkg/Library/ArmLib/ArmBaseLib/OUTPUT/ArmBaseLib.lib(AArch64Support.obj)
 .text.ArmDisableInstructionCache
                0x0000000000000000       0x68 /home/vsts/work/1/edk2/Build/Lumia950XL-AARCH64/DEBUG_GCC5/AARCH64/ArmPkg/Library/ArmLib/ArmBaseLib/OUTPUT/ArmBaseLib.lib(AArch64Support.obj)
 .text.ArmEnableAlignmentCheck
                0x0000000000000000       0x58 /home/vsts/work/1/edk2/Build/Lumia950XL-AARCH64/DEBUG_GCC5/AARCH64/ArmPkg/Library/ArmLib/ArmBaseLib/OUTPUT/ArmBaseLib.lib(AArch64Support.obj)
 .text.ArmDisableAlignmentCheck
                0x0000000000000000       0x68 /home/vsts/work/1/edk2/Build/Lumia950XL-AARCH64/DEBUG_GCC5/AARCH64/ArmPkg/Library/ArmLib/ArmBaseLib/OUTPUT/ArmBaseLib.lib(AArch64Support.obj)
 .text.ArmEnableStackAlignmentCheck
                0x0000000000000000       0x58 /home/vsts/work/1/edk2/Build/Lumia950XL-AARCH64/DEBUG_GCC5/AARCH64/ArmPkg/Library/ArmLib/ArmBaseLib/OUTPUT/ArmBaseLib.lib(AArch64Support.obj)
 .text.ArmDisableStackAlignmentCheck
                0x0000000000000000       0x68 /home/vsts/work/1/edk2/Build/Lumia950XL-AARCH64/DEBUG_GCC5/AARCH64/ArmPkg/Library/ArmLib/ArmBaseLib/OUTPUT/ArmBaseLib.lib(AArch64Support.obj)
 .text.ArmEnableBranchPrediction
                0x0000000000000000        0x4 /home/vsts/work/1/edk2/Build/Lumia950XL-AARCH64/DEBUG_GCC5/AARCH64/ArmPkg/Library/ArmLib/ArmBaseLib/OUTPUT/ArmBaseLib.lib(AArch64Support.obj)
 .text.ArmDisableBranchPrediction
                0x0000000000000000        0x4 /home/vsts/work/1/edk2/Build/Lumia950XL-AARCH64/DEBUG_GCC5/AARCH64/ArmPkg/Library/ArmLib/ArmBaseLib/OUTPUT/ArmBaseLib.lib(AArch64Support.obj)
 .text.AArch64AllDataCachesOperation
                0x0000000000000000       0xa8 /home/vsts/work/1/edk2/Build/Lumia950XL-AARCH64/DEBUG_GCC5/AARCH64/ArmPkg/Library/ArmLib/ArmBaseLib/OUTPUT/ArmBaseLib.lib(AArch64Support.obj)
 .text.ArmDataMemoryBarrier
                0x0000000000000000        0x8 /home/vsts/work/1/edk2/Build/Lumia950XL-AARCH64/DEBUG_GCC5/AARCH64/ArmPkg/Library/ArmLib/ArmBaseLib/OUTPUT/ArmBaseLib.lib(AArch64Support.obj)
 .text.ArmInstructionSynchronizationBarrier
                0x0000000000000000        0x8 /home/vsts/work/1/edk2/Build/Lumia950XL-AARCH64/DEBUG_GCC5/AARCH64/ArmPkg/Library/ArmLib/ArmBaseLib/OUTPUT/ArmBaseLib.lib(AArch64Support.obj)
 .text.ArmWriteVBar
                0x0000000000000000       0x34 /home/vsts/work/1/edk2/Build/Lumia950XL-AARCH64/DEBUG_GCC5/AARCH64/ArmPkg/Library/ArmLib/ArmBaseLib/OUTPUT/ArmBaseLib.lib(AArch64Support.obj)
 .text.ArmReadVBar
                0x0000000000000000       0x30 /home/vsts/work/1/edk2/Build/Lumia950XL-AARCH64/DEBUG_GCC5/AARCH64/ArmPkg/Library/ArmLib/ArmBaseLib/OUTPUT/ArmBaseLib.lib(AArch64Support.obj)
 .text.ArmEnableVFP
                0x0000000000000000       0x64 /home/vsts/work/1/edk2/Build/Lumia950XL-AARCH64/DEBUG_GCC5/AARCH64/ArmPkg/Library/ArmLib/ArmBaseLib/OUTPUT/ArmBaseLib.lib(AArch64Support.obj)
 .text.ArmCallWFI
                0x0000000000000000        0x8 /home/vsts/work/1/edk2/Build/Lumia950XL-AARCH64/DEBUG_GCC5/AARCH64/ArmPkg/Library/ArmLib/ArmBaseLib/OUTPUT/ArmBaseLib.lib(AArch64Support.obj)
 .text.ArmReadMpidr
                0x0000000000000000        0x8 /home/vsts/work/1/edk2/Build/Lumia950XL-AARCH64/DEBUG_GCC5/AARCH64/ArmPkg/Library/ArmLib/ArmBaseLib/OUTPUT/ArmBaseLib.lib(AArch64Support.obj)
 .text.ArmReadTpidrurw
                0x0000000000000000        0x8 /home/vsts/work/1/edk2/Build/Lumia950XL-AARCH64/DEBUG_GCC5/AARCH64/ArmPkg/Library/ArmLib/ArmBaseLib/OUTPUT/ArmBaseLib.lib(AArch64Support.obj)
 .text.ArmWriteTpidrurw
                0x0000000000000000        0x8 /home/vsts/work/1/edk2/Build/Lumia950XL-AARCH64/DEBUG_GCC5/AARCH64/ArmPkg/Library/ArmLib/ArmBaseLib/OUTPUT/ArmBaseLib.lib(AArch64Support.obj)
 .text.ArmReadIdPfr0
                0x0000000000000000        0x8 /home/vsts/work/1/edk2/Build/Lumia950XL-AARCH64/DEBUG_GCC5/AARCH64/ArmPkg/Library/ArmLib/ArmBaseLib/OUTPUT/ArmBaseLib.lib(AArch64Support.obj)
 .text.ArmReadIdPfr1
                0x0000000000000000        0x8 /home/vsts/work/1/edk2/Build/Lumia950XL-AARCH64/DEBUG_GCC5/AARCH64/ArmPkg/Library/ArmLib/ArmBaseLib/OUTPUT/ArmBaseLib.lib(AArch64Support.obj)
 .text.ArmWriteHcr
                0x0000000000000000        0x8 /home/vsts/work/1/edk2/Build/Lumia950XL-AARCH64/DEBUG_GCC5/AARCH64/ArmPkg/Library/ArmLib/ArmBaseLib/OUTPUT/ArmBaseLib.lib(AArch64Support.obj)
 .text.ArmReadHcr
                0x0000000000000000        0x8 /home/vsts/work/1/edk2/Build/Lumia950XL-AARCH64/DEBUG_GCC5/AARCH64/ArmPkg/Library/ArmLib/ArmBaseLib/OUTPUT/ArmBaseLib.lib(AArch64Support.obj)
 .text.ArmReadCurrentEL
                0x0000000000000000        0x8 /home/vsts/work/1/edk2/Build/Lumia950XL-AARCH64/DEBUG_GCC5/AARCH64/ArmPkg/Library/ArmLib/ArmBaseLib/OUTPUT/ArmBaseLib.lib(AArch64Support.obj)
 .text.ArmReadCntHctl
                0x0000000000000000        0x8 /home/vsts/work/1/edk2/Build/Lumia950XL-AARCH64/DEBUG_GCC5/AARCH64/ArmPkg/Library/ArmLib/ArmBaseLib/OUTPUT/ArmBaseLib.lib(AArch64Support.obj)
 .text.ArmWriteCntHctl
                0x0000000000000000        0x8 /home/vsts/work/1/edk2/Build/Lumia950XL-AARCH64/DEBUG_GCC5/AARCH64/ArmPkg/Library/ArmLib/ArmBaseLib/OUTPUT/ArmBaseLib.lib(AArch64Support.obj)
 .text          0x0000000000000000        0x0 BaseDebugPrintErrorLevelLib.obj (symbol from plugin)
 .text          0x0000000000000000        0x0 FrameBufferSerialPortLib.obj (symbol from plugin)
 .text          0x0000000000000000        0x0 MemoryAllocationLib.obj (symbol from plugin)
 .text          0x0000000000000000        0x0 DevicePathUtilities.obj (symbol from plugin)
 .text          0x0000000000000000        0x0 UefiDevicePathLib.obj (symbol from plugin)
 .text          0x0000000000000000        0x0 DevicePathToText.obj (symbol from plugin)
 .text          0x0000000000000000        0x0 DevicePathFromText.obj (symbol from plugin)
 .text          0x0000000000000000        0x0 UefiLibPrint.obj (symbol from plugin)
 .text          0x0000000000000000        0x0 UefiNotTiano.obj (symbol from plugin)
 .text          0x0000000000000000        0x0 Console.obj (symbol from plugin)
 .text          0x0000000000000000        0x0 ArmGenericTimerPhyCounterLib.obj (symbol from plugin)
 .text          0x0000000000000000        0x0 UefiSortLib.obj (symbol from plugin)
 .text          0x0000000000000000        0x0 DxeServicesLib.obj (symbol from plugin)
 .text          0x0000000000000000        0x0 DxePerformanceLib.obj (symbol from plugin)
 .text          0x0000000000000000        0x0 HiiLib.obj (symbol from plugin)
 .text          0x0000000000000000        0x0 HiiString.obj (symbol from plugin)
 .text          0x0000000000000000        0x0 HiiLanguage.obj (symbol from plugin)
 .text          0x0000000000000000        0x0 SetMem16Wrapper.obj (symbol from plugin)
 .text          0x0000000000000000        0x0 SwapBytes64.obj (symbol from plugin)
 .text          0x0000000000000000        0x0 BitField.obj (symbol from plugin)
 .text          0x0000000000000000        0x0 /home/vsts/work/1/edk2/Build/Lumia950XL-AARCH64/DEBUG_GCC5/AARCH64/ArmPkg/Library/ArmLib/ArmBaseLib/OUTPUT/ArmBaseLib.lib(ArmLibSupport.obj)
 .data          0x0000000000000000        0x0 /home/vsts/work/1/edk2/Build/Lumia950XL-AARCH64/DEBUG_GCC5/AARCH64/ArmPkg/Library/ArmLib/ArmBaseLib/OUTPUT/ArmBaseLib.lib(ArmLibSupport.obj)
 .bss           0x0000000000000000        0x0 /home/vsts/work/1/edk2/Build/Lumia950XL-AARCH64/DEBUG_GCC5/AARCH64/ArmPkg/Library/ArmLib/ArmBaseLib/OUTPUT/ArmBaseLib.lib(ArmLibSupport.obj)
 .text.ArmReadMidr
                0x0000000000000000        0x8 /home/vsts/work/1/edk2/Build/Lumia950XL-AARCH64/DEBUG_GCC5/AARCH64/ArmPkg/Library/ArmLib/ArmBaseLib/OUTPUT/ArmBaseLib.lib(ArmLibSupport.obj)
 .text.ArmGetFiqState
                0x0000000000000000       0x10 /home/vsts/work/1/edk2/Build/Lumia950XL-AARCH64/DEBUG_GCC5/AARCH64/ArmPkg/Library/ArmLib/ArmBaseLib/OUTPUT/ArmBaseLib.lib(ArmLibSupport.obj)
 .text.ArmWriteCpacr
                0x0000000000000000        0x8 /home/vsts/work/1/edk2/Build/Lumia950XL-AARCH64/DEBUG_GCC5/AARCH64/ArmPkg/Library/ArmLib/ArmBaseLib/OUTPUT/ArmBaseLib.lib(ArmLibSupport.obj)
 .text.ArmWriteAuxCr
                0x0000000000000000       0x28 /home/vsts/work/1/edk2/Build/Lumia950XL-AARCH64/DEBUG_GCC5/AARCH64/ArmPkg/Library/ArmLib/ArmBaseLib/OUTPUT/ArmBaseLib.lib(ArmLibSupport.obj)
 .text.ArmReadAuxCr
                0x0000000000000000       0x28 /home/vsts/work/1/edk2/Build/Lumia950XL-AARCH64/DEBUG_GCC5/AARCH64/ArmPkg/Library/ArmLib/ArmBaseLib/OUTPUT/ArmBaseLib.lib(ArmLibSupport.obj)
 .text.ArmSetTTBR0
                0x0000000000000000       0x34 /home/vsts/work/1/edk2/Build/Lumia950XL-AARCH64/DEBUG_GCC5/AARCH64/ArmPkg/Library/ArmLib/ArmBaseLib/OUTPUT/ArmBaseLib.lib(ArmLibSupport.obj)
 .text.ArmGetTTBR0BaseAddress
                0x0000000000000000       0x30 /home/vsts/work/1/edk2/Build/Lumia950XL-AARCH64/DEBUG_GCC5/AARCH64/ArmPkg/Library/ArmLib/ArmBaseLib/OUTPUT/ArmBaseLib.lib(ArmLibSupport.obj)
 .text.ArmGetTCR
                0x0000000000000000       0x34 /home/vsts/work/1/edk2/Build/Lumia950XL-AARCH64/DEBUG_GCC5/AARCH64/ArmPkg/Library/ArmLib/ArmBaseLib/OUTPUT/ArmBaseLib.lib(ArmLibSupport.obj)
 .text.ArmSetTCR
                0x0000000000000000       0x34 /home/vsts/work/1/edk2/Build/Lumia950XL-AARCH64/DEBUG_GCC5/AARCH64/ArmPkg/Library/ArmLib/ArmBaseLib/OUTPUT/ArmBaseLib.lib(ArmLibSupport.obj)
 .text.ArmGetMAIR
                0x0000000000000000       0x34 /home/vsts/work/1/edk2/Build/Lumia950XL-AARCH64/DEBUG_GCC5/AARCH64/ArmPkg/Library/ArmLib/ArmBaseLib/OUTPUT/ArmBaseLib.lib(ArmLibSupport.obj)
 .text.ArmSetMAIR
                0x0000000000000000       0x34 /home/vsts/work/1/edk2/Build/Lumia950XL-AARCH64/DEBUG_GCC5/AARCH64/ArmPkg/Library/ArmLib/ArmBaseLib/OUTPUT/ArmBaseLib.lib(ArmLibSupport.obj)
 .text.ArmUpdateTranslationTableEntry
                0x0000000000000000       0x40 /home/vsts/work/1/edk2/Build/Lumia950XL-AARCH64/DEBUG_GCC5/AARCH64/ArmPkg/Library/ArmLib/ArmBaseLib/OUTPUT/ArmBaseLib.lib(ArmLibSupport.obj)
 .text.ArmInvalidateTlb
                0x0000000000000000       0x38 /home/vsts/work/1/edk2/Build/Lumia950XL-AARCH64/DEBUG_GCC5/AARCH64/ArmPkg/Library/ArmLib/ArmBaseLib/OUTPUT/ArmBaseLib.lib(ArmLibSupport.obj)
 .text.ArmWriteCptr
                0x0000000000000000        0x8 /home/vsts/work/1/edk2/Build/Lumia950XL-AARCH64/DEBUG_GCC5/AARCH64/ArmPkg/Library/ArmLib/ArmBaseLib/OUTPUT/ArmBaseLib.lib(ArmLibSupport.obj)
 .text.ArmWriteScr
                0x0000000000000000        0xc /home/vsts/work/1/edk2/Build/Lumia950XL-AARCH64/DEBUG_GCC5/AARCH64/ArmPkg/Library/ArmLib/ArmBaseLib/OUTPUT/ArmBaseLib.lib(ArmLibSupport.obj)
 .text.ArmWriteMVBar
                0x0000000000000000        0x8 /home/vsts/work/1/edk2/Build/Lumia950XL-AARCH64/DEBUG_GCC5/AARCH64/ArmPkg/Library/ArmLib/ArmBaseLib/OUTPUT/ArmBaseLib.lib(ArmLibSupport.obj)
 .text.ArmCallWFE
                0x0000000000000000        0x8 /home/vsts/work/1/edk2/Build/Lumia950XL-AARCH64/DEBUG_GCC5/AARCH64/ArmPkg/Library/ArmLib/ArmBaseLib/OUTPUT/ArmBaseLib.lib(ArmLibSupport.obj)
 .text.ArmCallSEV
                0x0000000000000000        0x8 /home/vsts/work/1/edk2/Build/Lumia950XL-AARCH64/DEBUG_GCC5/AARCH64/ArmPkg/Library/ArmLib/ArmBaseLib/OUTPUT/ArmBaseLib.lib(ArmLibSupport.obj)
 .text.ArmReadCpuActlr
                0x0000000000000000        0x8 /home/vsts/work/1/edk2/Build/Lumia950XL-AARCH64/DEBUG_GCC5/AARCH64/ArmPkg/Library/ArmLib/ArmBaseLib/OUTPUT/ArmBaseLib.lib(ArmLibSupport.obj)
 .text.ArmWriteCpuActlr
                0x0000000000000000       0x10 /home/vsts/work/1/edk2/Build/Lumia950XL-AARCH64/DEBUG_GCC5/AARCH64/ArmPkg/Library/ArmLib/ArmBaseLib/OUTPUT/ArmBaseLib.lib(ArmLibSupport.obj)
 .text.ArmReadSctlr
                0x0000000000000000       0x30 /home/vsts/work/1/edk2/Build/Lumia950XL-AARCH64/DEBUG_GCC5/AARCH64/ArmPkg/Library/ArmLib/ArmBaseLib/OUTPUT/ArmBaseLib.lib(ArmLibSupport.obj)
 .text          0x0000000000000000        0x0 /home/vsts/work/1/edk2/Build/Lumia950XL-AARCH64/DEBUG_GCC5/AARCH64/ArmPkg/Library/ArmLib/ArmBaseLib/OUTPUT/ArmBaseLib.lib(ArmLibSupportV8.obj)
 .data          0x0000000000000000        0x0 /home/vsts/work/1/edk2/Build/Lumia950XL-AARCH64/DEBUG_GCC5/AARCH64/ArmPkg/Library/ArmLib/ArmBaseLib/OUTPUT/ArmBaseLib.lib(ArmLibSupportV8.obj)
 .bss           0x0000000000000000        0x0 /home/vsts/work/1/edk2/Build/Lumia950XL-AARCH64/DEBUG_GCC5/AARCH64/ArmPkg/Library/ArmLib/ArmBaseLib/OUTPUT/ArmBaseLib.lib(ArmLibSupportV8.obj)
 .text.ArmIsMpCore
                0x0000000000000000       0x14 /home/vsts/work/1/edk2/Build/Lumia950XL-AARCH64/DEBUG_GCC5/AARCH64/ArmPkg/Library/ArmLib/ArmBaseLib/OUTPUT/ArmBaseLib.lib(ArmLibSupportV8.obj)
 .text.ArmEnableAsynchronousAbort
                0x0000000000000000        0xc /home/vsts/work/1/edk2/Build/Lumia950XL-AARCH64/DEBUG_GCC5/AARCH64/ArmPkg/Library/ArmLib/ArmBaseLib/OUTPUT/ArmBaseLib.lib(ArmLibSupportV8.obj)
 .text.ArmDisableAsynchronousAbort
                0x0000000000000000        0xc /home/vsts/work/1/edk2/Build/Lumia950XL-AARCH64/DEBUG_GCC5/AARCH64/ArmPkg/Library/ArmLib/ArmBaseLib/OUTPUT/ArmBaseLib.lib(ArmLibSupportV8.obj)
 .text.ArmEnableIrq
                0x0000000000000000        0xc /home/vsts/work/1/edk2/Build/Lumia950XL-AARCH64/DEBUG_GCC5/AARCH64/ArmPkg/Library/ArmLib/ArmBaseLib/OUTPUT/ArmBaseLib.lib(ArmLibSupportV8.obj)
 .text.ArmDisableIrq
                0x0000000000000000        0xc /home/vsts/work/1/edk2/Build/Lumia950XL-AARCH64/DEBUG_GCC5/AARCH64/ArmPkg/Library/ArmLib/ArmBaseLib/OUTPUT/ArmBaseLib.lib(ArmLibSupportV8.obj)
 .text.ArmEnableFiq
                0x0000000000000000        0xc /home/vsts/work/1/edk2/Build/Lumia950XL-AARCH64/DEBUG_GCC5/AARCH64/ArmPkg/Library/ArmLib/ArmBaseLib/OUTPUT/ArmBaseLib.lib(ArmLibSupportV8.obj)
 .text.ArmDisableFiq
                0x0000000000000000        0xc /home/vsts/work/1/edk2/Build/Lumia950XL-AARCH64/DEBUG_GCC5/AARCH64/ArmPkg/Library/ArmLib/ArmBaseLib/OUTPUT/ArmBaseLib.lib(ArmLibSupportV8.obj)
 .text.ArmDisableAllExceptions
                0x0000000000000000        0xc /home/vsts/work/1/edk2/Build/Lumia950XL-AARCH64/DEBUG_GCC5/AARCH64/ArmPkg/Library/ArmLib/ArmBaseLib/OUTPUT/ArmBaseLib.lib(ArmLibSupportV8.obj)
 .text.ReadCCSIDR
                0x0000000000000000       0x10 /home/vsts/work/1/edk2/Build/Lumia950XL-AARCH64/DEBUG_GCC5/AARCH64/ArmPkg/Library/ArmLib/ArmBaseLib/OUTPUT/ArmBaseLib.lib(ArmLibSupportV8.obj)
 .text.ReadCLIDR
                0x0000000000000000        0x8 /home/vsts/work/1/edk2/Build/Lumia950XL-AARCH64/DEBUG_GCC5/AARCH64/ArmPkg/Library/ArmLib/ArmBaseLib/OUTPUT/ArmBaseLib.lib(ArmLibSupportV8.obj)
 .text          0x0000000000000000        0x0 /home/vsts/work/1/edk2/Build/Lumia950XL-AARCH64/DEBUG_GCC5/AARCH64/ArmPkg/Library/ArmLib/ArmBaseLib/OUTPUT/ArmBaseLib.lib(AArch64ArchTimerSupport.obj)
 .data          0x0000000000000000        0x0 /home/vsts/work/1/edk2/Build/Lumia950XL-AARCH64/DEBUG_GCC5/AARCH64/ArmPkg/Library/ArmLib/ArmBaseLib/OUTPUT/ArmBaseLib.lib(AArch64ArchTimerSupport.obj)
 .bss           0x0000000000000000        0x0 /home/vsts/work/1/edk2/Build/Lumia950XL-AARCH64/DEBUG_GCC5/AARCH64/ArmPkg/Library/ArmLib/ArmBaseLib/OUTPUT/ArmBaseLib.lib(AArch64ArchTimerSupport.obj)
 .text.ArmWriteCntFrq
                0x0000000000000000        0x8 /home/vsts/work/1/edk2/Build/Lumia950XL-AARCH64/DEBUG_GCC5/AARCH64/ArmPkg/Library/ArmLib/ArmBaseLib/OUTPUT/ArmBaseLib.lib(AArch64ArchTimerSupport.obj)
 .text.ArmReadCntPct
                0x0000000000000000        0x8 /home/vsts/work/1/edk2/Build/Lumia950XL-AARCH64/DEBUG_GCC5/AARCH64/ArmPkg/Library/ArmLib/ArmBaseLib/OUTPUT/ArmBaseLib.lib(AArch64ArchTimerSupport.obj)
 .text.ArmReadCntkCtl
                0x0000000000000000        0x8 /home/vsts/work/1/edk2/Build/Lumia950XL-AARCH64/DEBUG_GCC5/AARCH64/ArmPkg/Library/ArmLib/ArmBaseLib/OUTPUT/ArmBaseLib.lib(AArch64ArchTimerSupport.obj)
 .text.ArmWriteCntkCtl
                0x0000000000000000        0x8 /home/vsts/work/1/edk2/Build/Lumia950XL-AARCH64/DEBUG_GCC5/AARCH64/ArmPkg/Library/ArmLib/ArmBaseLib/OUTPUT/ArmBaseLib.lib(AArch64ArchTimerSupport.obj)
 .text.ArmReadCntpTval
                0x0000000000000000        0x8 /home/vsts/work/1/edk2/Build/Lumia950XL-AARCH64/DEBUG_GCC5/AARCH64/ArmPkg/Library/ArmLib/ArmBaseLib/OUTPUT/ArmBaseLib.lib(AArch64ArchTimerSupport.obj)
 .text.ArmWriteCntpTval
                0x0000000000000000        0x8 /home/vsts/work/1/edk2/Build/Lumia950XL-AARCH64/DEBUG_GCC5/AARCH64/ArmPkg/Library/ArmLib/ArmBaseLib/OUTPUT/ArmBaseLib.lib(AArch64ArchTimerSupport.obj)
 .text.ArmReadCntpCtl
                0x0000000000000000        0x8 /home/vsts/work/1/edk2/Build/Lumia950XL-AARCH64/DEBUG_GCC5/AARCH64/ArmPkg/Library/ArmLib/ArmBaseLib/OUTPUT/ArmBaseLib.lib(AArch64ArchTimerSupport.obj)
 .text.ArmWriteCntpCtl
                0x0000000000000000        0x8 /home/vsts/work/1/edk2/Build/Lumia950XL-AARCH64/DEBUG_GCC5/AARCH64/ArmPkg/Library/ArmLib/ArmBaseLib/OUTPUT/ArmBaseLib.lib(AArch64ArchTimerSupport.obj)
 .text.ArmReadCntvTval
                0x0000000000000000        0x8 /home/vsts/work/1/edk2/Build/Lumia950XL-AARCH64/DEBUG_GCC5/AARCH64/ArmPkg/Library/ArmLib/ArmBaseLib/OUTPUT/ArmBaseLib.lib(AArch64ArchTimerSupport.obj)
 .text.ArmWriteCntvTval
                0x0000000000000000        0x8 /home/vsts/work/1/edk2/Build/Lumia950XL-AARCH64/DEBUG_GCC5/AARCH64/ArmPkg/Library/ArmLib/ArmBaseLib/OUTPUT/ArmBaseLib.lib(AArch64ArchTimerSupport.obj)
 .text.ArmReadCntvCtl
                0x0000000000000000        0x8 /home/vsts/work/1/edk2/Build/Lumia950XL-AARCH64/DEBUG_GCC5/AARCH64/ArmPkg/Library/ArmLib/ArmBaseLib/OUTPUT/ArmBaseLib.lib(AArch64ArchTimerSupport.obj)
 .text.ArmWriteCntvCtl
                0x0000000000000000        0x8 /home/vsts/work/1/edk2/Build/Lumia950XL-AARCH64/DEBUG_GCC5/AARCH64/ArmPkg/Library/ArmLib/ArmBaseLib/OUTPUT/ArmBaseLib.lib(AArch64ArchTimerSupport.obj)
 .text.ArmReadCntvCt
                0x0000000000000000        0x8 /home/vsts/work/1/edk2/Build/Lumia950XL-AARCH64/DEBUG_GCC5/AARCH64/ArmPkg/Library/ArmLib/ArmBaseLib/OUTPUT/ArmBaseLib.lib(AArch64ArchTimerSupport.obj)
 .text.ArmReadCntpCval
                0x0000000000000000        0x8 /home/vsts/work/1/edk2/Build/Lumia950XL-AARCH64/DEBUG_GCC5/AARCH64/ArmPkg/Library/ArmLib/ArmBaseLib/OUTPUT/ArmBaseLib.lib(AArch64ArchTimerSupport.obj)
 .text.ArmWriteCntpCval
                0x0000000000000000        0x8 /home/vsts/work/1/edk2/Build/Lumia950XL-AARCH64/DEBUG_GCC5/AARCH64/ArmPkg/Library/ArmLib/ArmBaseLib/OUTPUT/ArmBaseLib.lib(AArch64ArchTimerSupport.obj)
 .text.ArmReadCntvCval
                0x0000000000000000        0x8 /home/vsts/work/1/edk2/Build/Lumia950XL-AARCH64/DEBUG_GCC5/AARCH64/ArmPkg/Library/ArmLib/ArmBaseLib/OUTPUT/ArmBaseLib.lib(AArch64ArchTimerSupport.obj)
 .text.ArmWriteCntvCval
                0x0000000000000000        0x8 /home/vsts/work/1/edk2/Build/Lumia950XL-AARCH64/DEBUG_GCC5/AARCH64/ArmPkg/Library/ArmLib/ArmBaseLib/OUTPUT/ArmBaseLib.lib(AArch64ArchTimerSupport.obj)
 .text.ArmReadCntvOff
                0x0000000000000000        0x8 /home/vsts/work/1/edk2/Build/Lumia950XL-AARCH64/DEBUG_GCC5/AARCH64/ArmPkg/Library/ArmLib/ArmBaseLib/OUTPUT/ArmBaseLib.lib(AArch64ArchTimerSupport.obj)
 .text.ArmWriteCntvOff
                0x0000000000000000        0x8 /home/vsts/work/1/edk2/Build/Lumia950XL-AARCH64/DEBUG_GCC5/AARCH64/ArmPkg/Library/ArmLib/ArmBaseLib/OUTPUT/ArmBaseLib.lib(AArch64ArchTimerSupport.obj)
 .text          0x0000000000000000        0x0 ArmCacheMaintenanceLib.obj (symbol from plugin)
 .text          0x0000000000000000        0x0 ArmLib.obj (symbol from plugin)

Memory Configuration

Name             Origin             Length             Attributes
*default*        0x0000000000000000 0xffffffffffffffff

Linker script and memory map

LOAD /home/vsts/work/1/edk2/ArmPkg/Library/GccLto/liblto-aarch64.a
LOAD /tmp/ccgdRr0t.ltrans0.ltrans.o
LOAD /tmp/ccgdRr0t.ltrans1.ltrans.o
LOAD /tmp/ccgdRr0t.ltrans2.ltrans.o
LOAD /tmp/ccgdRr0t.ltrans3.ltrans.o
LOAD /tmp/ccgdRr0t.ltrans4.ltrans.o
START GROUP
LOAD /home/vsts/work/1/edk2/Build/Lumia950XL-AARCH64/DEBUG_GCC5/AARCH64/MdePkg/Library/DxePcdLib/DxePcdLib/OUTPUT/DxePcdLib.lib
LOAD /home/vsts/work/1/edk2/Build/Lumia950XL-AARCH64/DEBUG_GCC5/AARCH64/MdePkg/Library/BaseMemoryLib/BaseMemoryLib/OUTPUT/BaseMemoryLib.lib
LOAD /home/vsts/work/1/edk2/Build/Lumia950XL-AARCH64/DEBUG_GCC5/AARCH64/MdePkg/Library/BaseLib/BaseLib/OUTPUT/BaseLib.lib
LOAD /home/vsts/work/1/edk2/Build/Lumia950XL-AARCH64/DEBUG_GCC5/AARCH64/ArmPkg/Library/ArmLib/ArmBaseLib/OUTPUT/ArmBaseLib.lib
LOAD /home/vsts/work/1/edk2/Build/Lumia950XL-AARCH64/DEBUG_GCC5/AARCH64/ArmPkg/Library/CompilerIntrinsicsLib/CompilerIntrinsicsLib/OUTPUT/CompilerIntrinsicsLib.lib
LOAD /home/vsts/work/1/edk2/Build/Lumia950XL-AARCH64/DEBUG_GCC5/AARCH64/ArmPkg/Library/ArmCacheMaintenanceLib/ArmCacheMaintenanceLib/OUTPUT/ArmCacheMaintenanceLib.lib
LOAD /home/vsts/work/1/edk2/Build/Lumia950XL-AARCH64/DEBUG_GCC5/AARCH64/MdePkg/Library/BaseIoLibIntrinsic/BaseIoLibIntrinsic/OUTPUT/BaseIoLibIntrinsic.lib
LOAD /home/vsts/work/1/edk2/Build/Lumia950XL-AARCH64/DEBUG_GCC5/AARCH64/MdePkg/Library/BaseDebugPrintErrorLevelLib/BaseDebugPrintErrorLevelLib/OUTPUT/BaseDebugPrintErrorLevelLib.lib
LOAD /home/vsts/work/1/edk2/Build/Lumia950XL-AARCH64/DEBUG_GCC5/AARCH64/Lumia950XLPkg/Library/FrameBufferSerialPortLib/FrameBufferSerialPortLib/OUTPUT/FrameBufferSerialPortLib.lib
LOAD /home/vsts/work/1/edk2/Build/Lumia950XL-AARCH64/DEBUG_GCC5/AARCH64/MdePkg/Library/BasePrintLib/BasePrintLib/OUTPUT/BasePrintLib.lib
LOAD /home/vsts/work/1/edk2/Build/Lumia950XL-AARCH64/DEBUG_GCC5/AARCH64/MdePkg/Library/BaseDebugLibSerialPort/BaseDebugLibSerialPort/OUTPUT/BaseDebugLibSerialPort.lib
LOAD /home/vsts/work/1/edk2/Build/Lumia950XL-AARCH64/DEBUG_GCC5/AARCH64/MdePkg/Library/UefiMemoryAllocationLib/UefiMemoryAllocationLib/OUTPUT/UefiMemoryAllocationLib.lib
LOAD /home/vsts/work/1/edk2/Build/Lumia950XL-AARCH64/DEBUG_GCC5/AARCH64/MdePkg/Library/UefiBootServicesTableLib/UefiBootServicesTableLib/OUTPUT/UefiBootServicesTableLib.lib
LOAD /home/vsts/work/1/edk2/Build/Lumia950XL-AARCH64/DEBUG_GCC5/AARCH64/MdePkg/Library/UefiRuntimeServicesTableLib/UefiRuntimeServicesTableLib/OUTPUT/UefiRuntimeServicesTableLib.lib
LOAD /home/vsts/work/1/edk2/Build/Lumia950XL-AARCH64/DEBUG_GCC5/AARCH64/MdePkg/Library/UefiDevicePathLib/UefiDevicePathLib/OUTPUT/UefiDevicePathLib.lib
LOAD /home/vsts/work/1/edk2/Build/Lumia950XL-AARCH64/DEBUG_GCC5/AARCH64/MdePkg/Library/UefiLib/UefiLib/OUTPUT/UefiLib.lib
LOAD /home/vsts/work/1/edk2/Build/Lumia950XL-AARCH64/DEBUG_GCC5/AARCH64/MdePkg/Library/DxeHobLib/DxeHobLib/OUTPUT/DxeHobLib.lib
LOAD /home/vsts/work/1/edk2/Build/Lumia950XL-AARCH64/DEBUG_GCC5/AARCH64/MdeModulePkg/Library/UefiHiiServicesLib/UefiHiiServicesLib/OUTPUT/UefiHiiServicesLib.lib
LOAD /home/vsts/work/1/edk2/Build/Lumia950XL-AARCH64/DEBUG_GCC5/AARCH64/ArmPkg/Library/ArmGenericTimerPhyCounterLib/ArmGenericTimerPhyCounterLib/OUTPUT/ArmGenericTimerPhyCounterLib.lib
LOAD /home/vsts/work/1/edk2/Build/Lumia950XL-AARCH64/DEBUG_GCC5/AARCH64/MdeModulePkg/Library/UefiSortLib/UefiSortLib/OUTPUT/UefiSortLib.lib
LOAD /home/vsts/work/1/edk2/Build/Lumia950XL-AARCH64/DEBUG_GCC5/AARCH64/MdePkg/Library/DxeServicesLib/DxeServicesLib/OUTPUT/DxeServicesLib.lib
LOAD /home/vsts/work/1/edk2/Build/Lumia950XL-AARCH64/DEBUG_GCC5/AARCH64/MdePkg/Library/DxeServicesTableLib/DxeServicesTableLib/OUTPUT/DxeServicesTableLib.lib
LOAD /home/vsts/work/1/edk2/Build/Lumia950XL-AARCH64/DEBUG_GCC5/AARCH64/MdePkg/Library/BasePeCoffGetEntryPointLib/BasePeCoffGetEntryPointLib/OUTPUT/BasePeCoffGetEntryPointLib.lib
LOAD /home/vsts/work/1/edk2/Build/Lumia950XL-AARCH64/DEBUG_GCC5/AARCH64/MdeModulePkg/Library/DxePerformanceLib/DxePerformanceLib/OUTPUT/DxePerformanceLib.lib
LOAD /home/vsts/work/1/edk2/Build/Lumia950XL-AARCH64/DEBUG_GCC5/AARCH64/MdeModulePkg/Library/UefiHiiLib/UefiHiiLib/OUTPUT/UefiHiiLib.lib
LOAD /home/vsts/work/1/edk2/Build/Lumia950XL-AARCH64/DEBUG_GCC5/AARCH64/MdeModulePkg/Library/DxeReportStatusCodeLib/DxeReportStatusCodeLib/OUTPUT/DxeReportStatusCodeLib.lib
LOAD /home/vsts/work/1/edk2/Build/Lumia950XL-AARCH64/DEBUG_GCC5/AARCH64/ArmPkg/Library/ArmArchTimerLib/ArmArchTimerLib/OUTPUT/ArmArchTimerLib.lib
LOAD /home/vsts/work/1/edk2/Build/Lumia950XL-AARCH64/DEBUG_GCC5/AARCH64/MdeModulePkg/Library/UefiBootManagerLib/UefiBootManagerLib/OUTPUT/UefiBootManagerLib.lib
LOAD /home/vsts/work/1/edk2/Build/Lumia950XL-AARCH64/DEBUG_GCC5/AARCH64/MdeModulePkg/Library/FileExplorerLib/FileExplorerLib/OUTPUT/FileExplorerLib.lib
LOAD /home/vsts/work/1/edk2/Build/Lumia950XL-AARCH64/DEBUG_GCC5/AARCH64/MdePkg/Library/UefiApplicationEntryPoint/UefiApplicationEntryPoint/OUTPUT/UefiApplicationEntryPoint.lib
LOAD /home/vsts/work/1/edk2/Build/Lumia950XL-AARCH64/DEBUG_GCC5/AARCH64/Lumia950XLPkg/Library/LittleVglLib/LittleVglLib/OUTPUT/LittleVglLib.lib
LOAD /home/vsts/work/1/edk2/Build/Lumia950XL-AARCH64/DEBUG_GCC5/AARCH64/MdeModulePkg/Library/DeviceManagerUiLib/DeviceManagerUiLib/OUTPUT/DeviceManagerUiLib.lib
LOAD /home/vsts/work/1/edk2/Build/Lumia950XL-AARCH64/DEBUG_GCC5/AARCH64/MdeModulePkg/Library/BootManagerUiLib/BootManagerUiLib/OUTPUT/BootManagerUiLib.lib
LOAD /home/vsts/work/1/edk2/Build/Lumia950XL-AARCH64/DEBUG_GCC5/AARCH64/MdeModulePkg/Library/BootMaintenanceManagerUiLib/BootMaintenanceManagerUiLib/OUTPUT/BootMaintenanceManagerUiLib.lib
LOAD /home/vsts/work/1/edk2/Build/Lumia950XL-AARCH64/DEBUG_GCC5/AARCH64/Lumia950XLPkg/Application/BdsMenuApp/BdsMenuApp/OUTPUT/UiApp.lib
END GROUP
                0x0000000000000228                . = PECOFF_HEADER_SIZE

.text           0x0000000000001000    0xa3110
 *(.text .text.* .stub .gnu.linkonce.t.*)
 .text.lv_flush_ready
                0x0000000000001000       0x10 /tmp/ccgdRr0t.ltrans0.ltrans.o
 .text.lv_scr_act
                0x0000000000001010        0xc /tmp/ccgdRr0t.ltrans0.ltrans.o
                0x0000000000001010                lv_scr_act
 .text.LibRouteConfig
                0x000000000000101c       0x24 /tmp/ccgdRr0t.ltrans0.ltrans.o
                0x000000000000101c                LibRouteConfig
 .text.LibExtractConfig
                0x0000000000001040       0x24 /tmp/ccgdRr0t.ltrans0.ltrans.o
                0x0000000000001040                LibExtractConfig
 .text.BmEliminateExtraSpaces
                0x0000000000001064       0x44 /tmp/ccgdRr0t.ltrans0.ltrans.o
 .text.EfiEventEmptyFunction
                0x00000000000010a8        0x4 /tmp/ccgdRr0t.ltrans0.ltrans.o
 .text.DebugCodeEnabled
                0x00000000000010ac        0x8 /tmp/ccgdRr0t.ltrans0.ltrans.o
 .text.MultU64x32
                0x00000000000010b4        0xc /tmp/ccgdRr0t.ltrans0.ltrans.o
 .text.EfiGopBltFlush.lto_priv.129
                0x00000000000010c0       0x5c /tmp/ccgdRr0t.ltrans0.ltrans.o
                0x00000000000010c0                EfiGopBltFlush.lto_priv.129
 .text.EfiTouchScreenRead
                0x000000000000111c       0xd8 /tmp/ccgdRr0t.ltrans0.ltrans.o
 .text.EfiKeyRead
                0x00000000000011f4       0x30 /tmp/ccgdRr0t.ltrans0.ltrans.o
 .text.reset_action
                0x0000000000001224       0x34 /tmp/ccgdRr0t.ltrans0.ltrans.o
 .text.power_off_action
                0x0000000000001258       0x34 /tmp/ccgdRr0t.ltrans0.ltrans.o
 .text.continue_bds_action
                0x000000000000128c        0x8 /tmp/ccgdRr0t.ltrans0.ltrans.o
 .text.refresh_childen_position
                0x0000000000001294       0x9c /tmp/ccgdRr0t.ltrans0.ltrans.o
 .text.EfiBootManagerFreeDriverHealthInfo
                0x0000000000001330       0x5c /tmp/ccgdRr0t.ltrans0.ltrans.o
 .text.BmConnectUsbShortFormDevicePath
                0x000000000000138c      0x164 /tmp/ccgdRr0t.ltrans0.ltrans.o
 .text.BmMatchPartitionDevicePathNode.part.5
                0x00000000000014f0       0xd4 /tmp/ccgdRr0t.ltrans0.ltrans.o
 .text.BmDelPartMatchInstance
                0x00000000000015c4       0xe4 /tmp/ccgdRr0t.ltrans0.ltrans.o
 .text.BmEndOfBdsPerfCode
                0x00000000000016a8       0x38 /tmp/ccgdRr0t.ltrans0.ltrans.o
 .text.BmIsBootManagerMenuFilePath
                0x00000000000016e0       0x5c /tmp/ccgdRr0t.ltrans0.ltrans.o
 .text.BmAdjustFvFilePath
                0x000000000000173c      0x170 /tmp/ccgdRr0t.ltrans0.ltrans.o
 .text.AsciiSPrint
                0x00000000000018ac       0x60 /tmp/ccgdRr0t.ltrans0.ltrans.o
 .text.BaseDebugLibSerialPortConstructor
                0x000000000000190c       0x84 /tmp/ccgdRr0t.ltrans0.ltrans.o
 .text.TimerCallback
                0x0000000000001990       0x14 /tmp/ccgdRr0t.ltrans0.ltrans.o
 .text.lv_vdb_get
                0x00000000000019a4       0x60 /tmp/ccgdRr0t.ltrans0.ltrans.o
                0x00000000000019a4                lv_vdb_get
 .text.DebugPrintLevelEnabled
                0x0000000000001a04        0x8 /tmp/ccgdRr0t.ltrans0.ltrans.o
                0x0000000000001a04                DebugPrintLevelEnabled
 .text.lv_inv_area
                0x0000000000001a0c       0xcc /tmp/ccgdRr0t.ltrans0.ltrans.o
                0x0000000000001a0c                lv_inv_area
 .text.lv_obj_get_opa_scale
                0x0000000000001ad8       0x24 /tmp/ccgdRr0t.ltrans0.ltrans.o
                0x0000000000001ad8                lv_obj_get_opa_scale
 .text.lv_obj_get_style
                0x0000000000001afc       0xb0 /tmp/ccgdRr0t.ltrans0.ltrans.o
                0x0000000000001afc                lv_obj_get_style
 .text.lv_refr_obj
                0x0000000000001bac      0x188 /tmp/ccgdRr0t.ltrans0.ltrans.o
 .text.lv_refr_obj_and_children
                0x0000000000001d34       0xac /tmp/ccgdRr0t.ltrans0.ltrans.o
 .text.lv_refr_get_top_obj
                0x0000000000001de0       0xc0 /tmp/ccgdRr0t.ltrans0.ltrans.o
 .text.lv_refr_area_part_vdb
                0x0000000000001ea0      0x100 /tmp/ccgdRr0t.ltrans0.ltrans.o
 .text.lv_obj_get_child_back
                0x0000000000001fa0       0x20 /tmp/ccgdRr0t.ltrans0.ltrans.o
                0x0000000000001fa0                lv_obj_get_child_back
 .text.lv_obj_get_child
                0x0000000000001fc0       0x20 /tmp/ccgdRr0t.ltrans0.ltrans.o
                0x0000000000001fc0                lv_obj_get_child
 .text.lv_obj_allocate_ext_attr
                0x0000000000001fe0       0x2c /tmp/ccgdRr0t.ltrans0.ltrans.o
                0x0000000000001fe0                lv_obj_allocate_ext_attr
 .text.lv_obj_invalidate
                0x000000000000200c       0xe4 /tmp/ccgdRr0t.ltrans0.ltrans.o
                0x000000000000200c                lv_obj_invalidate
 .text.lv_obj_refresh_ext_size
                0x00000000000020f0       0x34 /tmp/ccgdRr0t.ltrans0.ltrans.o
                0x00000000000020f0                lv_obj_refresh_ext_size
 .text.lv_obj_signal
                0x0000000000002124       0x94 /tmp/ccgdRr0t.ltrans0.ltrans.o
 .text.lv_obj_refresh_style
                0x00000000000021b8       0x38 /tmp/ccgdRr0t.ltrans0.ltrans.o
                0x00000000000021b8                lv_obj_refresh_style
 .text.refresh_childen_style
                0x00000000000021f0       0x70 /tmp/ccgdRr0t.ltrans0.ltrans.o
 .text.lv_obj_set_style
                0x0000000000002260       0x28 /tmp/ccgdRr0t.ltrans0.ltrans.o
                0x0000000000002260                lv_obj_set_style
 .text.lv_obj_set_size
                0x0000000000002288       0xc0 /tmp/ccgdRr0t.ltrans0.ltrans.o
                0x0000000000002288                lv_obj_set_size
 .text.lv_obj_set_height
                0x0000000000002348       0x1c /tmp/ccgdRr0t.ltrans0.ltrans.o
                0x0000000000002348                lv_obj_set_height
 .text.lv_obj_set_width
                0x0000000000002364       0x14 /tmp/ccgdRr0t.ltrans0.ltrans.o
                0x0000000000002364                lv_obj_set_width
 .text.lv_obj_set_pos
                0x0000000000002378       0xe8 /tmp/ccgdRr0t.ltrans0.ltrans.o
                0x0000000000002378                lv_obj_set_pos
 .text.lv_obj_align
                0x0000000000002460      0x354 /tmp/ccgdRr0t.ltrans0.ltrans.o
                0x0000000000002460                lv_obj_align
 .text.lv_obj_set_y
                0x00000000000027b4       0x1c /tmp/ccgdRr0t.ltrans0.ltrans.o
                0x00000000000027b4                lv_obj_set_y
 .text.lv_obj_set_x
                0x00000000000027d0       0x14 /tmp/ccgdRr0t.ltrans0.ltrans.o
                0x00000000000027d0                lv_obj_set_x
 .text.lv_obj_set_parent
                0x00000000000027e4       0xe0 /tmp/ccgdRr0t.ltrans0.ltrans.o
                0x00000000000027e4                lv_obj_set_parent
 .text.lv_obj_create
                0x00000000000028c4      0x364 /tmp/ccgdRr0t.ltrans0.ltrans.o
                0x00000000000028c4                lv_obj_create
 .text.LibToLowerString
                0x0000000000002c28       0x2c /tmp/ccgdRr0t.ltrans0.ltrans.o
                0x0000000000002c28                LibToLowerString
 .text.LibDestroyMenuEntry
                0x0000000000002c54       0x78 /tmp/ccgdRr0t.ltrans0.ltrans.o
                0x0000000000002c54                LibDestroyMenuEntry
 .text.LibCreateMenuEntry
                0x0000000000002ccc       0x58 /tmp/ccgdRr0t.ltrans0.ltrans.o
                0x0000000000002ccc                LibCreateMenuEntry
 .text.EfiBootManagerFreeLoadOption
                0x0000000000002d24       0x54 /tmp/ccgdRr0t.ltrans0.ltrans.o
                0x0000000000002d24                EfiBootManagerFreeLoadOption
 .text.EfiBootManagerFreeLoadOptions
                0x0000000000002d78       0x64 /tmp/ccgdRr0t.ltrans0.ltrans.o
                0x0000000000002d78                EfiBootManagerFreeLoadOptions
 .text.InternalGetReportStatusCode.part.0
                0x0000000000002ddc       0x50 /tmp/ccgdRr0t.ltrans0.ltrans.o
                0x0000000000002ddc                InternalGetReportStatusCode.part.0
 .text.ReportDebugCodeEnabled
                0x0000000000002e2c        0x8 /tmp/ccgdRr0t.ltrans0.ltrans.o
                0x0000000000002e2c                ReportDebugCodeEnabled
 .text.ReportErrorCodeEnabled
                0x0000000000002e34        0x8 /tmp/ccgdRr0t.ltrans0.ltrans.o
                0x0000000000002e34                ReportErrorCodeEnabled
 .text.ReportProgressCodeEnabled
                0x0000000000002e3c        0x8 /tmp/ccgdRr0t.ltrans0.ltrans.o
                0x0000000000002e3c                ReportProgressCodeEnabled
 .text.ReportStatusCode
                0x0000000000002e44       0xbc /tmp/ccgdRr0t.ltrans0.ltrans.o
 .text.DebugPrintEnabled
                0x0000000000002f00        0x8 /tmp/ccgdRr0t.ltrans0.ltrans.o
                0x0000000000002f00                DebugPrintEnabled
 .text.DebugAssertEnabled
                0x0000000000002f08        0x8 /tmp/ccgdRr0t.ltrans0.ltrans.o
                0x0000000000002f08                DebugAssertEnabled
 .text.BasePrintLibFillBuffer
                0x0000000000002f10       0x34 /tmp/ccgdRr0t.ltrans0.ltrans.o
                0x0000000000002f10                BasePrintLibFillBuffer
 .text.AsciiStrLen
                0x0000000000002f44       0xa0 /tmp/ccgdRr0t.ltrans0.ltrans.o
                0x0000000000002f44                AsciiStrLen
 .text.DebugAssert
                0x0000000000002fe4       0x58 /tmp/ccgdRr0t.ltrans0.ltrans.o
                0x0000000000002fe4                DebugAssert
 .text.LibFreeMenu
                0x000000000000303c       0xa0 /tmp/ccgdRr0t.ltrans0.ltrans.o
                0x000000000000303c                LibFreeMenu
 .text.LibGetMenuEntry
                0x00000000000030dc       0xac /tmp/ccgdRr0t.ltrans0.ltrans.o
 .text.LibGetDevicePath
                0x0000000000003188       0x64 /tmp/ccgdRr0t.ltrans0.ltrans.o
 .text.LibUpdateFileExplorePage
                0x00000000000031ec      0x1cc /tmp/ccgdRr0t.ltrans0.ltrans.o
                0x00000000000031ec                LibUpdateFileExplorePage
 .text.BmGetRamDiskDevicePath
                0x00000000000033b8       0xc8 /tmp/ccgdRr0t.ltrans0.ltrans.o
 .text.EfiBootManagerConnectDevicePath
                0x0000000000003480      0x178 /tmp/ccgdRr0t.ltrans0.ltrans.o
 .text.GetVariable2
                0x00000000000035f8      0x138 /tmp/ccgdRr0t.ltrans0.ltrans.o
 .text.GetEfiGlobalVariable2
                0x0000000000003730       0x14 /tmp/ccgdRr0t.ltrans0.ltrans.o
                0x0000000000003730                GetEfiGlobalVariable2
 .text.BmGetFreeOptionNumber
                0x0000000000003744      0x17c /tmp/ccgdRr0t.ltrans0.ltrans.o
                0x0000000000003744                BmGetFreeOptionNumber
 .text.EfiBootManagerConnectConsoleVariable.part.1
                0x00000000000038c0      0x2bc /tmp/ccgdRr0t.ltrans0.ltrans.o
 .text.EfiGetSystemConfigurationTable
                0x0000000000003b7c       0x94 /tmp/ccgdRr0t.ltrans0.ltrans.o
 .text.BasePrintLibValueToString
                0x0000000000003c10       0x28 /tmp/ccgdRr0t.ltrans0.ltrans.o
                0x0000000000003c10                BasePrintLibValueToString
 .text.SPrintLength
                0x0000000000003c38       0x70 /tmp/ccgdRr0t.ltrans0.ltrans.o
                0x0000000000003c38                SPrintLength
 .text.UnicodeValueToStringS
                0x0000000000003ca8      0x238 /tmp/ccgdRr0t.ltrans0.ltrans.o
                0x0000000000003ca8                UnicodeValueToStringS
 .text.UnicodeVSPrint
                0x0000000000003ee0       0x9c /tmp/ccgdRr0t.ltrans0.ltrans.o
                0x0000000000003ee0                UnicodeVSPrint
 .text.UnicodeSPrint
                0x0000000000003f7c       0x50 /tmp/ccgdRr0t.ltrans0.ltrans.o
                0x0000000000003f7c                UnicodeSPrint
 .text.EfiBootManagerDeleteLoadOptionVariable
                0x0000000000003fcc      0x15c /tmp/ccgdRr0t.ltrans0.ltrans.o
                0x0000000000003fcc                EfiBootManagerDeleteLoadOptionVariable
 .text.BmGetNetworkDescription
                0x0000000000004128      0x324 /tmp/ccgdRr0t.ltrans0.ltrans.o
 .text.DebugPrint
                0x000000000000444c       0x8c /tmp/ccgdRr0t.ltrans0.ltrans.o
                0x000000000000444c                DebugPrint
 .text.BmPrintDp
                0x00000000000044d8       0x64 /tmp/ccgdRr0t.ltrans0.ltrans.o
 .text.BmRepairNotify
                0x000000000000453c       0x6c /tmp/ccgdRr0t.ltrans0.ltrans.o
 .text.BmGetSingleControllerHealthStatus
                0x00000000000045a8      0x29c /tmp/ccgdRr0t.ltrans0.ltrans.o
 .text.EfiBootManagerGetDriverHealthInfo
                0x0000000000004844      0x25c /tmp/ccgdRr0t.ltrans0.ltrans.o
 .text.BmGetNvmeDescription
                0x0000000000004aa0      0x224 /tmp/ccgdRr0t.ltrans0.ltrans.o
 .text.BmDestroyRamDisk
                0x0000000000004cc4      0x274 /tmp/ccgdRr0t.ltrans0.ltrans.o
 .text.BmExpandMediaDevicePath
                0x0000000000004f38      0x2c4 /tmp/ccgdRr0t.ltrans0.ltrans.o
 .text.BmExpandLoadFile
                0x00000000000051fc      0x27c /tmp/ccgdRr0t.ltrans0.ltrans.o
 .text.BmUpdateSystemTableConsole
                0x0000000000005478      0x1d8 /tmp/ccgdRr0t.ltrans0.ltrans.o
 .text.EfiBootManagerConnectAllDefaultConsoles
                0x0000000000005650      0x1d0 /tmp/ccgdRr0t.ltrans0.ltrans.o
 .text.EfiBootManagerConnectAll
                0x0000000000005820       0xa0 /tmp/ccgdRr0t.ltrans0.ltrans.o
 .text.TimerConstructor
                0x00000000000058c0       0x84 /tmp/ccgdRr0t.ltrans0.ltrans.o
 .text.GetHobList
                0x0000000000005944       0xb4 /tmp/ccgdRr0t.ltrans0.ltrans.o
 .text.AsciiStrnCmp
                0x00000000000059f8       0xf0 /tmp/ccgdRr0t.ltrans0.ltrans.o
                0x00000000000059f8                AsciiStrnCmp
 .text.GetBestLanguage
                0x0000000000005ae8      0x1ac /tmp/ccgdRr0t.ltrans0.ltrans.o
                0x0000000000005ae8                GetBestLanguage
 .text.AsciiStrCmp
                0x0000000000005c94       0xa0 /tmp/ccgdRr0t.ltrans0.ltrans.o
                0x0000000000005c94                AsciiStrCmp
 .text.AsciiStrCpy
                0x0000000000005d34       0xc4 /tmp/ccgdRr0t.ltrans0.ltrans.o
                0x0000000000005d34                AsciiStrCpy
 .text.StrLen   0x0000000000005df8       0xbc /tmp/ccgdRr0t.ltrans0.ltrans.o
                0x0000000000005df8                StrLen
 .text.StrSize  0x0000000000005eb4       0x1c /tmp/ccgdRr0t.ltrans0.ltrans.o
                0x0000000000005eb4                StrSize
 .text.LibStrDuplicate
                0x0000000000005ed0       0x78 /tmp/ccgdRr0t.ltrans0.ltrans.o
                0x0000000000005ed0                LibStrDuplicate
 .text.BmSetVariableAndReportStatusCodeOnError
                0x0000000000005f48       0xec /tmp/ccgdRr0t.ltrans0.ltrans.o
 .text.BmGetControllerName
                0x0000000000006034      0x134 /tmp/ccgdRr0t.ltrans0.ltrans.o
 .text.BmDisplayMessages
                0x0000000000006168      0x12c /tmp/ccgdRr0t.ltrans0.ltrans.o
 .text.BmRepairAllControllers
                0x0000000000006294      0x37c /tmp/ccgdRr0t.ltrans0.ltrans.o
 .text.EfiBootManagerInitializeLoadOption
                0x0000000000006610       0xd8 /tmp/ccgdRr0t.ltrans0.ltrans.o
                0x0000000000006610                EfiBootManagerInitializeLoadOption
 .text.EfiBootManagerLoadOptionToVariable
                0x00000000000066e8      0x22c /tmp/ccgdRr0t.ltrans0.ltrans.o
                0x00000000000066e8                EfiBootManagerLoadOptionToVariable
 .text.BmGetMiscDescription
                0x0000000000006914      0x270 /tmp/ccgdRr0t.ltrans0.ltrans.o
 .text.BmGetLoadFileDescription
                0x0000000000006b84       0xb8 /tmp/ccgdRr0t.ltrans0.ltrans.o
 .text.StrStr   0x0000000000006c3c       0xbc /tmp/ccgdRr0t.ltrans0.ltrans.o
                0x0000000000006c3c                StrStr
 .text.StrnCmp  0x0000000000006cf8       0xe4 /tmp/ccgdRr0t.ltrans0.ltrans.o
                0x0000000000006cf8                StrnCmp
 .text.EfiBootManagerIsValidLoadOptionVariableName.part.6
                0x0000000000006ddc      0x10c /tmp/ccgdRr0t.ltrans0.ltrans.o
 .text.EfiBootManagerVariableToLoadOptionEx.part.7
                0x0000000000006ee8      0x240 /tmp/ccgdRr0t.ltrans0.ltrans.o
                0x0000000000006ee8                EfiBootManagerVariableToLoadOptionEx.part.7
 .text.BmHotkeyCallback
                0x0000000000007128      0x27c /tmp/ccgdRr0t.ltrans0.ltrans.o
 .text.StrCmp   0x00000000000073a4       0x98 /tmp/ccgdRr0t.ltrans0.ltrans.o
                0x00000000000073a4                StrCmp
 .text.EfiBootManagerFindLoadOption
                0x000000000000743c       0xc0 /tmp/ccgdRr0t.ltrans0.ltrans.o
 .text.AsciiStrnLenS
                0x00000000000074fc       0x3c /tmp/ccgdRr0t.ltrans0.ltrans.o
                0x00000000000074fc                AsciiStrnLenS
 .text.StrnLenS
                0x0000000000007538       0x7c /tmp/ccgdRr0t.ltrans0.ltrans.o
                0x0000000000007538                StrnLenS
 .text.InternalSafeStringIsOverlap
                0x00000000000075b4       0x3c /tmp/ccgdRr0t.ltrans0.ltrans.o
                0x00000000000075b4                InternalSafeStringIsOverlap
 .text.AsciiStrToUnicodeStrS
                0x00000000000075f0      0x144 /tmp/ccgdRr0t.ltrans0.ltrans.o
 .text.BmGetDescriptionFromDiskInfo
                0x0000000000007734      0x2a8 /tmp/ccgdRr0t.ltrans0.ltrans.o
 .text.InternalSafeStringNoStrOverlap
                0x00000000000079dc       0x24 /tmp/ccgdRr0t.ltrans0.ltrans.o
                0x00000000000079dc                InternalSafeStringNoStrOverlap
 .text.StrCatS  0x0000000000007a00      0x224 /tmp/ccgdRr0t.ltrans0.ltrans.o
                0x0000000000007a00                StrCatS
 .text.BmGetUsbDescription
                0x0000000000007c24      0x1d4 /tmp/ccgdRr0t.ltrans0.ltrans.o
 .text.StrnCpyS
                0x0000000000007df8      0x214 /tmp/ccgdRr0t.ltrans0.ltrans.o
                0x0000000000007df8                StrnCpyS
 .text.StrCpyS  0x000000000000800c      0x1cc /tmp/ccgdRr0t.ltrans0.ltrans.o
                0x000000000000800c                StrCpyS
 .text.LibAppendFileName
                0x00000000000081d8      0x1c8 /tmp/ccgdRr0t.ltrans0.ltrans.o
 .text.LibCreateNewFile
                0x00000000000083a0      0x29c /tmp/ccgdRr0t.ltrans0.ltrans.o
 .text.LibCallback
                0x000000000000863c      0x514 /tmp/ccgdRr0t.ltrans0.ltrans.o
                0x000000000000863c                LibCallback
 .text.BmGetBootDescription
                0x0000000000008b50      0x1b4 /tmp/ccgdRr0t.ltrans0.ltrans.o
 .text.EfiBootManagerRefreshAllBootOption
                0x0000000000008d04      0x700 /tmp/ccgdRr0t.ltrans0.ltrans.o
                0x0000000000008d04                EfiBootManagerRefreshAllBootOption
 .text.__memset.lto_priv.181
                0x0000000000009404       0x1c /tmp/ccgdRr0t.ltrans0.ltrans.o
                0x0000000000009404                __memset.lto_priv.181
                0x0000000000009404                memset
 .text.lv_draw_rect
                0x0000000000009420     0x2b28 /tmp/ccgdRr0t.ltrans0.ltrans.o
                0x0000000000009420                lv_draw_rect
 .text.lv_obj_design
                0x000000000000bf48       0xf4 /tmp/ccgdRr0t.ltrans0.ltrans.o
 .text.lv_refr_task
                0x000000000000c03c      0x2f4 /tmp/ccgdRr0t.ltrans0.ltrans.o
 .text.__memcpy.lto_priv.134
                0x000000000000c330       0x20 /tmp/ccgdRr0t.ltrans0.ltrans.o
                0x000000000000c330                memcpy
                0x000000000000c330                __memcpy.lto_priv.134
 .text.lv_style_copy
                0x000000000000c350        0x8 /tmp/ccgdRr0t.ltrans0.ltrans.o
                0x000000000000c350                lv_style_copy
 .text.create_title_with_text.part.0
                0x000000000000c358       0xb0 /tmp/ccgdRr0t.ltrans0.ltrans.o
 .text.create_label_with_text
                0x000000000000c408       0xb8 /tmp/ccgdRr0t.ltrans0.ltrans.o
 .text.SystemInfoEntry
                0x000000000000c4c0      0x14c /tmp/ccgdRr0t.ltrans0.ltrans.o
 .text.lv_init  0x000000000000c60c      0x724 /tmp/ccgdRr0t.ltrans0.ltrans.o
 .text._ModuleEntryPoint
                0x000000000000cd30     0x1d44 /tmp/ccgdRr0t.ltrans0.ltrans.o
                0x000000000000cd30                _ModuleEntryPoint
 .text.BmCachePartitionDevicePath
                0x000000000000ea74       0xcc /tmp/ccgdRr0t.ltrans0.ltrans.o
 .text.BmGetNextLoadOptionDevicePath
                0x000000000000eb40      0xd3c /tmp/ccgdRr0t.ltrans0.ltrans.o
 .text.EfiBootManagerBoot
                0x000000000000f87c     0x12a8 /tmp/ccgdRr0t.ltrans0.ltrans.o
                0x000000000000f87c                EfiBootManagerBoot
 .text.lv_anim_path_linear
                0x0000000000010b24       0x38 /tmp/ccgdRr0t.ltrans1.ltrans.o
                0x0000000000010b24                lv_anim_path_linear
 .text.lv_label_revert_dots
                0x0000000000010b5c       0x74 /tmp/ccgdRr0t.ltrans1.ltrans.o
 .text.ent_get_next
                0x0000000000010bd0       0x34 /tmp/ccgdRr0t.ltrans1.ltrans.o
 .text.lv_ufs_dir_close
                0x0000000000010c04        0x8 /tmp/ccgdRr0t.ltrans1.ltrans.o
                0x0000000000010c04                lv_ufs_dir_close
 .text.lv_ufs_dir_open
                0x0000000000010c0c       0x18 /tmp/ccgdRr0t.ltrans1.ltrans.o
                0x0000000000010c0c                lv_ufs_dir_open
 .text.lv_ufs_size
                0x0000000000010c24       0x14 /tmp/ccgdRr0t.ltrans1.ltrans.o
                0x0000000000010c24                lv_ufs_size
 .text.lv_ufs_tell
                0x0000000000010c38       0x10 /tmp/ccgdRr0t.ltrans1.ltrans.o
                0x0000000000010c38                lv_ufs_tell
 .text.lv_ufs_close
                0x0000000000010c48       0x20 /tmp/ccgdRr0t.ltrans1.ltrans.o
                0x0000000000010c48                lv_ufs_close
 .text.lv_ufs_ready
                0x0000000000010c68        0xc /tmp/ccgdRr0t.ltrans1.ltrans.o
                0x0000000000010c68                lv_ufs_ready
 .text.ent_trunc
                0x0000000000010c74       0x78 /tmp/ccgdRr0t.ltrans1.ltrans.o
 .text.lv_anim_speed_to_time
                0x0000000000010cec       0x30 /tmp/ccgdRr0t.ltrans1.ltrans.o
 .text.lv_area_set_pos
                0x0000000000010d1c       0x3c /tmp/ccgdRr0t.ltrans1.ltrans.o
 .text.lv_font_get_width_continuous
                0x0000000000010d58       0x34 /tmp/ccgdRr0t.ltrans1.ltrans.o
                0x0000000000010d58                lv_font_get_width_continuous
 .text.lv_font_get_bitmap_continuous
                0x0000000000010d8c       0x3c /tmp/ccgdRr0t.ltrans1.ltrans.o
                0x0000000000010d8c                lv_font_get_bitmap_continuous
 .text.lv_label_set_offset_y
                0x0000000000010dc8        0xc /tmp/ccgdRr0t.ltrans1.ltrans.o
 .text.lv_label_set_offset_x
                0x0000000000010dd4        0xc /tmp/ccgdRr0t.ltrans1.ltrans.o
 .text.lv_page_design
                0x0000000000010de0      0x1bc /tmp/ccgdRr0t.ltrans1.ltrans.o
 .text.get_button_text
                0x0000000000010f9c       0xa4 /tmp/ccgdRr0t.ltrans1.ltrans.o
 .text.get_button_from_point
                0x0000000000011040       0xe4 /tmp/ccgdRr0t.ltrans1.ltrans.o
 .text.lv_btnm_design.lto_priv.127
                0x0000000000011124      0x2ec /tmp/ccgdRr0t.ltrans1.ltrans.o
                0x0000000000011124                lv_btnm_design.lto_priv.127
 .text.lv_log_add
                0x0000000000011410       0x74 /tmp/ccgdRr0t.ltrans1.ltrans.o
                0x0000000000011410                lv_log_add
 .text.lv_indev_is_dragging
                0x0000000000011484       0x2c /tmp/ccgdRr0t.ltrans1.ltrans.o
                0x0000000000011484                lv_indev_is_dragging
 .text.lv_page_sb_refresh
                0x00000000000114b0      0x45c /tmp/ccgdRr0t.ltrans1.ltrans.o
 .text.lv_page_set_style
                0x000000000001190c       0x80 /tmp/ccgdRr0t.ltrans1.ltrans.o
 .text.lv_page_scrollable_signal
                0x000000000001198c      0x2ec /tmp/ccgdRr0t.ltrans1.ltrans.o
 .text.lv_indev_get_point
                0x0000000000011c78       0x34 /tmp/ccgdRr0t.ltrans1.ltrans.o
                0x0000000000011c78                lv_indev_get_point
 .text.tabpage_pressing_handler
                0x0000000000011cac      0x15c /tmp/ccgdRr0t.ltrans1.ltrans.o
 .text.lv_group_get_editing
                0x0000000000011e08       0x18 /tmp/ccgdRr0t.ltrans1.ltrans.o
                0x0000000000011e08                lv_group_get_editing
 .text.lv_group_get_focused
                0x0000000000011e20       0x1c /tmp/ccgdRr0t.ltrans1.ltrans.o
                0x0000000000011e20                lv_group_get_focused
 .text.lv_group_send_data
                0x0000000000011e3c       0x2c /tmp/ccgdRr0t.ltrans1.ltrans.o
 .text.lv_label_design
                0x0000000000011e68      0x1b4 /tmp/ccgdRr0t.ltrans1.ltrans.o
 .text.lv_group_mod_style
                0x000000000001201c      0x1b0 /tmp/ccgdRr0t.ltrans1.ltrans.o
                0x000000000001201c                lv_group_mod_style
 .text.lv_scrl_design
                0x00000000000121cc       0xe0 /tmp/ccgdRr0t.ltrans1.ltrans.o
 .text.lv_group_set_editing
                0x00000000000122ac       0x58 /tmp/ccgdRr0t.ltrans1.ltrans.o
                0x00000000000122ac                lv_group_set_editing
 .text.lv_theme_set_current
                0x0000000000012304        0xc /tmp/ccgdRr0t.ltrans1.ltrans.o
                0x0000000000012304                lv_theme_set_current
 .text.lv_win_realign.lto_priv.131
                0x0000000000012310      0x194 /tmp/ccgdRr0t.ltrans1.ltrans.o
                0x0000000000012310                lv_win_realign.lto_priv.131
 .text.lv_win_signal.lto_priv.128
                0x00000000000124a4      0x190 /tmp/ccgdRr0t.ltrans1.ltrans.o
                0x00000000000124a4                lv_win_signal.lto_priv.128
 .text.lv_win_set_style
                0x0000000000012634      0x108 /tmp/ccgdRr0t.ltrans1.ltrans.o
                0x0000000000012634                lv_win_set_style
 .text.lv_page_set_sb_mode
                0x000000000001273c       0x88 /tmp/ccgdRr0t.ltrans1.ltrans.o
                0x000000000001273c                lv_page_set_sb_mode
 .text.lv_cont_set_fit
                0x00000000000127c4       0x80 /tmp/ccgdRr0t.ltrans1.ltrans.o
                0x00000000000127c4                lv_cont_set_fit
 .text.lv_cont_set_layout
                0x0000000000012844       0x34 /tmp/ccgdRr0t.ltrans1.ltrans.o
                0x0000000000012844                lv_cont_set_layout
 .text.lv_cont_create
                0x0000000000012878      0x118 /tmp/ccgdRr0t.ltrans1.ltrans.o
                0x0000000000012878                lv_cont_create
 .text.lv_win_add_btn
                0x0000000000012990      0x348 /tmp/ccgdRr0t.ltrans1.ltrans.o
                0x0000000000012990                lv_win_add_btn
 .text.lv_page_create
                0x0000000000012cd8      0x2e4 /tmp/ccgdRr0t.ltrans1.ltrans.o
                0x0000000000012cd8                lv_page_create
 .text.lv_label_set_align
                0x0000000000012fbc       0x28 /tmp/ccgdRr0t.ltrans1.ltrans.o
                0x0000000000012fbc                lv_label_set_align
 .text.lv_mem_alloc.part.0
                0x0000000000012fe4       0xa4 /tmp/ccgdRr0t.ltrans1.ltrans.o
                0x0000000000012fe4                lv_mem_alloc.part.0
 .text.lv_mem_free
                0x0000000000013088       0x6c /tmp/ccgdRr0t.ltrans1.ltrans.o
                0x0000000000013088                lv_mem_free
 .text.lv_mem_alloc
                0x00000000000130f4       0x14 /tmp/ccgdRr0t.ltrans1.ltrans.o
                0x00000000000130f4                lv_mem_alloc
 .text.lv_btnm_set_map.part.7
                0x0000000000013108      0x348 /tmp/ccgdRr0t.ltrans1.ltrans.o
                0x0000000000013108                lv_btnm_set_map.part.7
 .text.lv_fs_read
                0x0000000000013450       0x64 /tmp/ccgdRr0t.ltrans1.ltrans.o
                0x0000000000013450                lv_fs_read
 .text.lv_fs_close
                0x00000000000134b4       0x5c /tmp/ccgdRr0t.ltrans1.ltrans.o
                0x00000000000134b4                lv_fs_close
 .text.lv_area_is_in
                0x0000000000013510       0x4c /tmp/ccgdRr0t.ltrans1.ltrans.o
                0x0000000000013510                lv_area_is_in
 .text.lv_area_intersect
                0x000000000001355c       0x88 /tmp/ccgdRr0t.ltrans1.ltrans.o
                0x000000000001355c                lv_area_intersect
 .text.lv_area_get_size
                0x00000000000135e4       0x24 /tmp/ccgdRr0t.ltrans1.ltrans.o
                0x00000000000135e4                lv_area_get_size
 .text.lv_circ_next
                0x0000000000013608       0x58 /tmp/ccgdRr0t.ltrans1.ltrans.o
                0x0000000000013608                lv_circ_next
 .text.lv_font_get_width
                0x0000000000013660       0x60 /tmp/ccgdRr0t.ltrans1.ltrans.o
                0x0000000000013660                lv_font_get_width
 .text.lv_font_add
                0x00000000000136c0       0x1c /tmp/ccgdRr0t.ltrans1.ltrans.o
                0x00000000000136c0                lv_font_add
 .text.lv_tick_get
                0x00000000000136dc       0x28 /tmp/ccgdRr0t.ltrans1.ltrans.o
                0x00000000000136dc                lv_tick_get
 .text.lv_btnm_signal.lto_priv.126
                0x0000000000013704      0x634 /tmp/ccgdRr0t.ltrans1.ltrans.o
                0x0000000000013704                lv_btnm_signal.lto_priv.126
 .text.lv_tick_elaps
                0x0000000000013d38       0x1c /tmp/ccgdRr0t.ltrans1.ltrans.o
                0x0000000000013d38                lv_tick_elaps
 .text.lv_indev_drv_init
                0x0000000000013d54        0xc /tmp/ccgdRr0t.ltrans1.ltrans.o
                0x0000000000013d54                lv_indev_drv_init
 .text.antialias_get_opa_circ.lto_priv.198
                0x0000000000013d60       0x54 /tmp/ccgdRr0t.ltrans1.ltrans.o
                0x0000000000013d60                antialias_get_opa_circ.lto_priv.198
 .text.lv_draw_cont_radius_corr.lto_priv.196
                0x0000000000013db4       0x50 /tmp/ccgdRr0t.ltrans1.ltrans.o
                0x0000000000013db4                lv_draw_cont_radius_corr.lto_priv.196
 .text.lv_ufs_free
                0x0000000000013e04       0xa4 /tmp/ccgdRr0t.ltrans1.ltrans.o
                0x0000000000013e04                lv_ufs_free
 .text.lv_ufs_read
                0x0000000000013ea8       0x8c /tmp/ccgdRr0t.ltrans1.ltrans.o
                0x0000000000013ea8                lv_ufs_read
 .text.node_set_prev.isra.2.lto_priv.133
                0x0000000000013f34       0x40 /tmp/ccgdRr0t.ltrans1.ltrans.o
                0x0000000000013f34                node_set_prev.isra.2.lto_priv.133
 .text.node_set_next.isra.0.lto_priv.132
                0x0000000000013f74       0x44 /tmp/ccgdRr0t.ltrans1.ltrans.o
                0x0000000000013f74                node_set_next.isra.0.lto_priv.132
 .text.lv_ll_ins_tail
                0x0000000000013fb8       0x78 /tmp/ccgdRr0t.ltrans1.ltrans.o
                0x0000000000013fb8                lv_ll_ins_tail
 .text.lv_ll_ins_head
                0x0000000000014030       0x78 /tmp/ccgdRr0t.ltrans1.ltrans.o
                0x0000000000014030                lv_ll_ins_head
 .text.lv_ll_get_prev
                0x00000000000140a8       0x30 /tmp/ccgdRr0t.ltrans1.ltrans.o
                0x00000000000140a8                lv_ll_get_prev
 .text.lv_group_focus_prev
                0x00000000000140d8       0xb0 /tmp/ccgdRr0t.ltrans1.ltrans.o
 .text.lv_ll_get_next
                0x0000000000014188       0x34 /tmp/ccgdRr0t.ltrans1.ltrans.o
                0x0000000000014188                lv_ll_get_next
 .text.lv_group_focus_next
                0x00000000000141bc       0xb0 /tmp/ccgdRr0t.ltrans1.ltrans.o
                0x00000000000141bc                lv_group_focus_next
 .text.indev_proc_task.lto_priv.185
                0x000000000001426c      0x4b8 /tmp/ccgdRr0t.ltrans1.ltrans.o
                0x000000000001426c                indev_proc_task.lto_priv.185
 .text.lv_cont_refr_autofit
                0x0000000000014724      0x1f4 /tmp/ccgdRr0t.ltrans1.ltrans.o
 .text.lv_cont_refr_layout
                0x0000000000014918      0x6f0 /tmp/ccgdRr0t.ltrans1.ltrans.o
 .text.lv_cont_signal
                0x0000000000015008      0x104 /tmp/ccgdRr0t.ltrans1.ltrans.o
 .text.lv_ufs_ent_get
                0x000000000001510c       0x60 /tmp/ccgdRr0t.ltrans1.ltrans.o
 .text.lv_ufs_open
                0x000000000001516c      0x138 /tmp/ccgdRr0t.ltrans1.ltrans.o
                0x000000000001516c                lv_ufs_open
 .text.lv_ufs_dir_read
                0x00000000000152a4       0x60 /tmp/ccgdRr0t.ltrans1.ltrans.o
                0x00000000000152a4                lv_ufs_dir_read
 .text.lv_ll_rem
                0x0000000000015304       0xe8 /tmp/ccgdRr0t.ltrans1.ltrans.o
 .text.lv_ufs_remove
                0x00000000000153ec       0x70 /tmp/ccgdRr0t.ltrans1.ltrans.o
                0x00000000000153ec                lv_ufs_remove
 .text.lv_ll_chg_list
                0x000000000001545c       0x6c /tmp/ccgdRr0t.ltrans1.ltrans.o
                0x000000000001545c                lv_ll_chg_list
 .text.lv_task_exec
                0x00000000000154c8       0xa4 /tmp/ccgdRr0t.ltrans1.ltrans.o
 .text.anim_task.lto_priv.189
                0x000000000001556c      0x1a8 /tmp/ccgdRr0t.ltrans1.ltrans.o
                0x000000000001556c                anim_task.lto_priv.189
 .text.lv_anim_del
                0x0000000000015714       0xac /tmp/ccgdRr0t.ltrans1.ltrans.o
                0x0000000000015714                lv_anim_del
 .text.lv_task_handler
                0x00000000000157c0      0x178 /tmp/ccgdRr0t.ltrans1.ltrans.o
                0x00000000000157c0                lv_task_handler
 .text.lv_mem_realloc
                0x0000000000015938       0xdc /tmp/ccgdRr0t.ltrans1.ltrans.o
                0x0000000000015938                lv_mem_realloc
 .text.lv_ufs_trunc
                0x0000000000015a14       0x70 /tmp/ccgdRr0t.ltrans1.ltrans.o
                0x0000000000015a14                lv_ufs_trunc
 .text.lv_ufs_seek
                0x0000000000015a84       0x8c /tmp/ccgdRr0t.ltrans1.ltrans.o
                0x0000000000015a84                lv_ufs_seek
 .text.lv_ufs_write
                0x0000000000015b10       0xc8 /tmp/ccgdRr0t.ltrans1.ltrans.o
                0x0000000000015b10                lv_ufs_write
 .text.lv_anim_create
                0x0000000000015bd8       0x98 /tmp/ccgdRr0t.ltrans1.ltrans.o
                0x0000000000015bd8                lv_anim_create
 .text.lv_page_scroll_ver
                0x0000000000015c70       0x7c /tmp/ccgdRr0t.ltrans1.ltrans.o
 .text.lv_page_scroll_hor
                0x0000000000015cec       0x7c /tmp/ccgdRr0t.ltrans1.ltrans.o
 .text.lv_page_signal
                0x0000000000015d68      0x3d8 /tmp/ccgdRr0t.ltrans1.ltrans.o
 .text.lv_label_refr_text
                0x0000000000016140      0x6b4 /tmp/ccgdRr0t.ltrans1.ltrans.o
 .text.lv_label_signal
                0x00000000000167f4      0x16c /tmp/ccgdRr0t.ltrans1.ltrans.o
 .text.lv_label_set_long_mode
                0x0000000000016960       0xbc /tmp/ccgdRr0t.ltrans1.ltrans.o
                0x0000000000016960                lv_label_set_long_mode
 .text.lv_label_set_text
                0x0000000000016a1c       0xec /tmp/ccgdRr0t.ltrans1.ltrans.o
                0x0000000000016a1c                lv_label_set_text
 .text.lv_label_create
                0x0000000000016b08      0x2d0 /tmp/ccgdRr0t.ltrans1.ltrans.o
                0x0000000000016b08                lv_label_create
 .text.lv_tabview_set_tab_act
                0x0000000000016dd8      0x1e8 /tmp/ccgdRr0t.ltrans1.ltrans.o
 .text.tabview_realign.lto_priv.130
                0x0000000000016fc0      0x1d0 /tmp/ccgdRr0t.ltrans1.ltrans.o
                0x0000000000016fc0                tabview_realign.lto_priv.130
 .text.lv_tabview_signal.lto_priv.124
                0x0000000000017190      0x1c4 /tmp/ccgdRr0t.ltrans1.ltrans.o
                0x0000000000017190                lv_tabview_signal.lto_priv.124
 .text.tab_btnm_action.lto_priv.125
                0x0000000000017354       0x74 /tmp/ccgdRr0t.ltrans1.ltrans.o
                0x0000000000017354                tab_btnm_action.lto_priv.125
 .text.tabpage_press_lost_handler
                0x00000000000173c8      0x120 /tmp/ccgdRr0t.ltrans1.ltrans.o
 .text.tabpage_scrl_signal
                0x00000000000174e8       0xa4 /tmp/ccgdRr0t.ltrans1.ltrans.o
 .text.tabpage_signal
                0x000000000001758c       0xa8 /tmp/ccgdRr0t.ltrans1.ltrans.o
 .text.lv_tabview_add_tab
                0x0000000000017634      0x280 /tmp/ccgdRr0t.ltrans1.ltrans.o
                0x0000000000017634                lv_tabview_add_tab
 .text.lv_indev_drv_register
                0x00000000000178b4       0x80 /tmp/ccgdRr0t.ltrans1.ltrans.o
                0x00000000000178b4                lv_indev_drv_register
 .text.BootManagerExtractConfig
                0x0000000000017934       0x24 /tmp/ccgdRr0t.ltrans2.ltrans.o
 .text.DeviceManagerExtractConfig
                0x0000000000017958       0x24 /tmp/ccgdRr0t.ltrans2.ltrans.o
 .text.lv_img_src_get_type
                0x000000000001797c       0x34 /tmp/ccgdRr0t.ltrans2.ltrans.o
 .text.lv_txt_utf8_get_length.lto_priv.169
                0x00000000000179b0       0x54 /tmp/ccgdRr0t.ltrans2.ltrans.o
                0x00000000000179b0                lv_txt_utf8_get_length.lto_priv.169
 .text.lv_txt_utf8_get_char_id.lto_priv.170
                0x0000000000017a04       0x58 /tmp/ccgdRr0t.ltrans2.ltrans.o
                0x0000000000017a04                lv_txt_utf8_get_char_id.lto_priv.170
 .text.lv_txt_utf8_get_byte_id.lto_priv.168
                0x0000000000017a5c       0x50 /tmp/ccgdRr0t.ltrans2.ltrans.o
                0x0000000000017a5c                lv_txt_utf8_get_byte_id.lto_priv.168
 .text.lv_txt_utf8_prev
                0x0000000000017aac       0x7c /tmp/ccgdRr0t.ltrans2.ltrans.o
 .text.lv_txt_utf8_next.lto_priv.172
                0x0000000000017b28      0x138 /tmp/ccgdRr0t.ltrans2.ltrans.o
                0x0000000000017b28                lv_txt_utf8_next.lto_priv.172
 .text.lv_txt_utf8_size.lto_priv.171
                0x0000000000017c60       0x4c /tmp/ccgdRr0t.ltrans2.ltrans.o
                0x0000000000017c60                lv_txt_utf8_size.lto_priv.171
 .text.hex_char_to_num
                0x0000000000017cac       0x40 /tmp/ccgdRr0t.ltrans2.ltrans.o
 .text.DmExtractDevicePathFromHiiHandle
                0x0000000000017cec       0x78 /tmp/ccgdRr0t.ltrans2.ltrans.o
 .text.BmSetConsoleMode
                0x0000000000017d64      0x49c /tmp/ccgdRr0t.ltrans2.ltrans.o
 .text.BootMaintExtractConfig
                0x0000000000018200      0x23c /tmp/ccgdRr0t.ltrans2.ltrans.o
                0x0000000000018200                BootMaintExtractConfig
 .text.UpdateConsoleContent
                0x000000000001843c      0x378 /tmp/ccgdRr0t.ltrans2.ltrans.o
 .text.BootMaintCallback
                0x00000000000187b4     0x18f0 /tmp/ccgdRr0t.ltrans2.ltrans.o
                0x00000000000187b4                BootMaintCallback
 .text.BootManagerCallback
                0x000000000001a0a4      0x7f4 /tmp/ccgdRr0t.ltrans2.ltrans.o
 .text.BootManagerRouteConfig
                0x000000000001a898        0x4 /tmp/ccgdRr0t.ltrans2.ltrans.o
 .text.DeviceManagerRouteConfig
                0x000000000001a89c        0x4 /tmp/ccgdRr0t.ltrans2.ltrans.o
 .text.IsMacAddressDevicePath
                0x000000000001a8a0      0x344 /tmp/ccgdRr0t.ltrans2.ltrans.o
 .text.lv_img_built_in_decoder_line_indexed
                0x000000000001abe4      0x214 /tmp/ccgdRr0t.ltrans2.ltrans.o
 .text.lv_img_built_in_decoder_line_alpha
                0x000000000001adf8      0x294 /tmp/ccgdRr0t.ltrans2.ltrans.o
 .text.lv_img_decoder_close
                0x000000000001b08c       0x64 /tmp/ccgdRr0t.ltrans2.ltrans.o
 .text.lv_img_dsc_get_info
                0x000000000001b0f0      0x144 /tmp/ccgdRr0t.ltrans2.ltrans.o
 .text.lv_img_decoder_open
                0x000000000001b234      0x1e8 /tmp/ccgdRr0t.ltrans2.ltrans.o
 .text.lv_btn_ink_effect_anim
                0x000000000001b41c       0x14 /tmp/ccgdRr0t.ltrans2.ltrans.o
 .text.lv_btn_ink_effect_anim_ready
                0x000000000001b430       0xd0 /tmp/ccgdRr0t.ltrans2.ltrans.o
 .text.lv_btn_set_state
                0x000000000001b500       0x28 /tmp/ccgdRr0t.ltrans2.ltrans.o
 .text.lv_btn_signal.lto_priv.157
                0x000000000001b528      0x498 /tmp/ccgdRr0t.ltrans2.ltrans.o
                0x000000000001b528                lv_btn_signal.lto_priv.157
 .text.indev_search_obj
                0x000000000001b9c0       0xc0 /tmp/ccgdRr0t.ltrans2.ltrans.o
 .text.UiDevicePathToStr
                0x000000000001ba80       0xec /tmp/ccgdRr0t.ltrans2.ltrans.o
                0x000000000001ba80                UiDevicePathToStr
 .text.BootMaintRouteConfig
                0x000000000001bb6c     0x10c8 /tmp/ccgdRr0t.ltrans2.ltrans.o
                0x000000000001bb6c                BootMaintRouteConfig
 .text.ExtractFileNameFromDevicePath
                0x000000000001cc34       0xb4 /tmp/ccgdRr0t.ltrans2.ltrans.o
                0x000000000001cc34                ExtractFileNameFromDevicePath
 .text.BmmSetConsoleMode
                0x000000000001cce8      0x49c /tmp/ccgdRr0t.ltrans2.ltrans.o
                0x000000000001cce8                BmmSetConsoleMode
 .text.CreateDeviceManagerForm
                0x000000000001d184      0x5e0 /tmp/ccgdRr0t.ltrans2.ltrans.o
                0x000000000001d184                CreateDeviceManagerForm
 .text.DeviceManagerCallback
                0x000000000001d764       0xd4 /tmp/ccgdRr0t.ltrans2.ltrans.o
 .text.lv_color_mix.isra.0.lto_priv.143.lto_priv.182
                0x000000000001d838       0x68 /tmp/ccgdRr0t.ltrans2.ltrans.o
                0x000000000001d838                lv_color_mix.isra.0.lto_priv.144.lto_priv.197
                0x000000000001d838                lv_color_mix.isra.0.lto_priv.145.lto_priv.176
                0x000000000001d838                lv_color_mix.isra.0.lto_priv.143.lto_priv.182
 .text.lv_vletter
                0x000000000001d8a0      0x560 /tmp/ccgdRr0t.ltrans2.ltrans.o
 .text.lv_vpx   0x000000000001de00      0x154 /tmp/ccgdRr0t.ltrans2.ltrans.o
                0x000000000001de00                lv_vpx
 .text.lv_btn_design.lto_priv.158
                0x000000000001df54      0x5f4 /tmp/ccgdRr0t.ltrans2.ltrans.o
                0x000000000001df54                lv_btn_design.lto_priv.158
 .text.lv_btn_set_style
                0x000000000001e548       0x60 /tmp/ccgdRr0t.ltrans2.ltrans.o
                0x000000000001e548                lv_btn_set_style
 .text.lv_txt_is_cmd
                0x000000000001e5a8       0x68 /tmp/ccgdRr0t.ltrans2.ltrans.o
                0x000000000001e5a8                lv_txt_is_cmd
 .text.lv_txt_get_width
                0x000000000001e610       0xc4 /tmp/ccgdRr0t.ltrans2.ltrans.o
                0x000000000001e610                lv_txt_get_width
 .text.lv_txt_get_next_line
                0x000000000001e6d4      0x1a8 /tmp/ccgdRr0t.ltrans2.ltrans.o
                0x000000000001e6d4                lv_txt_get_next_line
 .text.lv_txt_get_size
                0x000000000001e87c      0x12c /tmp/ccgdRr0t.ltrans2.ltrans.o
                0x000000000001e87c                lv_txt_get_size
 .text.lv_img_set_src
                0x000000000001e9a8      0x1ec /tmp/ccgdRr0t.ltrans2.ltrans.o
                0x000000000001e9a8                lv_img_set_src
 .text.lv_img_signal.lto_priv.153
                0x000000000001eb94       0xf0 /tmp/ccgdRr0t.ltrans2.ltrans.o
                0x000000000001eb94                lv_img_signal.lto_priv.153
 .text.lv_color_hsv_to_rgb
                0x000000000001ec84      0x120 /tmp/ccgdRr0t.ltrans2.ltrans.o
                0x000000000001ec84                lv_color_hsv_to_rgb
 .text.lv_draw_aa_get_opa
                0x000000000001eda4       0x5c /tmp/ccgdRr0t.ltrans2.ltrans.o
                0x000000000001eda4                lv_draw_aa_get_opa
 .text.indev_proc_reset_query_handler.lto_priv.173
                0x000000000001ee00       0x30 /tmp/ccgdRr0t.ltrans2.ltrans.o
                0x000000000001ee00                indev_proc_reset_query_handler.lto_priv.173
 .text.indev_proc_press.lto_priv.175
                0x000000000001ee30      0x34c /tmp/ccgdRr0t.ltrans2.ltrans.o
                0x000000000001ee30                indev_proc_press.lto_priv.175
 .text.lv_area_copy.lto_priv.136.lto_priv.178
                0x000000000001f17c        0x8 /tmp/ccgdRr0t.ltrans2.ltrans.o
                0x000000000001f17c                lv_area_copy.lto_priv.139.lto_priv.180
                0x000000000001f17c                lv_area_copy.lto_priv.141.lto_priv.177
                0x000000000001f17c                lv_area_copy.lto_priv.138.lto_priv.195
                0x000000000001f17c                lv_area_copy.lto_priv.137.lto_priv.199
                0x000000000001f17c                lv_area_copy.lto_priv.136.lto_priv.178
                0x000000000001f17c                lv_area_copy.lto_priv.140.lto_priv.179
 .text.indev_proc_release.lto_priv.174
                0x000000000001f184      0x2d4 /tmp/ccgdRr0t.ltrans2.ltrans.o
                0x000000000001f184                indev_proc_release.lto_priv.174
 .text.lv_vmap  0x000000000001f458      0x428 /tmp/ccgdRr0t.ltrans2.ltrans.o
 .text.lv_vfill
                0x000000000001f880      0x288 /tmp/ccgdRr0t.ltrans2.ltrans.o
                0x000000000001f880                lv_vfill
 .text.lv_draw_label
                0x000000000001fb08      0x3f8 /tmp/ccgdRr0t.ltrans2.ltrans.o
                0x000000000001fb08                lv_draw_label
 .text.lv_draw_img.part.2
                0x000000000001ff00       0x80 /tmp/ccgdRr0t.ltrans2.ltrans.o
 .text.lv_img_design.lto_priv.154
                0x000000000001ff80      0x614 /tmp/ccgdRr0t.ltrans2.ltrans.o
                0x000000000001ff80                lv_img_design.lto_priv.154
 .text.BasePrintLibSPrintMarker.constprop.115
                0x0000000000020594     0x108c /tmp/ccgdRr0t.ltrans3.ltrans.o
                0x0000000000020594                BasePrintLibSPrintMarker.constprop.115
 .text.unlikely.BasePrintLibSPrint.constprop.116
                0x0000000000021620       0x54 /tmp/ccgdRr0t.ltrans3.ltrans.o
 .text.UnicodeStrToAsciiStrS.constprop.110
                0x0000000000021674      0x154 /tmp/ccgdRr0t.ltrans3.ltrans.o
                0x0000000000021674                UnicodeStrToAsciiStrS.constprop.110
 .text.lv_btnm_set_toggle.constprop.109
                0x00000000000217c8       0x30 /tmp/ccgdRr0t.ltrans3.ltrans.o
                0x00000000000217c8                lv_btnm_set_toggle.constprop.109
 .text.lv_tabview_create.constprop.105
                0x00000000000217f8      0x50c /tmp/ccgdRr0t.ltrans3.ltrans.o
                0x00000000000217f8                lv_tabview_create.constprop.105
 .text.lv_fs_open.constprop.102
                0x0000000000021d04      0x134 /tmp/ccgdRr0t.ltrans3.ltrans.o
                0x0000000000021d04                lv_fs_open.constprop.102
 .text.lv_win_set_title.constprop.100
                0x0000000000021e38       0x34 /tmp/ccgdRr0t.ltrans3.ltrans.o
                0x0000000000021e38                lv_win_set_title.constprop.100
 .text.lv_win_create.constprop.99
                0x0000000000021e6c      0x278 /tmp/ccgdRr0t.ltrans3.ltrans.o
                0x0000000000021e6c                lv_win_create.constprop.99
 .text.lv_theme_material_init.constprop.98
                0x00000000000220e4      0xffc /tmp/ccgdRr0t.ltrans3.ltrans.o
                0x00000000000220e4                lv_theme_material_init.constprop.98
 .text.lv_disp_drv_init.constprop.95
                0x00000000000230e0       0x18 /tmp/ccgdRr0t.ltrans3.ltrans.o
                0x00000000000230e0                lv_disp_drv_init.constprop.95
 .text.lv_task_create.constprop.91
                0x00000000000230f8      0x19c /tmp/ccgdRr0t.ltrans3.ltrans.o
                0x00000000000230f8                lv_task_create.constprop.91
 .text.InternalAllocatePool.constprop.89
                0x0000000000023294       0x38 /tmp/ccgdRr0t.ltrans3.ltrans.o
                0x0000000000023294                InternalAllocatePool.constprop.89
 .text.EfiBootManagerAddLoadOptionVariable.constprop.87
                0x00000000000232cc      0x1e0 /tmp/ccgdRr0t.ltrans3.ltrans.o
                0x00000000000232cc                EfiBootManagerAddLoadOptionVariable.constprop.87
 .text.LShiftU64.constprop.85
                0x00000000000234ac        0x8 /tmp/ccgdRr0t.ltrans3.ltrans.o
                0x00000000000234ac                LShiftU64.constprop.85
 .text.EfiBootManagerGetLoadOptions.part.9.constprop.78
                0x00000000000234b4      0x1d4 /tmp/ccgdRr0t.ltrans3.ltrans.o
                0x00000000000234b4                EfiBootManagerGetLoadOptions.part.9.constprop.78
 .text.EndPerformanceMeasurementEx.constprop.76
                0x0000000000023688       0xe4 /tmp/ccgdRr0t.ltrans3.ltrans.o
                0x0000000000023688                EndPerformanceMeasurementEx.constprop.76
 .text.HiiCreateGuidOpCode.constprop.70
                0x000000000002376c       0x54 /tmp/ccgdRr0t.ltrans3.ltrans.o
                0x000000000002376c                HiiCreateGuidOpCode.constprop.70
 .text.HiiSetString.constprop.69
                0x00000000000237c0      0x164 /tmp/ccgdRr0t.ltrans3.ltrans.o
                0x00000000000237c0                HiiSetString.constprop.69
 .text.HiiCreateGotoExOpCode.constprop.64
                0x0000000000023924       0x94 /tmp/ccgdRr0t.ltrans3.ltrans.o
                0x0000000000023924                HiiCreateGotoExOpCode.constprop.64
 .text.UefiDevicePathLibConvertDevicePathToText.constprop.63
                0x00000000000239b8      0x12c /tmp/ccgdRr0t.ltrans3.ltrans.o
                0x00000000000239b8                UefiDevicePathLibConvertDevicePathToText.constprop.63
 .text.HiiGetString.constprop.61
                0x0000000000023ae4      0x188 /tmp/ccgdRr0t.ltrans3.ltrans.o
                0x0000000000023ae4                HiiGetString.constprop.61
 .text.HiiGetHiiHandles.constprop.59
                0x0000000000023c6c       0x94 /tmp/ccgdRr0t.ltrans3.ltrans.o
                0x0000000000023c6c                HiiGetHiiHandles.constprop.59
 .text.lv_tick_inc.constprop.51
                0x0000000000023d00       0x1c /tmp/ccgdRr0t.ltrans3.ltrans.o
                0x0000000000023d00                lv_tick_inc.constprop.51
 .text.StrnCatS.constprop.50
                0x0000000000023d1c      0x1c4 /tmp/ccgdRr0t.ltrans3.ltrans.o
                0x0000000000023d1c                StrnCatS.constprop.50
 .text.EfiAcquireLock.constprop.49
                0x0000000000023ee0       0x74 /tmp/ccgdRr0t.ltrans3.ltrans.o
                0x0000000000023ee0                EfiAcquireLock.constprop.49
 .text.EfiReleaseLock.constprop.48
                0x0000000000023f54       0x6c /tmp/ccgdRr0t.ltrans3.ltrans.o
                0x0000000000023f54                EfiReleaseLock.constprop.48
 .text.ReportStatusCodeEx.constprop.44
                0x0000000000023fc0      0x1fc /tmp/ccgdRr0t.ltrans3.ltrans.o
                0x0000000000023fc0                ReportStatusCodeEx.constprop.44
 .text.IsZeroGuid.constprop.37
                0x00000000000241bc       0x40 /tmp/ccgdRr0t.ltrans3.ltrans.o
                0x00000000000241bc                IsZeroGuid.constprop.37
 .text.HiiCreateActionOpCode.constprop.33
                0x00000000000241fc       0x68 /tmp/ccgdRr0t.ltrans3.ltrans.o
                0x00000000000241fc                HiiCreateActionOpCode.constprop.33
 .text.IsZeroBuffer.constprop.29
                0x0000000000024264       0x70 /tmp/ccgdRr0t.ltrans3.ltrans.o
                0x0000000000024264                IsZeroBuffer.constprop.29
 .text.ChooseFile.constprop.28
                0x00000000000242d4      0x41c /tmp/ccgdRr0t.ltrans3.ltrans.o
                0x00000000000242d4                ChooseFile.constprop.28
 .text.lv_fs_seek.constprop.26
                0x00000000000246f0       0x34 /tmp/ccgdRr0t.ltrans3.ltrans.o
                0x00000000000246f0                lv_fs_seek.constprop.26
 .text.CreatePopUp.constprop.25
                0x0000000000024724      0x4f4 /tmp/ccgdRr0t.ltrans3.ltrans.o
                0x0000000000024724                CreatePopUp.constprop.25
 .text.SetMem.constprop.23
                0x0000000000024c18       0x54 /tmp/ccgdRr0t.ltrans3.ltrans.o
                0x0000000000024c18                SetMem.constprop.23
 .text.HiiCreateSubTitleOpCode.constprop.22
                0x0000000000024c6c       0x60 /tmp/ccgdRr0t.ltrans3.ltrans.o
                0x0000000000024c6c                HiiCreateSubTitleOpCode.constprop.22
 .text.HiiConstructConfigHdr.constprop.21
                0x0000000000024ccc      0x218 /tmp/ccgdRr0t.ltrans3.ltrans.o
                0x0000000000024ccc                HiiConstructConfigHdr.constprop.21
 .text.lv_disp_drv_register.constprop.94
                0x0000000000024ee4       0x8c /tmp/ccgdRr0t.ltrans3.ltrans.o
                0x0000000000024ee4                lv_disp_drv_register.constprop.94
 .text.InternalBaseLibIsListValid
                0x0000000000024f70       0xb8 /tmp/ccgdRr0t.ltrans4.ltrans.o
 .text.InternalHiiCompareSubString
                0x0000000000025028       0xf8 /tmp/ccgdRr0t.ltrans4.ltrans.o
 .text.GetPcdProtocol
                0x0000000000025120       0xc4 /tmp/ccgdRr0t.ltrans4.ltrans.o
 .text.FbConFlush
                0x00000000000251e4       0x54 /tmp/ccgdRr0t.ltrans4.ltrans.o
 .text.EfiLibDeleteVariable.constprop.19
                0x0000000000025238       0x24 /tmp/ccgdRr0t.ltrans4.ltrans.o
                0x0000000000025238                EfiLibDeleteVariable.constprop.19
 .text.SetMem16
                0x000000000002525c       0xb8 /tmp/ccgdRr0t.ltrans4.ltrans.o
                0x000000000002525c                SetMem16
 .text.HiiRemovePackages
                0x0000000000025314       0xb4 /tmp/ccgdRr0t.ltrans4.ltrans.o
                0x0000000000025314                HiiRemovePackages
 .text.PerformanceMeasurementEnabled
                0x00000000000253c8        0x8 /tmp/ccgdRr0t.ltrans4.ltrans.o
                0x00000000000253c8                PerformanceMeasurementEnabled
 .text.GetPerformanceProtocol
                0x00000000000253d0      0x104 /tmp/ccgdRr0t.ltrans4.ltrans.o
                0x00000000000253d0                GetPerformanceProtocol
 .text.StartPerformanceMeasurementEx
                0x00000000000254d4       0xe8 /tmp/ccgdRr0t.ltrans4.ltrans.o
                0x00000000000254d4                StartPerformanceMeasurementEx
 .text.UefiLibGetStringWidth
                0x00000000000255bc       0x94 /tmp/ccgdRr0t.ltrans4.ltrans.o
                0x00000000000255bc                UefiLibGetStringWidth
 .text.DevicePathFromHandle
                0x0000000000025650       0x38 /tmp/ccgdRr0t.ltrans4.ltrans.o
                0x0000000000025650                DevicePathFromHandle
 .text.DevicePathSubType
                0x0000000000025688       0x48 /tmp/ccgdRr0t.ltrans4.ltrans.o
                0x0000000000025688                DevicePathSubType
 .text.DevicePathType
                0x00000000000256d0       0x48 /tmp/ccgdRr0t.ltrans4.ltrans.o
                0x00000000000256d0                DevicePathType
 .text.EfiGetNameGuidFromFwVolDevicePathNode
                0x0000000000025718       0x78 /tmp/ccgdRr0t.ltrans4.ltrans.o
                0x0000000000025718                EfiGetNameGuidFromFwVolDevicePathNode
 .text.IsDevicePathEndType
                0x0000000000025790       0x58 /tmp/ccgdRr0t.ltrans4.ltrans.o
                0x0000000000025790                IsDevicePathEndType
 .text.IsDevicePathEnd
                0x00000000000257e8       0x70 /tmp/ccgdRr0t.ltrans4.ltrans.o
                0x00000000000257e8                IsDevicePathEnd
 .text.FreePool
                0x0000000000025858       0x8c /tmp/ccgdRr0t.ltrans4.ltrans.o
                0x0000000000025858                FreePool
 .text.HiiIsConfigHdrMatch.constprop.20
                0x00000000000258e4       0xb4 /tmp/ccgdRr0t.ltrans4.ltrans.o
                0x00000000000258e4                HiiIsConfigHdrMatch.constprop.20
 .text.HiiFreeOpCodeHandle
                0x0000000000025998       0x54 /tmp/ccgdRr0t.ltrans4.ltrans.o
                0x0000000000025998                HiiFreeOpCodeHandle
 .text.AllocatePool
                0x00000000000259ec        0x4 /tmp/ccgdRr0t.ltrans4.ltrans.o
                0x00000000000259ec                AllocatePool
 .text.HiiAllocateOpCodeHandle
                0x00000000000259f0       0x54 /tmp/ccgdRr0t.ltrans4.ltrans.o
                0x00000000000259f0                HiiAllocateOpCodeHandle
 .text.RefreshUpdateData
                0x0000000000025a44       0x44 /tmp/ccgdRr0t.ltrans4.ltrans.o
 .text.Print    0x0000000000025a88      0x164 /tmp/ccgdRr0t.ltrans4.ltrans.o
                0x0000000000025a88                Print
 .text.FreePages
                0x0000000000025bec       0xc8 /tmp/ccgdRr0t.ltrans4.ltrans.o
                0x0000000000025bec                FreePages
 .text.SerialPortWrite
                0x0000000000025cb4      0x314 /tmp/ccgdRr0t.ltrans4.ltrans.o
                0x0000000000025cb4                SerialPortWrite
 .text.WriteUnaligned16
                0x0000000000025fc8       0x5c /tmp/ccgdRr0t.ltrans4.ltrans.o
                0x0000000000025fc8                WriteUnaligned16
 .text.SetDevicePathNodeLength
                0x0000000000026024       0x60 /tmp/ccgdRr0t.ltrans4.ltrans.o
                0x0000000000026024                SetDevicePathNodeLength
 .text.WriteUnaligned32
                0x0000000000026084       0x64 /tmp/ccgdRr0t.ltrans4.ltrans.o
                0x0000000000026084                WriteUnaligned32
 .text.WriteUnaligned64
                0x00000000000260e8       0x64 /tmp/ccgdRr0t.ltrans4.ltrans.o
 .text.ReadUnaligned16
                0x000000000002614c       0x68 /tmp/ccgdRr0t.ltrans4.ltrans.o
                0x000000000002614c                ReadUnaligned16
 .text.DevicePathNodeLength
                0x00000000000261b4       0x50 /tmp/ccgdRr0t.ltrans4.ltrans.o
                0x00000000000261b4                DevicePathNodeLength
 .text.NextDevicePathNode
                0x0000000000026204       0x50 /tmp/ccgdRr0t.ltrans4.ltrans.o
                0x0000000000026204                NextDevicePathNode
 .text.IsDevicePathValid
                0x0000000000026254       0xc4 /tmp/ccgdRr0t.ltrans4.ltrans.o
                0x0000000000026254                IsDevicePathValid
 .text.UefiDevicePathLibGetDevicePathSize
                0x0000000000026318       0x70 /tmp/ccgdRr0t.ltrans4.ltrans.o
                0x0000000000026318                UefiDevicePathLibGetDevicePathSize
 .text.ReadUnaligned32
                0x0000000000026388       0x5c /tmp/ccgdRr0t.ltrans4.ltrans.o
                0x0000000000026388                ReadUnaligned32
 .text.ReadUnaligned64
                0x00000000000263e4       0x64 /tmp/ccgdRr0t.ltrans4.ltrans.o
                0x00000000000263e4                ReadUnaligned64
 .text.IsNull   0x0000000000026448       0x5c /tmp/ccgdRr0t.ltrans4.ltrans.o
                0x0000000000026448                IsNull
 .text.IsListEmpty
                0x00000000000264a4       0x5c /tmp/ccgdRr0t.ltrans4.ltrans.o
                0x00000000000264a4                IsListEmpty
 .text.RemoveEntryList
                0x0000000000026500       0x64 /tmp/ccgdRr0t.ltrans4.ltrans.o
                0x0000000000026500                RemoveEntryList
 .text.GetNextNode
                0x0000000000026564       0x58 /tmp/ccgdRr0t.ltrans4.ltrans.o
                0x0000000000026564                GetNextNode
 .text.GetFirstNode
                0x00000000000265bc       0x54 /tmp/ccgdRr0t.ltrans4.ltrans.o
                0x00000000000265bc                GetFirstNode
 .text.InsertTailList
                0x0000000000026610       0x6c /tmp/ccgdRr0t.ltrans4.ltrans.o
                0x0000000000026610                InsertTailList
 .text.InitializeListHead
                0x000000000002667c       0x4c /tmp/ccgdRr0t.ltrans4.ltrans.o
                0x000000000002667c                InitializeListHead
 .text.InternalMemSetMem
                0x00000000000266c8       0xfc /tmp/ccgdRr0t.ltrans4.ltrans.o
                0x00000000000266c8                InternalMemSetMem
 .text.CompareGuid
                0x00000000000267c4       0x5c /tmp/ccgdRr0t.ltrans4.ltrans.o
                0x00000000000267c4                CompareGuid
 .text.CopyGuid
                0x0000000000026820       0x4c /tmp/ccgdRr0t.ltrans4.ltrans.o
                0x0000000000026820                CopyGuid
 .text.CopyMem  0x000000000002686c      0x2a8 /tmp/ccgdRr0t.ltrans4.ltrans.o
                0x000000000002686c                CopyMem
 .text.SetDevicePathEndNode
                0x0000000000026b14       0x54 /tmp/ccgdRr0t.ltrans4.ltrans.o
                0x0000000000026b14                SetDevicePathEndNode
 .text.AllocateCopyPool
                0x0000000000026b68       0x8c /tmp/ccgdRr0t.ltrans4.ltrans.o
                0x0000000000026b68                AllocateCopyPool
 .text.UefiDevicePathLibDuplicateDevicePath
                0x0000000000026bf4       0x34 /tmp/ccgdRr0t.ltrans4.ltrans.o
                0x0000000000026bf4                UefiDevicePathLibDuplicateDevicePath
 .text.UefiDevicePathLibGetNextDevicePathInstance
                0x0000000000026c28       0xd0 /tmp/ccgdRr0t.ltrans4.ltrans.o
                0x0000000000026c28                UefiDevicePathLibGetNextDevicePathInstance
 .text.UefiDevicePathLibAppendDevicePathInstance
                0x0000000000026cf8       0xdc /tmp/ccgdRr0t.ltrans4.ltrans.o
                0x0000000000026cf8                UefiDevicePathLibAppendDevicePathInstance
 .text.UefiDevicePathLibAppendDevicePath
                0x0000000000026dd4       0xcc /tmp/ccgdRr0t.ltrans4.ltrans.o
                0x0000000000026dd4                UefiDevicePathLibAppendDevicePath
 .text.UefiDevicePathLibAppendDevicePathNode
                0x0000000000026ea0       0x9c /tmp/ccgdRr0t.ltrans4.ltrans.o
                0x0000000000026ea0                UefiDevicePathLibAppendDevicePathNode
 .text.FileDevicePath
                0x0000000000026f3c       0xa0 /tmp/ccgdRr0t.ltrans4.ltrans.o
                0x0000000000026f3c                FileDevicePath
 .text.CompareMem
                0x0000000000026fdc       0xfc /tmp/ccgdRr0t.ltrans4.ltrans.o
                0x0000000000026fdc                CompareMem
 .text.ZeroMem  0x00000000000270d8       0x80 /tmp/ccgdRr0t.ltrans4.ltrans.o
                0x00000000000270d8                ZeroMem
 .text.ReallocatePool
                0x0000000000027158       0x6c /tmp/ccgdRr0t.ltrans4.ltrans.o
                0x0000000000027158                ReallocatePool
 .text.InternalHiiGrowOpCodeHandle
                0x00000000000271c4       0xbc /tmp/ccgdRr0t.ltrans4.ltrans.o
 .text.InternalHiiAppendOpCodes
                0x0000000000027280       0x8c /tmp/ccgdRr0t.ltrans4.ltrans.o
 .text.InternalHiiCreateOpCodeExtended
                0x000000000002730c       0xa4 /tmp/ccgdRr0t.ltrans4.ltrans.o
                0x000000000002730c                InternalHiiCreateOpCodeExtended
 .text.InternalHiiCreateOpCode
                0x00000000000273b0        0xc /tmp/ccgdRr0t.ltrans4.ltrans.o
                0x00000000000273b0                InternalHiiCreateOpCode
 .text.HiiCreateCheckBoxOpCode.constprop.5
                0x00000000000273bc       0x8c /tmp/ccgdRr0t.ltrans4.ltrans.o
                0x00000000000273bc                HiiCreateCheckBoxOpCode.constprop.5
 .text.HiiCreateGotoOpCode
                0x0000000000027448       0x74 /tmp/ccgdRr0t.ltrans4.ltrans.o
                0x0000000000027448                HiiCreateGotoOpCode
 .text.HiiCreateOneOfOptionOpCode
                0x00000000000274bc       0x7c /tmp/ccgdRr0t.ltrans4.ltrans.o
                0x00000000000274bc                HiiCreateOneOfOptionOpCode
 .text.HiiCreateEndOpCode
                0x0000000000027538       0x20 /tmp/ccgdRr0t.ltrans4.ltrans.o
                0x0000000000027538                HiiCreateEndOpCode
 .text.HiiCreateOneOfOpCode.constprop.16
                0x0000000000027558       0xec /tmp/ccgdRr0t.ltrans4.ltrans.o
                0x0000000000027558                HiiCreateOneOfOpCode.constprop.16
 .text.HiiGetFormSetFromHiiHandle
                0x0000000000027644      0x220 /tmp/ccgdRr0t.ltrans4.ltrans.o
                0x0000000000027644                HiiGetFormSetFromHiiHandle
 .text.UefiDevicePathLibCatPrint
                0x0000000000027864      0x15c /tmp/ccgdRr0t.ltrans4.ltrans.o
                0x0000000000027864                UefiDevicePathLibCatPrint
 .text.DevPathToTextNodeGeneric
                0x00000000000279c0      0x104 /tmp/ccgdRr0t.ltrans4.ltrans.o
                0x00000000000279c0                DevPathToTextNodeGeneric
 .text.DevPathToTextEndInstance
                0x0000000000027ac4        0xc /tmp/ccgdRr0t.ltrans4.ltrans.o
                0x0000000000027ac4                DevPathToTextEndInstance
 .text.DevPathToTextBBS
                0x0000000000027ad0       0xec /tmp/ccgdRr0t.ltrans4.ltrans.o
                0x0000000000027ad0                DevPathToTextBBS
 .text.DevPathToTextRamDisk
                0x0000000000027bbc      0x1a8 /tmp/ccgdRr0t.ltrans4.ltrans.o
                0x0000000000027bbc                DevPathToTextRamDisk
 .text.DevPathRelativeOffsetRange
                0x0000000000027d64       0x10 /tmp/ccgdRr0t.ltrans4.ltrans.o
                0x0000000000027d64                DevPathRelativeOffsetRange
 .text.DevPathToTextFvFile
                0x0000000000027d74       0x10 /tmp/ccgdRr0t.ltrans4.ltrans.o
                0x0000000000027d74                DevPathToTextFvFile
 .text.DevPathToTextFv
                0x0000000000027d84       0x10 /tmp/ccgdRr0t.ltrans4.ltrans.o
                0x0000000000027d84                DevPathToTextFv
 .text.DevPathToTextMediaProtocol
                0x0000000000027d94       0x10 /tmp/ccgdRr0t.ltrans4.ltrans.o
                0x0000000000027d94                DevPathToTextMediaProtocol
 .text.DevPathToTextFilePath
                0x0000000000027da4       0x10 /tmp/ccgdRr0t.ltrans4.ltrans.o
                0x0000000000027da4                DevPathToTextFilePath
 .text.DevPathToTextCDROM
                0x0000000000027db4       0x30 /tmp/ccgdRr0t.ltrans4.ltrans.o
                0x0000000000027db4                DevPathToTextCDROM
 .text.DevPathToTextHardDrive
                0x0000000000027de4       0x8c /tmp/ccgdRr0t.ltrans4.ltrans.o
                0x0000000000027de4                DevPathToTextHardDrive
 .text.DevPathToTextUri
                0x0000000000027e70       0x94 /tmp/ccgdRr0t.ltrans4.ltrans.o
                0x0000000000027e70                DevPathToTextUri
 .text.DevPathToTextBluetoothLE
                0x0000000000027f04       0x44 /tmp/ccgdRr0t.ltrans4.ltrans.o
                0x0000000000027f04                DevPathToTextBluetoothLE
 .text.DevPathToTextWiFi
                0x0000000000027f48       0x44 /tmp/ccgdRr0t.ltrans4.ltrans.o
                0x0000000000027f48                DevPathToTextWiFi
 .text.DevPathToTextBluetooth
                0x0000000000027f8c       0x24 /tmp/ccgdRr0t.ltrans4.ltrans.o
                0x0000000000027f8c                DevPathToTextBluetooth
 .text.DevPathToTextVlan
                0x0000000000027fb0       0x10 /tmp/ccgdRr0t.ltrans4.ltrans.o
                0x0000000000027fb0                DevPathToTextVlan
 .text.DevPathToTextiSCSI
                0x0000000000027fc0       0xe4 /tmp/ccgdRr0t.ltrans4.ltrans.o
                0x0000000000027fc0                DevPathToTextiSCSI
 .text.DevPathToTextUart
                0x00000000000280a4      0x118 /tmp/ccgdRr0t.ltrans4.ltrans.o
                0x00000000000280a4                DevPathToTextUart
 .text.DevPathToTextInfiniBand
                0x00000000000281bc       0x1c /tmp/ccgdRr0t.ltrans4.ltrans.o
                0x00000000000281bc                DevPathToTextInfiniBand
 .text.CatIPv6Address
                0x00000000000281d8       0x8c /tmp/ccgdRr0t.ltrans4.ltrans.o
 .text.CatIPv4Address
                0x0000000000028264       0x1c /tmp/ccgdRr0t.ltrans4.ltrans.o
 .text.DevPathToTextDns
                0x0000000000028280       0xc0 /tmp/ccgdRr0t.ltrans4.ltrans.o
                0x0000000000028280                DevPathToTextDns
 .text.CatNetworkProtocol
                0x0000000000028340       0x38 /tmp/ccgdRr0t.ltrans4.ltrans.o
 .text.DevPathToTextIPv6
                0x0000000000028378       0xe8 /tmp/ccgdRr0t.ltrans4.ltrans.o
                0x0000000000028378                DevPathToTextIPv6
 .text.DevPathToTextIPv4
                0x0000000000028460       0xf0 /tmp/ccgdRr0t.ltrans4.ltrans.o
                0x0000000000028460                DevPathToTextIPv4
 .text.DevPathToTextMacAddr
                0x0000000000028550       0x8c /tmp/ccgdRr0t.ltrans4.ltrans.o
                0x0000000000028550                DevPathToTextMacAddr
 .text.DevPathToTextI2O
                0x00000000000285dc       0x10 /tmp/ccgdRr0t.ltrans4.ltrans.o
                0x00000000000285dc                DevPathToTextI2O
 .text.DevPathToTextSata
                0x00000000000285ec       0x18 /tmp/ccgdRr0t.ltrans4.ltrans.o
                0x00000000000285ec                DevPathToTextSata
 .text.DevPathToTextUsbClass
                0x0000000000028604      0x1bc /tmp/ccgdRr0t.ltrans4.ltrans.o
                0x0000000000028604                DevPathToTextUsbClass
 .text.DevPathToTextLogicalUnit
                0x00000000000287c0       0x10 /tmp/ccgdRr0t.ltrans4.ltrans.o
                0x00000000000287c0                DevPathToTextLogicalUnit
 .text.DevPathToTextUsbWWID
                0x00000000000287d0       0xa4 /tmp/ccgdRr0t.ltrans4.ltrans.o
                0x00000000000287d0                DevPathToTextUsbWWID
 .text.DevPathToTextUsb
                0x0000000000028874       0x14 /tmp/ccgdRr0t.ltrans4.ltrans.o
                0x0000000000028874                DevPathToTextUsb
 .text.DevPathToText1394
                0x0000000000028888       0x10 /tmp/ccgdRr0t.ltrans4.ltrans.o
                0x0000000000028888                DevPathToText1394
 .text.DevPathToTextEmmc
                0x0000000000028898       0x10 /tmp/ccgdRr0t.ltrans4.ltrans.o
                0x0000000000028898                DevPathToTextEmmc
 .text.DevPathToTextSd
                0x00000000000288a8       0x10 /tmp/ccgdRr0t.ltrans4.ltrans.o
                0x00000000000288a8                DevPathToTextSd
 .text.DevPathToTextUfs
                0x00000000000288b8       0x14 /tmp/ccgdRr0t.ltrans4.ltrans.o
                0x00000000000288b8                DevPathToTextUfs
 .text.DevPathToTextNVMe
                0x00000000000288cc       0x54 /tmp/ccgdRr0t.ltrans4.ltrans.o
                0x00000000000288cc                DevPathToTextNVMe
 .text.DevPathToTextSasEx
                0x0000000000028920      0x184 /tmp/ccgdRr0t.ltrans4.ltrans.o
                0x0000000000028920                DevPathToTextSasEx
 .text.DevPathToTextFibreEx
                0x0000000000028aa4       0xa0 /tmp/ccgdRr0t.ltrans4.ltrans.o
                0x0000000000028aa4                DevPathToTextFibreEx
 .text.DevPathToTextFibre
                0x0000000000028b44       0x10 /tmp/ccgdRr0t.ltrans4.ltrans.o
                0x0000000000028b44                DevPathToTextFibre
 .text.DevPathToTextScsi
                0x0000000000028b54       0x14 /tmp/ccgdRr0t.ltrans4.ltrans.o
                0x0000000000028b54                DevPathToTextScsi
 .text.DevPathToTextAtapi
                0x0000000000028b68       0x60 /tmp/ccgdRr0t.ltrans4.ltrans.o
                0x0000000000028b68                DevPathToTextAtapi
 .text.DevPathToTextAcpiAdr
                0x0000000000028bc8       0x90 /tmp/ccgdRr0t.ltrans4.ltrans.o
                0x0000000000028bc8                DevPathToTextAcpiAdr
 .text.DevPathToTextAcpiEx
                0x0000000000028c58      0x1b8 /tmp/ccgdRr0t.ltrans4.ltrans.o
                0x0000000000028c58                DevPathToTextAcpiEx
 .text.DevPathToTextAcpi
                0x0000000000028e10       0xc0 /tmp/ccgdRr0t.ltrans4.ltrans.o
                0x0000000000028e10                DevPathToTextAcpi
 .text.DevPathToTextBmc
                0x0000000000028ed0       0x3c /tmp/ccgdRr0t.ltrans4.ltrans.o
                0x0000000000028ed0                DevPathToTextBmc
 .text.DevPathToTextController
                0x0000000000028f0c       0x10 /tmp/ccgdRr0t.ltrans4.ltrans.o
                0x0000000000028f0c                DevPathToTextController
 .text.DevPathToTextVendor
                0x0000000000028f1c      0x350 /tmp/ccgdRr0t.ltrans4.ltrans.o
                0x0000000000028f1c                DevPathToTextVendor
 .text.DevPathToTextMemMap
                0x000000000002926c       0x14 /tmp/ccgdRr0t.ltrans4.ltrans.o
                0x000000000002926c                DevPathToTextMemMap
 .text.DevPathToTextPccard
                0x0000000000029280       0x10 /tmp/ccgdRr0t.ltrans4.ltrans.o
                0x0000000000029280                DevPathToTextPccard
 .text.DevPathToTextPci
                0x0000000000029290       0x14 /tmp/ccgdRr0t.ltrans4.ltrans.o
                0x0000000000029290                DevPathToTextPci
 .text.AllocateZeroPool
                0x00000000000292a4       0x34 /tmp/ccgdRr0t.ltrans4.ltrans.o
                0x00000000000292a4                AllocateZeroPool
 .text.InternalHiiBrowserCallback.constprop.7
                0x00000000000292d8      0x10c /tmp/ccgdRr0t.ltrans4.ltrans.o
                0x00000000000292d8                InternalHiiBrowserCallback.constprop.7
 .text.HiiGetSupportedLanguages
                0x00000000000293e4       0xc0 /tmp/ccgdRr0t.ltrans4.ltrans.o
                0x00000000000293e4                HiiGetSupportedLanguages
 .text.HiiUpdateForm
                0x00000000000294a4      0x4b8 /tmp/ccgdRr0t.ltrans4.ltrans.o
                0x00000000000294a4                HiiUpdateForm
 .text.HiiAddPackages
                0x000000000002995c      0x194 /tmp/ccgdRr0t.ltrans4.ltrans.o
                0x000000000002995c                HiiAddPackages
 .text.BootFromFile
                0x0000000000029af0      0x1a8 /tmp/ccgdRr0t.ltrans4.ltrans.o
                0x0000000000029af0                BootFromFile
 .text.ReSendForm
                0x0000000000029c98      0x1d0 /tmp/ccgdRr0t.ltrans4.ltrans.o
 .text.CreateDriverOptionFromFile
                0x0000000000029e68        0x8 /tmp/ccgdRr0t.ltrans4.ltrans.o
                0x0000000000029e68                CreateDriverOptionFromFile
 .text.CreateBootOptionFromFile
                0x0000000000029e70        0x8 /tmp/ccgdRr0t.ltrans4.ltrans.o
                0x0000000000029e70                CreateBootOptionFromFile
 .text.LibPcdSet32S
                0x0000000000029e78       0x30 /tmp/ccgdRr0t.ltrans4.ltrans.o
                0x0000000000029e78                LibPcdSet32S
 .text.LibPcdGet32
                0x0000000000029ea8       0x28 /tmp/ccgdRr0t.ltrans4.ltrans.o
                0x0000000000029ea8                LibPcdGet32
 .text.CleanUpPage
                0x0000000000029ed0       0x50 /tmp/ccgdRr0t.ltrans4.ltrans.o
                0x0000000000029ed0                CleanUpPage
 .text.UpdatePageEnd
                0x0000000000029f20       0x7c /tmp/ccgdRr0t.ltrans4.ltrans.o
                0x0000000000029f20                UpdatePageEnd
 .text.UpdatePageStart
                0x0000000000029f9c       0x60 /tmp/ccgdRr0t.ltrans4.ltrans.o
                0x0000000000029f9c                UpdatePageStart
 .text.GetConsoleOutMode
                0x0000000000029ffc       0xa4 /tmp/ccgdRr0t.ltrans4.ltrans.o
                0x0000000000029ffc                GetConsoleOutMode
 .text.IsIsaSerialNode
                0x000000000002a0a0       0x60 /tmp/ccgdRr0t.ltrans4.ltrans.o
                0x000000000002a0a0                IsIsaSerialNode
 .text.RetrieveUartUid
                0x000000000002a100       0xc0 /tmp/ccgdRr0t.ltrans4.ltrans.o
                0x000000000002a100                RetrieveUartUid
 .text.BmMatchDevicePaths
                0x000000000002a1c0       0x7c /tmp/ccgdRr0t.ltrans4.ltrans.o
                0x000000000002a1c0                BmMatchDevicePaths
                0x000000000002a1c0                MatchDevicePaths
 .text.BOpt_GetOptionNumber
                0x000000000002a23c      0x110 /tmp/ccgdRr0t.ltrans4.ltrans.o
                0x000000000002a23c                BOpt_GetOptionNumber
 .text.BOpt_GetMenuEntry
                0x000000000002a34c       0xac /tmp/ccgdRr0t.ltrans4.ltrans.o
                0x000000000002a34c                BOpt_GetMenuEntry
 .text.UpdateConsolePage
                0x000000000002a3f8      0x254 /tmp/ccgdRr0t.ltrans4.ltrans.o
 .text.UpdateComAttributeFromVariable
                0x000000000002a64c      0x1c8 /tmp/ccgdRr0t.ltrans4.ltrans.o
                0x000000000002a64c                UpdateComAttributeFromVariable
 .text.ChangeTerminalDevicePath
                0x000000000002a814      0x1a0 /tmp/ccgdRr0t.ltrans4.ltrans.o
                0x000000000002a814                ChangeTerminalDevicePath
 .text.Var_UpdateConsoleOption
                0x000000000002a9b4      0x200 /tmp/ccgdRr0t.ltrans4.ltrans.o
                0x000000000002a9b4                Var_UpdateConsoleOption
 .text.GetDriverOrder
                0x000000000002abb4       0xdc /tmp/ccgdRr0t.ltrans4.ltrans.o
                0x000000000002abb4                GetDriverOrder
 .text.GetBootOrder
                0x000000000002ac90       0xdc /tmp/ccgdRr0t.ltrans4.ltrans.o
                0x000000000002ac90                GetBootOrder
 .text.UpdateOrderPage
                0x000000000002ad6c      0x23c /tmp/ccgdRr0t.ltrans4.ltrans.o
 .text.UpdatePageBody
                0x000000000002afa8       0xb4 /tmp/ccgdRr0t.ltrans4.ltrans.o
                0x000000000002afa8                UpdatePageBody
 .text.BOpt_DestroyMenuEntry
                0x000000000002b05c       0xd4 /tmp/ccgdRr0t.ltrans4.ltrans.o
                0x000000000002b05c                BOpt_DestroyMenuEntry
 .text.BOpt_FreeMenu
                0x000000000002b130       0xa0 /tmp/ccgdRr0t.ltrans4.ltrans.o
                0x000000000002b130                BOpt_FreeMenu
 .text.BOpt_CreateMenuEntry
                0x000000000002b1d0       0xac /tmp/ccgdRr0t.ltrans4.ltrans.o
                0x000000000002b1d0                BOpt_CreateMenuEntry
 .text.GetConsoleMenu
                0x000000000002b27c      0x380 /tmp/ccgdRr0t.ltrans4.ltrans.o
                0x000000000002b27c                GetConsoleMenu
 .text.BOpt_GetDriverOptions
                0x000000000002b5fc      0x270 /tmp/ccgdRr0t.ltrans4.ltrans.o
                0x000000000002b5fc                BOpt_GetDriverOptions
 .text.BOpt_GetBootOptions
                0x000000000002b86c      0x3b8 /tmp/ccgdRr0t.ltrans4.ltrans.o
                0x000000000002b86c                BOpt_GetBootOptions
 .text.CleanUselessBeforeSubmit
                0x000000000002bc24       0xa0 /tmp/ccgdRr0t.ltrans4.ltrans.o
                0x000000000002bc24                CleanUselessBeforeSubmit
 .text.ArmCleanInvalidateDataCacheEntryByMVA
                0x000000000002bcc4        0x8 /home/vsts/work/1/edk2/Build/Lumia950XL-AARCH64/DEBUG_GCC5/AARCH64/ArmPkg/Library/ArmLib/ArmBaseLib/OUTPUT/ArmBaseLib.lib(AArch64Support.obj)
                0x000000000002bcc4                ArmCleanInvalidateDataCacheEntryByMVA
 .text.ArmDataSynchronizationBarrier
                0x000000000002bccc        0x8 /home/vsts/work/1/edk2/Build/Lumia950XL-AARCH64/DEBUG_GCC5/AARCH64/ArmPkg/Library/ArmLib/ArmBaseLib/OUTPUT/ArmBaseLib.lib(AArch64Support.obj)
                0x000000000002bccc                ArmDataSynchronizationBarrier
 .text.ArmIsArchTimerImplemented
                0x000000000002bcd4        0x8 /home/vsts/work/1/edk2/Build/Lumia950XL-AARCH64/DEBUG_GCC5/AARCH64/ArmPkg/Library/ArmLib/ArmBaseLib/OUTPUT/ArmBaseLib.lib(AArch64Support.obj)
                0x000000000002bcd4                ArmIsArchTimerImplemented
 .text.ArmCacheInfo
                0x000000000002bcdc        0x8 /home/vsts/work/1/edk2/Build/Lumia950XL-AARCH64/DEBUG_GCC5/AARCH64/ArmPkg/Library/ArmLib/ArmBaseLib/OUTPUT/ArmBaseLib.lib(ArmLibSupport.obj)
                0x000000000002bcdc                ArmCacheInfo
 .text.ArmGetInterruptState
                0x000000000002bce4       0x10 /home/vsts/work/1/edk2/Build/Lumia950XL-AARCH64/DEBUG_GCC5/AARCH64/ArmPkg/Library/ArmLib/ArmBaseLib/OUTPUT/ArmBaseLib.lib(ArmLibSupport.obj)
                0x000000000002bce4                ArmGetInterruptState
 .text.ArmEnableInterrupts
                0x000000000002bcf4        0xc /home/vsts/work/1/edk2/Build/Lumia950XL-AARCH64/DEBUG_GCC5/AARCH64/ArmPkg/Library/ArmLib/ArmBaseLib/OUTPUT/ArmBaseLib.lib(ArmLibSupportV8.obj)
                0x000000000002bcf4                ArmEnableInterrupts
 .text.ArmDisableInterrupts
                0x000000000002bd00        0xc /home/vsts/work/1/edk2/Build/Lumia950XL-AARCH64/DEBUG_GCC5/AARCH64/ArmPkg/Library/ArmLib/ArmBaseLib/OUTPUT/ArmBaseLib.lib(ArmLibSupportV8.obj)
                0x000000000002bd00                ArmDisableInterrupts
 .text.ArmReadCntFrq
                0x000000000002bd0c        0x8 /home/vsts/work/1/edk2/Build/Lumia950XL-AARCH64/DEBUG_GCC5/AARCH64/ArmPkg/Library/ArmLib/ArmBaseLib/OUTPUT/ArmBaseLib.lib(AArch64ArchTimerSupport.obj)
                0x000000000002bd0c                ArmReadCntFrq
 *(.rodata .rodata.* .gnu.linkonce.r.*)
 .rodata.lv_obj_align
                0x000000000002bd14       0x20 /tmp/ccgdRr0t.ltrans0.ltrans.o
 .rodata.AsciiStrCpy.str1.1
                0x000000000002bd34       0x86 /tmp/ccgdRr0t.ltrans0.ltrans.o
 .rodata.AsciiStrLen.str1.1
                0x000000000002bdba       0x6f /tmp/ccgdRr0t.ltrans0.ltrans.o
                                         0x86 (size before relaxing)
 .rodata.AsciiStrToUnicodeStrS.str1.1
                0x000000000002be29       0xc0 /tmp/ccgdRr0t.ltrans0.ltrans.o
 .rodata.AsciiStrnCmp.str1.1
                0x000000000002bee9       0x70 /tmp/ccgdRr0t.ltrans0.ltrans.o
 .rodata.BmDestroyRamDisk.str1.1
                0x000000000002bf59       0x60 /tmp/ccgdRr0t.ltrans0.ltrans.o
 .rodata.BmDisplayMessages.str1.1
                0x000000000002bfb9       0x16 /tmp/ccgdRr0t.ltrans0.ltrans.o
 *fill*         0x000000000002bfcf        0x1 
 .rodata.BmDisplayMessages.str2.2
                0x000000000002bfd0       0x2c /tmp/ccgdRr0t.ltrans0.ltrans.o
 .rodata.BmEndOfBdsPerfCode.str1.1
                0x000000000002bffc        0x4 /tmp/ccgdRr0t.ltrans0.ltrans.o
 .rodata.BmExpandMediaDevicePath.str1.1
                0x000000000002c000       0x21 /tmp/ccgdRr0t.ltrans0.ltrans.o
 *fill*         0x000000000002c021        0x1 
 .rodata.BmExpandMediaDevicePath.str2.2
                0x000000000002c022       0x2e /tmp/ccgdRr0t.ltrans0.ltrans.o
 .rodata.BmGetBootDescription.str1.1
                0x000000000002c050       0x38 /tmp/ccgdRr0t.ltrans0.ltrans.o
 .rodata.BmGetControllerName.str1.1
                0x000000000002c088        0xa /tmp/ccgdRr0t.ltrans0.ltrans.o
                                          0xb (size before relaxing)
 .rodata.BmGetControllerName.str2.2
                0x000000000002c092       0x1a /tmp/ccgdRr0t.ltrans0.ltrans.o
                                         0x24 (size before relaxing)
 .rodata.BmGetDescriptionFromDiskInfo.str2.2
                0x000000000002c0ac       0x2c /tmp/ccgdRr0t.ltrans0.ltrans.o
 .rodata.BmGetFreeOptionNumber.str1.1
                0x000000000002c0d8      0x14f /tmp/ccgdRr0t.ltrans0.ltrans.o
 *fill*         0x000000000002c227        0x1 
 .rodata.BmGetFreeOptionNumber.str2.2
                0x000000000002c228       0x12 /tmp/ccgdRr0t.ltrans0.ltrans.o
 .rodata.BmGetMiscDescription.str1.1
                0x000000000002c23a      0x14f /tmp/ccgdRr0t.ltrans0.ltrans.o
                                         0x1b (size before relaxing)
 .rodata.BmGetMiscDescription.str2.2
                0x000000000002c23a       0xa4 /tmp/ccgdRr0t.ltrans0.ltrans.o
                                         0xc8 (size before relaxing)
 .rodata.BmGetNetworkDescription.str1.1
                0x000000000002c2de       0x53 /tmp/ccgdRr0t.ltrans0.ltrans.o
                                         0x6f (size before relaxing)
 *fill*         0x000000000002c331        0x1 
 .rodata.BmGetNetworkDescription.str2.2
                0x000000000002c332       0xb4 /tmp/ccgdRr0t.ltrans0.ltrans.o
 .rodata.BmGetNextLoadOptionDevicePath.str1.1
                0x000000000002c3e6       0x19 /tmp/ccgdRr0t.ltrans0.ltrans.o
 *fill*         0x000000000002c3ff        0x1 
 .rodata.BmGetNextLoadOptionDevicePath.str2.2
                0x000000000002c400        0xa /tmp/ccgdRr0t.ltrans0.ltrans.o
 .rodata.BmGetRamDiskDevicePath.str1.1
                0x000000000002c40a       0x6a /tmp/ccgdRr0t.ltrans0.ltrans.o
 .rodata.BmGetSingleControllerHealthStatus.str1.1
                0x000000000002c474       0xca /tmp/ccgdRr0t.ltrans0.ltrans.o
 .rodata.BmGetUsbDescription.str2.2
                0x000000000002c53e        0xa /tmp/ccgdRr0t.ltrans0.ltrans.o
                                          0x4 (size before relaxing)
 .rodata.BmHotkeyCallback.str1.1
                0x000000000002c53e       0xf7 /tmp/ccgdRr0t.ltrans0.ltrans.o
 *fill*         0x000000000002c635        0x1 
 .rodata.BmHotkeyCallback.str2.2
                0x000000000002c636        0xa /tmp/ccgdRr0t.ltrans0.ltrans.o
 .rodata.BmPrintDp.str1.1
                0x000000000002c640        0x3 /tmp/ccgdRr0t.ltrans0.ltrans.o
 .rodata.BmRepairAllControllers.str1.1
                0x000000000002c643       0x4d /tmp/ccgdRr0t.ltrans0.ltrans.o
 .rodata.BmRepairNotify.str1.1
                0x000000000002c690       0x1a /tmp/ccgdRr0t.ltrans0.ltrans.o
 .rodata.BmRepairNotify.str2.2
                0x000000000002c6aa       0x34 /tmp/ccgdRr0t.ltrans0.ltrans.o
 .rodata.BmUpdateSystemTableConsole.str1.1
                0x000000000002c6de       0xbd /tmp/ccgdRr0t.ltrans0.ltrans.o
 .rodata.DebugAssert.str1.1
                0x000000000002c79b       0x1e /tmp/ccgdRr0t.ltrans0.ltrans.o
 .rodata.EfiBootManagerBoot.str1.1
                0x000000000002c7b9      0x31a /tmp/ccgdRr0t.ltrans0.ltrans.o
                                        0x31c (size before relaxing)
 *fill*         0x000000000002cad3        0x1 
 .rodata.EfiBootManagerBoot.str2.2
                0x000000000002cad4       0x44 /tmp/ccgdRr0t.ltrans0.ltrans.o
 .rodata.EfiBootManagerConnectAllDefaultConsoles.str1.1
                0x000000000002cb18       0x23 /tmp/ccgdRr0t.ltrans0.ltrans.o
 *fill*         0x000000000002cb3b        0x1 
 .rodata.EfiBootManagerConnectAllDefaultConsoles.str2.2
                0x000000000002cb3c       0x28 /tmp/ccgdRr0t.ltrans0.ltrans.o
 .rodata.EfiBootManagerConnectDevicePath.str1.1
                0x000000000002cb64       0x9a /tmp/ccgdRr0t.ltrans0.ltrans.o
 .rodata.EfiBootManagerDeleteLoadOptionVariable.str2.2
                0x000000000002cbfe        0xe /tmp/ccgdRr0t.ltrans0.ltrans.o
 .rodata.EfiBootManagerGetDriverHealthInfo.str1.1
                0x000000000002cc0c       0x24 /tmp/ccgdRr0t.ltrans0.ltrans.o
 .rodata.EfiBootManagerLoadOptionToVariable.str1.1
                0x000000000002cc30       0x19 /tmp/ccgdRr0t.ltrans0.ltrans.o
 .rodata.EfiBootManagerRefreshAllBootOption.str1.1
                0x000000000002cc49       0x34 /tmp/ccgdRr0t.ltrans0.ltrans.o
 *fill*         0x000000000002cc7d        0x1 
 .rodata.EfiBootManagerRefreshAllBootOption.str2.2
                0x000000000002cc7e        0xc /tmp/ccgdRr0t.ltrans0.ltrans.o
 .rodata.GetBestLanguage.str1.1
                0x000000000002cc8a       0x23 /tmp/ccgdRr0t.ltrans0.ltrans.o
 .rodata.GetHobList.str1.1
                0x000000000002ccad       0x52 /tmp/ccgdRr0t.ltrans0.ltrans.o
 .rodata.GetVariable2.str1.1
                0x000000000002ccff       0x95 /tmp/ccgdRr0t.ltrans0.ltrans.o
 .rodata.LibAppendFileName.str1.1
                0x000000000002cd94       0x17 /tmp/ccgdRr0t.ltrans0.ltrans.o
                                         0x2b (size before relaxing)
 *fill*         0x000000000002cdab        0x1 
 .rodata.LibAppendFileName.str2.2
                0x000000000002cdac        0x4 /tmp/ccgdRr0t.ltrans0.ltrans.o
 .rodata.LibCallback.str2.2
                0x000000000002cdb0        0xa /tmp/ccgdRr0t.ltrans0.ltrans.o
 .rodata.LibFreeMenu.str1.1
                0x000000000002cdba       0x60 /tmp/ccgdRr0t.ltrans0.ltrans.o
 .rodata.LibGetMenuEntry.str1.1
                0x000000000002ce1a       0x24 /tmp/ccgdRr0t.ltrans0.ltrans.o
 .rodata.LibStrDuplicate.str1.1
                0x000000000002ce3e       0x15 /tmp/ccgdRr0t.ltrans0.ltrans.o
 .rodata.SPrintLength.str1.1
                0x000000000002ce53       0x65 /tmp/ccgdRr0t.ltrans0.ltrans.o
 .rodata.StrCatS.str1.1
                0x000000000002ceb8      0x107 /tmp/ccgdRr0t.ltrans0.ltrans.o
 .rodata.StrLen.str1.1
                0x000000000002cfbf       0x5d /tmp/ccgdRr0t.ltrans0.ltrans.o
 .rodata.StrStr.str1.1
                0x000000000002d01c       0x32 /tmp/ccgdRr0t.ltrans0.ltrans.o
 .rodata.StrnCmp.str1.1
                0x000000000002d04e       0x72 /tmp/ccgdRr0t.ltrans0.ltrans.o
 .rodata.StrnCpyS.str1.1
                0x000000000002d0c0       0x3f /tmp/ccgdRr0t.ltrans0.ltrans.o
 .rodata.StrnLenS.str1.1
                0x000000000002d0ff       0x3b /tmp/ccgdRr0t.ltrans0.ltrans.o
 .rodata.SystemInfoEntry.str1.1
                0x000000000002d13a       0x92 /tmp/ccgdRr0t.ltrans0.ltrans.o
 .rodata.SystemInfoEntry.str2.2
                0x000000000002d1cc       0x3e /tmp/ccgdRr0t.ltrans0.ltrans.o
 .rodata.TimerConstructor.str1.1
                0x000000000002d20a       0xc5 /tmp/ccgdRr0t.ltrans0.ltrans.o
                                         0xc7 (size before relaxing)
 .rodata.UnicodeVSPrint.str1.1
                0x000000000002d2cf       0x28 /tmp/ccgdRr0t.ltrans0.ltrans.o
 .rodata.UnicodeValueToStringS.str1.1
                0x000000000002d2f7      0x101 /tmp/ccgdRr0t.ltrans0.ltrans.o
 .rodata._ModuleEntryPoint.str1.1
                0x000000000002d3f8      0x6cb /tmp/ccgdRr0t.ltrans0.ltrans.o
                                        0x6df (size before relaxing)
 .rodata._gPcd_FixedAtBuild_PcdBootManagerMenuFile
                0x000000000002dac3       0x10 /tmp/ccgdRr0t.ltrans0.ltrans.o
 .rodata._gPcd_FixedAtBuild_PcdSmbiosProcessorModel
                0x000000000002dad3       0x29 /tmp/ccgdRr0t.ltrans0.ltrans.o
 .rodata._gPcd_FixedAtBuild_PcdSmbiosSystemModel
                0x000000000002dafc        0xd /tmp/ccgdRr0t.ltrans0.ltrans.o
 .rodata.lv_font_dejavu_10_cyrillic_glyph_bitmap
                0x000000000002db09      0xb9a /tmp/ccgdRr0t.ltrans0.ltrans.o
 *fill*         0x000000000002e6a3        0x1 
 .rodata.lv_font_dejavu_10_cyrillic_glyph_dsc
                0x000000000002e6a4      0x100 /tmp/ccgdRr0t.ltrans0.ltrans.o
 .rodata.lv_font_dejavu_10_glyph_bitmap
                0x000000000002e7a4      0xe06 /tmp/ccgdRr0t.ltrans0.ltrans.o
 *fill*         0x000000000002f5aa        0x2 
 .rodata.lv_font_dejavu_10_glyph_dsc
                0x000000000002f5ac      0x17c /tmp/ccgdRr0t.ltrans0.ltrans.o
 .rodata.lv_font_dejavu_10_latin_sup_glyph_bitmap
                0x000000000002f728      0xf3c /tmp/ccgdRr0t.ltrans0.ltrans.o
 .rodata.lv_font_dejavu_10_latin_sup_glyph_dsc
                0x0000000000030664      0x180 /tmp/ccgdRr0t.ltrans0.ltrans.o
 .rodata.lv_font_dejavu_20_cyrillic_glyph_bitmap
                0x00000000000307e4     0x34f8 /tmp/ccgdRr0t.ltrans0.ltrans.o
 .rodata.lv_font_dejavu_20_cyrillic_glyph_dsc
                0x0000000000033cdc      0x100 /tmp/ccgdRr0t.ltrans0.ltrans.o
 .rodata.lv_font_dejavu_20_latin_sup_glyph_bitmap
                0x0000000000033ddc     0x43bc /tmp/ccgdRr0t.ltrans0.ltrans.o
 .rodata.lv_font_dejavu_20_latin_sup_glyph_dsc
                0x0000000000038198      0x180 /tmp/ccgdRr0t.ltrans0.ltrans.o
 .rodata.lv_font_dejavu_30_cyrillic_glyph_bitmap
                0x0000000000038318     0x70f8 /tmp/ccgdRr0t.ltrans0.ltrans.o
 .rodata.lv_font_dejavu_30_cyrillic_glyph_dsc
                0x000000000003f410      0x100 /tmp/ccgdRr0t.ltrans0.ltrans.o
 .rodata.lv_font_dejavu_30_glyph_bitmap
                0x000000000003f510     0x862e /tmp/ccgdRr0t.ltrans0.ltrans.o
 *fill*         0x0000000000047b3e        0x2 
 .rodata.lv_font_dejavu_30_glyph_dsc
                0x0000000000047b40      0x17c /tmp/ccgdRr0t.ltrans0.ltrans.o
 .rodata.lv_font_dejavu_30_latin_sup_glyph_bitmap
                0x0000000000047cbc     0x9006 /tmp/ccgdRr0t.ltrans0.ltrans.o
 *fill*         0x0000000000050cc2        0x2 
 .rodata.lv_font_dejavu_30_latin_sup_glyph_dsc
                0x0000000000050cc4      0x180 /tmp/ccgdRr0t.ltrans0.ltrans.o
 .rodata.lv_font_dejavu_40_cyrillic_glyph_bitmap
                0x0000000000050e44     0xc710 /tmp/ccgdRr0t.ltrans0.ltrans.o
 .rodata.lv_font_dejavu_40_cyrillic_glyph_dsc
                0x000000000005d554      0x100 /tmp/ccgdRr0t.ltrans0.ltrans.o
 .rodata.lv_font_dejavu_40_glyph_bitmap
                0x000000000005d654     0xe830 /tmp/ccgdRr0t.ltrans0.ltrans.o
 .rodata.lv_font_dejavu_40_glyph_dsc
                0x000000000006be84      0x17c /tmp/ccgdRr0t.ltrans0.ltrans.o
 .rodata.lv_font_dejavu_40_latin_sup_glyph_bitmap
                0x000000000006c000     0xfa00 /tmp/ccgdRr0t.ltrans0.ltrans.o
 .rodata.lv_font_dejavu_40_latin_sup_glyph_dsc
                0x000000000007ba00      0x180 /tmp/ccgdRr0t.ltrans0.ltrans.o
 .rodata.lv_font_symbol_10_glyph_bitmap
                0x000000000007bb80     0x1090 /tmp/ccgdRr0t.ltrans0.ltrans.o
 .rodata.lv_font_symbol_10_glyph_dsc
                0x000000000007cc10       0xc8 /tmp/ccgdRr0t.ltrans0.ltrans.o
 .rodata.lv_font_symbol_20_glyph_bitmap
                0x000000000007ccd8     0x4380 /tmp/ccgdRr0t.ltrans0.ltrans.o
 .rodata.lv_font_symbol_20_glyph_dsc
                0x0000000000081058       0xc8 /tmp/ccgdRr0t.ltrans0.ltrans.o
 .rodata.lv_font_symbol_30_glyph_bitmap
                0x0000000000081120     0x9948 /tmp/ccgdRr0t.ltrans0.ltrans.o
 .rodata.lv_font_symbol_30_glyph_dsc
                0x000000000008aa68       0xc8 /tmp/ccgdRr0t.ltrans0.ltrans.o
 .rodata.lv_font_symbol_40_glyph_bitmap
                0x000000000008ab30    0x11170 /tmp/ccgdRr0t.ltrans0.ltrans.o
 .rodata.lv_font_symbol_40_glyph_dsc
                0x000000000009bca0       0xc8 /tmp/ccgdRr0t.ltrans0.ltrans.o
 .rodata.lv_init.str1.1
                0x000000000009bd68       0x58 /tmp/ccgdRr0t.ltrans0.ltrans.o
 .rodata.lv_obj_create.str1.1
                0x000000000009bdc0       0xab /tmp/ccgdRr0t.ltrans0.ltrans.o
 .rodata.lv_obj_set_parent.str1.1
                0x000000000009be6b       0x92 /tmp/ccgdRr0t.ltrans0.ltrans.o
 .rodata.lv_obj_signal.str1.1
                0x000000000009befd        0x7 /tmp/ccgdRr0t.ltrans0.ltrans.o
 .rodata.lv_refr_area_part_vdb.str1.1
                0x000000000009bf04       0xce /tmp/ccgdRr0t.ltrans0.ltrans.o
 .rodata.lv_vdb_get.str1.1
                0x000000000009bfd2       0xb2 /tmp/ccgdRr0t.ltrans0.ltrans.o
 *fill*         0x000000000009c084        0x4 
 .rodata.mBmBootDescriptionHandlers
                0x000000000009c088       0x30 /tmp/ccgdRr0t.ltrans0.ltrans.o
 .rodata.mBmHealthStatusText
                0x000000000009c0b8       0x30 /tmp/ccgdRr0t.ltrans0.ltrans.o
 .rodata.mConVarName
                0x000000000009c0e8       0x30 /tmp/ccgdRr0t.ltrans0.ltrans.o
 .rodata.mHexStr
                0x000000000009c118       0x10 /tmp/ccgdRr0t.ltrans0.ltrans.o
 .rodata.str2.2
                0x000000000009c128       0xec /tmp/ccgdRr0t.ltrans0.ltrans.o
 .rodata.lv_win_set_style
                0x000000000009c214        0x6 /tmp/ccgdRr0t.ltrans1.ltrans.o
 .rodata.get_button_text.str1.1
                0x000000000009c21a        0x2 /tmp/ccgdRr0t.ltrans1.ltrans.o
 .rodata.indev_proc_task.lto_priv.185.str1.1
                0x000000000009c21a       0x6a /tmp/ccgdRr0t.ltrans1.ltrans.o
 .rodata.lv_anim_create.str1.1
                0x000000000009c284       0x4c /tmp/ccgdRr0t.ltrans1.ltrans.o
 .rodata.lv_btnm_set_map.part.7.str1.1
                0x000000000009c2d0       0x4c /tmp/ccgdRr0t.ltrans1.ltrans.o
 .rodata.lv_btnm_signal.lto_priv.126.str1.1
                0x000000000009c31c        0x8 /tmp/ccgdRr0t.ltrans1.ltrans.o
 .rodata.lv_cont_create.str1.1
                0x000000000009c324       0x5e /tmp/ccgdRr0t.ltrans1.ltrans.o
                                         0x6d (size before relaxing)
 .rodata.lv_cont_signal.str1.1
                0x000000000009c382        0x8 /tmp/ccgdRr0t.ltrans1.ltrans.o
 .rodata.lv_label_create.str1.1
                0x000000000009c38a       0x13 /tmp/ccgdRr0t.ltrans1.ltrans.o
 .rodata.lv_label_set_text.str1.1
                0x000000000009c39d       0x4d /tmp/ccgdRr0t.ltrans1.ltrans.o
 .rodata.lv_label_signal.str1.1
                0x000000000009c3ea        0x9 /tmp/ccgdRr0t.ltrans1.ltrans.o
 .rodata.lv_log_add.str1.1
                0x000000000009c3f3       0x12 /tmp/ccgdRr0t.ltrans1.ltrans.o
 .rodata.lv_mem_alloc.part.0.str1.1
                0x000000000009c405       0x64 /tmp/ccgdRr0t.ltrans1.ltrans.o
 .rodata.lv_page_create.str1.1
                0x000000000009c469       0x59 /tmp/ccgdRr0t.ltrans1.ltrans.o
 .rodata.lv_page_signal.str1.1
                0x000000000009c4c2        0x8 /tmp/ccgdRr0t.ltrans1.ltrans.o
 .rodata.lv_tabview_add_tab.str1.1
                0x000000000009c4ca       0x4f /tmp/ccgdRr0t.ltrans1.ltrans.o
                                         0x50 (size before relaxing)
 .rodata.lv_tabview_signal.lto_priv.124.str1.1
                0x000000000009c519        0xb /tmp/ccgdRr0t.ltrans1.ltrans.o
 .rodata.lv_ufs_open.str1.1
                0x000000000009c524       0x4b /tmp/ccgdRr0t.ltrans1.ltrans.o
 .rodata.lv_win_add_btn.str1.1
                0x000000000009c56f       0xb3 /tmp/ccgdRr0t.ltrans1.ltrans.o
 .rodata.lv_win_signal.lto_priv.128.str1.1
                0x000000000009c622        0x7 /tmp/ccgdRr0t.ltrans1.ltrans.o
 *fill*         0x000000000009c629        0x7 
 .rodata.lvl_prefix.1212
                0x000000000009c630       0x20 /tmp/ccgdRr0t.ltrans1.ltrans.o
 .rodata.opa_map.2809
                0x000000000009c650        0x8 /tmp/ccgdRr0t.ltrans1.ltrans.o
 .rodata.str1.1
                0x000000000009c658        0xb /tmp/ccgdRr0t.ltrans1.ltrans.o
                                         0x16 (size before relaxing)
 *fill*         0x000000000009c663        0x1 
 .rodata.BootMaintCallback
                0x000000000009c664       0x50 /tmp/ccgdRr0t.ltrans2.ltrans.o
 .rodata.lv_img_built_in_decoder_line_indexed
                0x000000000009c6b4        0x4 /tmp/ccgdRr0t.ltrans2.ltrans.o
 .rodata.lv_img_built_in_decoder_line_alpha
                0x000000000009c6b8        0x4 /tmp/ccgdRr0t.ltrans2.ltrans.o
 .rodata.lv_vletter
                0x000000000009c6bc        0x8 /tmp/ccgdRr0t.ltrans2.ltrans.o
 .rodata.lv_btn_set_style
                0x000000000009c6c4        0x4 /tmp/ccgdRr0t.ltrans2.ltrans.o
 .rodata.lv_color_hsv_to_rgb
                0x000000000009c6c8        0x5 /tmp/ccgdRr0t.ltrans2.ltrans.o
 *fill*         0x000000000009c6cd        0x3 
 .rodata.BaudRateList
                0x000000000009c6d0      0x130 /tmp/ccgdRr0t.ltrans2.ltrans.o
                0x000000000009c6d0                BaudRateList
 .rodata.BmSetConsoleMode.str1.1
                0x000000000009c800       0x80 /tmp/ccgdRr0t.ltrans2.ltrans.o
 .rodata.BootMaintCallback.str1.1
                0x000000000009c800      0x4d7 /tmp/ccgdRr0t.ltrans2.ltrans.o
                                        0x59c (size before relaxing)
 *fill*         0x000000000009ccd7        0x1 
 .rodata.BootMaintCallback.str2.2
                0x000000000009ccd8       0x14 /tmp/ccgdRr0t.ltrans2.ltrans.o
 .rodata.BootMaintExtractConfig.str1.1
                0x000000000009ccec       0x1e /tmp/ccgdRr0t.ltrans2.ltrans.o
                                         0x8d (size before relaxing)
 .rodata.BootMaintExtractConfig.str2.2
                0x000000000009cd0a       0x40 /tmp/ccgdRr0t.ltrans2.ltrans.o
 .rodata.BootMaintRouteConfig.str1.1
                0x000000000009cd4a      0x218 /tmp/ccgdRr0t.ltrans2.ltrans.o
 .rodata.BootMaintRouteConfig.str2.2
                0x000000000009cf62       0x78 /tmp/ccgdRr0t.ltrans2.ltrans.o
                                         0x94 (size before relaxing)
 .rodata.BootManagerCallback.str1.1
                0x000000000009cfda      0x157 /tmp/ccgdRr0t.ltrans2.ltrans.o
 *fill*         0x000000000009d131        0x1 
 .rodata.BootManagerCallback.str2.2
                0x000000000009d132       0xca /tmp/ccgdRr0t.ltrans2.ltrans.o
 .rodata.CSWTCH.14
                0x000000000009d1fc        0x6 /tmp/ccgdRr0t.ltrans2.ltrans.o
 .rodata.CSWTCH.76
                0x000000000009d202        0xb /tmp/ccgdRr0t.ltrans2.ltrans.o
 *fill*         0x000000000009d20d        0x1 
 .rodata.CreateDeviceManagerForm.str2.2
                0x000000000009d20e        0xc /tmp/ccgdRr0t.ltrans2.ltrans.o
 *fill*         0x000000000009d21a        0x6 
 .rodata.DataBitsList
                0x000000000009d220       0x40 /tmp/ccgdRr0t.ltrans2.ltrans.o
                0x000000000009d220                DataBitsList
 .rodata.DmExtractDevicePathFromHiiHandle.str1.1
                0x000000000009d260      0x157 /tmp/ccgdRr0t.ltrans2.ltrans.o
                                         0x66 (size before relaxing)
 .rodata.ExtractFileNameFromDevicePath.str1.1
                0x000000000009d260       0x1b /tmp/ccgdRr0t.ltrans2.ltrans.o
 .rodata.ExtractFileNameFromDevicePath.str2.2
                0x000000000009d260        0x4 /tmp/ccgdRr0t.ltrans2.ltrans.o
 .rodata.IsMacAddressDevicePath.str1.1
                0x000000000009d260       0x1f /tmp/ccgdRr0t.ltrans2.ltrans.o
                                         0x34 (size before relaxing)
 *fill*         0x000000000009d27f        0x1 
 .rodata.IsMacAddressDevicePath.str2.2
                0x000000000009d280        0xa /tmp/ccgdRr0t.ltrans2.ltrans.o
 *fill*         0x000000000009d28a        0x6 
 .rodata.ParityList
                0x000000000009d290       0x50 /tmp/ccgdRr0t.ltrans2.ltrans.o
                0x000000000009d290                ParityList
 .rodata.StopBitsList
                0x000000000009d2e0       0x30 /tmp/ccgdRr0t.ltrans2.ltrans.o
                0x000000000009d2e0                StopBitsList
 .rodata.TerminalType
                0x000000000009d310        0xa /tmp/ccgdRr0t.ltrans2.ltrans.o
 .rodata.UpdateConsoleContent.str1.1
                0x000000000009d31a        0xc /tmp/ccgdRr0t.ltrans2.ltrans.o
                                         0x84 (size before relaxing)
 .rodata.UpdateConsoleContent.str2.2
                0x000000000009d326       0x28 /tmp/ccgdRr0t.ltrans2.ltrans.o
 .rodata.lv_btn_signal.lto_priv.157.str1.1
                0x000000000009d326        0x7 /tmp/ccgdRr0t.ltrans2.ltrans.o
 .rodata.lv_draw_img.part.2.str1.1
                0x000000000009d32d       0x20 /tmp/ccgdRr0t.ltrans2.ltrans.o
 .rodata.lv_img_decoder_open.str1.1
                0x000000000009d34d       0x85 /tmp/ccgdRr0t.ltrans2.ltrans.o
 .rodata.lv_img_design.lto_priv.154.str1.1
                0x000000000009d3d2      0x191 /tmp/ccgdRr0t.ltrans2.ltrans.o
 .rodata.lv_img_dsc_get_info.str1.1
                0x000000000009d563       0x76 /tmp/ccgdRr0t.ltrans2.ltrans.o
 .rodata.lv_img_set_src.str1.1
                0x000000000009d5d9       0x72 /tmp/ccgdRr0t.ltrans2.ltrans.o
                                         0xcc (size before relaxing)
 .rodata.lv_img_signal.lto_priv.153.str1.1
                0x000000000009d64b        0x7 /tmp/ccgdRr0t.ltrans2.ltrans.o
 .rodata.lv_txt_get_next_line.str1.1
                0x000000000009d652        0x8 /tmp/ccgdRr0t.ltrans2.ltrans.o
 .rodata.lv_vletter.str1.1
                0x000000000009d65a       0x76 /tmp/ccgdRr0t.ltrans2.ltrans.o
                                         0x8a (size before relaxing)
 .rodata.mConfigHdrTemplate
                0x000000000009d6d0       0x70 /tmp/ccgdRr0t.ltrans2.ltrans.o
 .rodata.mDeviceTypeStr
                0x000000000009d740       0x40 /tmp/ccgdRr0t.ltrans2.ltrans.o
 .rodata.seg1.3668
                0x000000000009d780        0x1 /tmp/ccgdRr0t.ltrans2.ltrans.o
 .rodata.seg2.3669
                0x000000000009d781        0x2 /tmp/ccgdRr0t.ltrans2.ltrans.o
 .rodata.seg3.3670
                0x000000000009d783        0x3 /tmp/ccgdRr0t.ltrans2.ltrans.o
 .rodata.seg4.3671
                0x000000000009d786        0x4 /tmp/ccgdRr0t.ltrans2.ltrans.o
 .rodata.seg5.3672
                0x000000000009d78a        0x5 /tmp/ccgdRr0t.ltrans2.ltrans.o
 .rodata.seg6.3673
                0x000000000009d78f        0x6 /tmp/ccgdRr0t.ltrans2.ltrans.o
 .rodata.seg7.3674
                0x000000000009d795        0x7 /tmp/ccgdRr0t.ltrans2.ltrans.o
 .rodata.seg8.3675
                0x000000000009d79c        0x8 /tmp/ccgdRr0t.ltrans2.ltrans.o
 *fill*         0x000000000009d7a4        0x4 
 .rodata.seg_map.3676
                0x000000000009d7a8       0x40 /tmp/ccgdRr0t.ltrans2.ltrans.o
 .rodata.str2.2
                0x000000000009d7e8      0x100 /tmp/ccgdRr0t.ltrans2.ltrans.o
 .rodata.BasePrintLibSPrintMarker.constprop.115.str1.1
                0x000000000009d8e8      0x227 /tmp/ccgdRr0t.ltrans3.ltrans.o
                                        0x29d (size before relaxing)
 .rodata.ChooseFile.constprop.28.str1.1
                0x000000000009db0f       0x57 /tmp/ccgdRr0t.ltrans3.ltrans.o
                                         0xee (size before relaxing)
 .rodata.ChooseFile.constprop.28.str2.2
                0x000000000009db66       0x64 /tmp/ccgdRr0t.ltrans3.ltrans.o
                                         0x68 (size before relaxing)
 .rodata.CreatePopUp.constprop.25.str1.1
                0x000000000009dbca       0x89 /tmp/ccgdRr0t.ltrans3.ltrans.o
 *fill*         0x000000000009dc53        0x1 
 .rodata.CreatePopUp.constprop.25.str2.2
                0x000000000009dc54        0x8 /tmp/ccgdRr0t.ltrans3.ltrans.o
 .rodata.EfiAcquireLock.constprop.49.str1.1
                0x000000000009dc5c       0x1e /tmp/ccgdRr0t.ltrans3.ltrans.o
                                         0x56 (size before relaxing)
 .rodata.EfiBootManagerAddLoadOptionVariable.constprop.87.str1.1
                0x000000000009dc7a       0x1f /tmp/ccgdRr0t.ltrans3.ltrans.o
                                         0xdc (size before relaxing)
 .rodata.EfiBootManagerGetLoadOptions.part.9.constprop.78.str1.1
                0x000000000009dc99       0x7f /tmp/ccgdRr0t.ltrans3.ltrans.o
                                         0x97 (size before relaxing)
 .rodata.EfiBootManagerGetLoadOptions.part.9.constprop.78.str2.2
                0x000000000009dd18       0x2c /tmp/ccgdRr0t.ltrans3.ltrans.o
 .rodata.EfiReleaseLock.constprop.48.str1.1
                0x000000000009dd18       0x1e /tmp/ccgdRr0t.ltrans3.ltrans.o
 .rodata.EndPerformanceMeasurementEx.constprop.76.str1.1
                0x000000000009dd36       0x52 /tmp/ccgdRr0t.ltrans3.ltrans.o
                                         0x64 (size before relaxing)
 .rodata.HiiConstructConfigHdr.constprop.21.str2.2
                0x000000000009dd88       0x28 /tmp/ccgdRr0t.ltrans3.ltrans.o
 .rodata.HiiGetString.constprop.61.str1.1
                0x000000000009ddb0        0xe /tmp/ccgdRr0t.ltrans3.ltrans.o
 .rodata.HiiGetString.constprop.61.str2.2
                0x000000000009ddbe       0x1a /tmp/ccgdRr0t.ltrans3.ltrans.o
 .rodata.HiiSetString.constprop.69.str1.1
                0x000000000009ddbe       0x4a /tmp/ccgdRr0t.ltrans3.ltrans.o
                                         0x7b (size before relaxing)
 .rodata.IsZeroBuffer.constprop.29.str1.1
                0x000000000009de08       0x82 /tmp/ccgdRr0t.ltrans3.ltrans.o
 .rodata.ReportStatusCodeEx.constprop.44.str1.1
                0x000000000009de8a      0x10b /tmp/ccgdRr0t.ltrans3.ltrans.o
 .rodata.SetMem.constprop.23.str1.1
                0x000000000009df95       0x44 /tmp/ccgdRr0t.ltrans3.ltrans.o
 .rodata.StrnCatS.constprop.50.str1.1
                0x000000000009dfd9       0xe3 /tmp/ccgdRr0t.ltrans3.ltrans.o
 .rodata.StrnCatS.constprop.50.str2.2
                0x000000000009dfd9        0x8 /tmp/ccgdRr0t.ltrans3.ltrans.o
 *fill*         0x000000000009dfd9        0x1 
 .rodata.UefiDevicePathLibConvertDevicePathToText.constprop.63.str2.2
                0x000000000009dfda        0x4 /tmp/ccgdRr0t.ltrans3.ltrans.o
 .rodata.UnicodeStrToAsciiStrS.constprop.110.str1.1
                0x000000000009dfde       0x76 /tmp/ccgdRr0t.ltrans3.ltrans.o
                                         0xea (size before relaxing)
 .rodata._gPcd_FixedAtBuild_PcdDriverHealthConfigureForm
                0x000000000009e054       0x10 /tmp/ccgdRr0t.ltrans3.ltrans.o
                0x000000000009e054                _gPcd_FixedAtBuild_PcdDriverHealthConfigureForm
 .rodata.lv_disp_drv_register.constprop.94.str1.1
                0x000000000009e064       0x4f /tmp/ccgdRr0t.ltrans3.ltrans.o
 .rodata.lv_font_dejavu_20_glyph_bitmap
                0x000000000009e064     0x3ee4 /tmp/ccgdRr0t.ltrans3.ltrans.o
 .rodata.lv_font_dejavu_20_glyph_dsc
                0x00000000000a1f48      0x17c /tmp/ccgdRr0t.ltrans3.ltrans.o
 .rodata.lv_fs_open.constprop.102.str1.1
                0x00000000000a20c4       0x4a /tmp/ccgdRr0t.ltrans3.ltrans.o
 .rodata.lv_tabview_create.constprop.105.str1.1
                0x00000000000a20c4       0x27 /tmp/ccgdRr0t.ltrans3.ltrans.o
                                         0xd2 (size before relaxing)
 .rodata.lv_task_create.constprop.91.str1.1
                0x00000000000a20eb       0x4c /tmp/ccgdRr0t.ltrans3.ltrans.o
 .rodata.lv_win_create.constprop.99.str1.1
                0x00000000000a2137       0x63 /tmp/ccgdRr0t.ltrans3.ltrans.o
 .rodata.lv_win_set_title.constprop.100.str1.1
                0x00000000000a219a       0x10 /tmp/ccgdRr0t.ltrans3.ltrans.o
 *fill*         0x00000000000a21aa        0x6 
 .rodata.mBmLoadOptionName
                0x00000000000a21b0       0x20 /tmp/ccgdRr0t.ltrans3.ltrans.o
                0x00000000000a21b0                mBmLoadOptionName
 .rodata.mBmLoadOptionOrderName
                0x00000000000a21d0       0x20 /tmp/ccgdRr0t.ltrans3.ltrans.o
                0x00000000000a21d0                mBmLoadOptionOrderName
 .rodata.mStatusString
                0x00000000000a21f0      0x138 /tmp/ccgdRr0t.ltrans3.ltrans.o
 .rodata.mUefiDevicePathLibToTextTable
                0x00000000000a2328      0x320 /tmp/ccgdRr0t.ltrans3.ltrans.o
 .rodata.str1.1
                0x00000000000a2648      0x23e /tmp/ccgdRr0t.ltrans3.ltrans.o
                                        0x251 (size before relaxing)
 .rodata.str2.2
                0x00000000000a2886       0x4c /tmp/ccgdRr0t.ltrans3.ltrans.o
                                         0x72 (size before relaxing)
 *fill*         0x00000000000a28d2        0x2 
 .rodata.DevPathToTextBBS
                0x00000000000a28d4        0x6 /tmp/ccgdRr0t.ltrans4.ltrans.o
 *fill*         0x00000000000a28da        0x2 
 .rodata.DevPathToTextUart
                0x00000000000a28dc        0x4 /tmp/ccgdRr0t.ltrans4.ltrans.o
 .rodata.UpdatePageBody
                0x00000000000a28e0        0x8 /tmp/ccgdRr0t.ltrans4.ltrans.o
 .rodata.BOpt_DestroyMenuEntry
                0x00000000000a28e8        0x6 /tmp/ccgdRr0t.ltrans4.ltrans.o
 *fill*         0x00000000000a28ee        0x2 
 .rodata.BOpt_CreateMenuEntry
                0x00000000000a28f0        0x6 /tmp/ccgdRr0t.ltrans4.ltrans.o
 .rodata.AllocateCopyPool.str1.1
                0x00000000000a28f6       0x3f /tmp/ccgdRr0t.ltrans4.ltrans.o
 .rodata.BOpt_GetBootOptions.str1.1
                0x00000000000a2935       0x1d /tmp/ccgdRr0t.ltrans4.ltrans.o
 .rodata.BOpt_GetBootOptions.str2.2
                0x00000000000a2935       0x38 /tmp/ccgdRr0t.ltrans4.ltrans.o
 .rodata.BOpt_GetDriverOptions.str1.1
                0x00000000000a2935       0x86 /tmp/ccgdRr0t.ltrans4.ltrans.o
 .rodata.BOpt_GetDriverOptions.str2.2
                0x00000000000a2935       0x2e /tmp/ccgdRr0t.ltrans4.ltrans.o
 .rodata.BOpt_GetMenuEntry.str1.1
                0x00000000000a2935       0x39 /tmp/ccgdRr0t.ltrans4.ltrans.o
 .rodata.BOpt_GetOptionNumber.str1.1
                0x00000000000a2935        0xd /tmp/ccgdRr0t.ltrans4.ltrans.o
 .rodata.BOpt_GetOptionNumber.str2.2
                0x00000000000a2942       0x10 /tmp/ccgdRr0t.ltrans4.ltrans.o
                                         0x1e (size before relaxing)
 .rodata.BootFromFile.str1.1
                0x00000000000a2952       0x55 /tmp/ccgdRr0t.ltrans4.ltrans.o
                                         0x91 (size before relaxing)
 .rodata.BootFromFile.str2.2
                0x00000000000a29a7       0x86 /tmp/ccgdRr0t.ltrans4.ltrans.o
 .rodata.CSWTCH.42
                0x00000000000a29a7        0x6 /tmp/ccgdRr0t.ltrans4.ltrans.o
 *fill*         0x00000000000a29ad        0x1 
 .rodata.CatIPv4Address.str2.2
                0x00000000000a29ae       0x18 /tmp/ccgdRr0t.ltrans4.ltrans.o
 .rodata.CatIPv6Address.str2.2
                0x00000000000a29c6       0x90 /tmp/ccgdRr0t.ltrans4.ltrans.o
 .rodata.CatNetworkProtocol.str2.2
                0x00000000000a2a56        0x8 /tmp/ccgdRr0t.ltrans4.ltrans.o
                                         0x12 (size before relaxing)
 .rodata.CompareMem.str1.1
                0x00000000000a2a5e       0x87 /tmp/ccgdRr0t.ltrans4.ltrans.o
 .rodata.CopyMem.str1.1
                0x00000000000a2ae5       0xc6 /tmp/ccgdRr0t.ltrans4.ltrans.o
 *fill*         0x00000000000a2bab        0x1 
 .rodata.DevPathRelativeOffsetRange.str2.2
                0x00000000000a2bac       0x28 /tmp/ccgdRr0t.ltrans4.ltrans.o
 .rodata.DevPathToText1394.str2.2
                0x00000000000a2bd4       0x1c /tmp/ccgdRr0t.ltrans4.ltrans.o
 .rodata.DevPathToTextAcpi.str2.2
                0x00000000000a2bf0       0xfc /tmp/ccgdRr0t.ltrans4.ltrans.o
 .rodata.DevPathToTextAcpiAdr.str2.2
                0x00000000000a2cec       0x26 /tmp/ccgdRr0t.ltrans4.ltrans.o
 .rodata.DevPathToTextAcpiEx.str2.2
                0x00000000000a2d12       0x9e /tmp/ccgdRr0t.ltrans4.ltrans.o
                                         0xba (size before relaxing)
 .rodata.DevPathToTextAtapi.str2.2
                0x00000000000a2db0       0x72 /tmp/ccgdRr0t.ltrans4.ltrans.o
 .rodata.DevPathToTextBBS.str2.2
                0x00000000000a2e22       0x32 /tmp/ccgdRr0t.ltrans4.ltrans.o
                                         0x80 (size before relaxing)
 .rodata.DevPathToTextBluetooth.str2.2
                0x00000000000a2e54       0x48 /tmp/ccgdRr0t.ltrans4.ltrans.o
 .rodata.DevPathToTextBluetoothLE.str2.2
                0x00000000000a2e9c       0x5a /tmp/ccgdRr0t.ltrans4.ltrans.o
 .rodata.DevPathToTextBmc.str2.2
                0x00000000000a2ef6       0x20 /tmp/ccgdRr0t.ltrans4.ltrans.o
 .rodata.DevPathToTextCDROM.str2.2
                0x00000000000a2f16       0x48 /tmp/ccgdRr0t.ltrans4.ltrans.o
 .rodata.DevPathToTextController.str2.2
                0x00000000000a2f5e       0x16 /tmp/ccgdRr0t.ltrans4.ltrans.o
 .rodata.DevPathToTextDns.str2.2
                0x00000000000a2f74        0xa /tmp/ccgdRr0t.ltrans4.ltrans.o
 .rodata.DevPathToTextEmmc.str2.2
                0x00000000000a2f7e       0x16 /tmp/ccgdRr0t.ltrans4.ltrans.o
 .rodata.DevPathToTextFibre.str2.2
                0x00000000000a2f94       0x26 /tmp/ccgdRr0t.ltrans4.ltrans.o
 .rodata.DevPathToTextFibreEx.str2.2
                0x00000000000a2fba       0x16 /tmp/ccgdRr0t.ltrans4.ltrans.o
 .rodata.DevPathToTextFilePath.str2.2
                0x00000000000a2fd0       0x16 /tmp/ccgdRr0t.ltrans4.ltrans.o
                                          0x6 (size before relaxing)
 .rodata.DevPathToTextFv.str2.2
                0x00000000000a2fd0        0xe /tmp/ccgdRr0t.ltrans4.ltrans.o
 .rodata.DevPathToTextFvFile.str2.2
                0x00000000000a2fde       0x16 /tmp/ccgdRr0t.ltrans4.ltrans.o
 .rodata.DevPathToTextHardDrive.str2.2
                0x00000000000a2ff4       0x64 /tmp/ccgdRr0t.ltrans4.ltrans.o
                                         0x7e (size before relaxing)
 .rodata.DevPathToTextI2O.str2.2
                0x00000000000a3058       0x14 /tmp/ccgdRr0t.ltrans4.ltrans.o
 .rodata.DevPathToTextIPv4.str2.2
                0x00000000000a306c       0x24 /tmp/ccgdRr0t.ltrans4.ltrans.o
                                         0x2e (size before relaxing)
 .rodata.DevPathToTextIPv6.str2.2
                0x00000000000a3090       0x80 /tmp/ccgdRr0t.ltrans4.ltrans.o
                                         0x8e (size before relaxing)
 .rodata.DevPathToTextInfiniBand.str2.2
                0x00000000000a3110       0x4c /tmp/ccgdRr0t.ltrans4.ltrans.o
 .rodata.DevPathToTextLogicalUnit.str2.2
                0x00000000000a315c       0x16 /tmp/ccgdRr0t.ltrans4.ltrans.o
 .rodata.DevPathToTextMacAddr.str2.2
                0x00000000000a3172        0xa /tmp/ccgdRr0t.ltrans4.ltrans.o
 .rodata.DevPathToTextMediaProtocol.str2.2
                0x00000000000a317c       0x14 /tmp/ccgdRr0t.ltrans4.ltrans.o
 .rodata.DevPathToTextMemMap.str2.2
                0x00000000000a3190       0x3e /tmp/ccgdRr0t.ltrans4.ltrans.o
 .rodata.DevPathToTextNVMe.str2.2
                0x00000000000a31ce       0x66 /tmp/ccgdRr0t.ltrans4.ltrans.o
 .rodata.DevPathToTextNodeGeneric.str2.2
                0x00000000000a3234       0x22 /tmp/ccgdRr0t.ltrans4.ltrans.o
                                         0x34 (size before relaxing)
 .rodata.DevPathToTextPccard.str2.2
                0x00000000000a3256       0x1a /tmp/ccgdRr0t.ltrans4.ltrans.o
 .rodata.DevPathToTextPci.str2.2
                0x00000000000a3270       0x1e /tmp/ccgdRr0t.ltrans4.ltrans.o
 .rodata.DevPathToTextRamDisk.str2.2
                0x00000000000a328e       0xca /tmp/ccgdRr0t.ltrans4.ltrans.o
                                        0x136 (size before relaxing)
 .rodata.DevPathToTextSasEx.str2.2
                0x00000000000a3358       0xbc /tmp/ccgdRr0t.ltrans4.ltrans.o
                                         0xc0 (size before relaxing)
 .rodata.DevPathToTextSata.str2.2
                0x00000000000a3414       0x2a /tmp/ccgdRr0t.ltrans4.ltrans.o
 .rodata.DevPathToTextScsi.str2.2
                0x00000000000a343e       0x20 /tmp/ccgdRr0t.ltrans4.ltrans.o
 .rodata.DevPathToTextSd.str2.2
                0x00000000000a345e       0x12 /tmp/ccgdRr0t.ltrans4.ltrans.o
 .rodata.DevPathToTextUart.str2.2
                0x00000000000a3470       0x5c /tmp/ccgdRr0t.ltrans4.ltrans.o
                                         0x74 (size before relaxing)
 .rodata.DevPathToTextUfs.str2.2
                0x00000000000a34cc       0x1e /tmp/ccgdRr0t.ltrans4.ltrans.o
 .rodata.DevPathToTextUri.str1.1
                0x00000000000a34ea       0x17 /tmp/ccgdRr0t.ltrans4.ltrans.o
 *fill*         0x00000000000a3501        0x1 
 .rodata.DevPathToTextUri.str2.2
                0x00000000000a3502       0x10 /tmp/ccgdRr0t.ltrans4.ltrans.o
 .rodata.DevPathToTextUsb.str2.2
                0x00000000000a3512       0x1e /tmp/ccgdRr0t.ltrans4.ltrans.o
 .rodata.DevPathToTextUsbClass.str2.2
                0x00000000000a3530      0x250 /tmp/ccgdRr0t.ltrans4.ltrans.o
 .rodata.DevPathToTextUsbWWID.str1.1
                0x00000000000a3780       0x17 /tmp/ccgdRr0t.ltrans4.ltrans.o
 *fill*         0x00000000000a3797        0x1 
 .rodata.DevPathToTextUsbWWID.str2.2
                0x00000000000a3798       0x3a /tmp/ccgdRr0t.ltrans4.ltrans.o
 .rodata.DevPathToTextVendor.str2.2
                0x00000000000a37d2      0x154 /tmp/ccgdRr0t.ltrans4.ltrans.o
                                        0x166 (size before relaxing)
 .rodata.DevPathToTextVlan.str2.2
                0x00000000000a3926       0x12 /tmp/ccgdRr0t.ltrans4.ltrans.o
 .rodata.DevPathToTextWiFi.str2.2
                0x00000000000a3938       0x14 /tmp/ccgdRr0t.ltrans4.ltrans.o
 .rodata.DevPathToTextiSCSI.str2.2
                0x00000000000a394c       0x7e /tmp/ccgdRr0t.ltrans4.ltrans.o
                                         0x8e (size before relaxing)
 .rodata.DevicePathSubType.str1.1
                0x00000000000a39ca       0x4e /tmp/ccgdRr0t.ltrans4.ltrans.o
                                         0x63 (size before relaxing)
 .rodata.EfiGetNameGuidFromFwVolDevicePathNode.str1.1
                0x00000000000a3a18       0x21 /tmp/ccgdRr0t.ltrans4.ltrans.o
                                         0x5e (size before relaxing)
 .rodata.FreePages.str1.1
                0x00000000000a3a39        0xb /tmp/ccgdRr0t.ltrans4.ltrans.o
 .rodata.FreePool.str1.1
                0x00000000000a3a44       0x54 /tmp/ccgdRr0t.ltrans4.ltrans.o
 .rodata.GetConsoleMenu.str1.1
                0x00000000000a3a98       0x2e /tmp/ccgdRr0t.ltrans4.ltrans.o
                                         0x86 (size before relaxing)
 .rodata.GetConsoleMenu.str2.2
                0x00000000000a3ac6       0x62 /tmp/ccgdRr0t.ltrans4.ltrans.o
 .rodata.GetDriverOrder.str1.1
                0x00000000000a3ac6       0x1d /tmp/ccgdRr0t.ltrans4.ltrans.o
 .rodata.GetPcdProtocol.str1.1
                0x00000000000a3ae3       0x51 /tmp/ccgdRr0t.ltrans4.ltrans.o
                                         0x86 (size before relaxing)
 .rodata.GetPerformanceProtocol.str1.1
                0x00000000000a3b34       0x3a /tmp/ccgdRr0t.ltrans4.ltrans.o
                                         0x8c (size before relaxing)
 .rodata.HiiCreateOneOfOpCode.constprop.16.str1.1
                0x00000000000a3b6e       0x24 /tmp/ccgdRr0t.ltrans4.ltrans.o
 .rodata.HiiFreeOpCodeHandle.str1.1
                0x00000000000a3b6e       0x3a /tmp/ccgdRr0t.ltrans4.ltrans.o
                                         0x1d (size before relaxing)
 .rodata.HiiGetSupportedLanguages.str1.1
                0x00000000000a3b6e       0x45 /tmp/ccgdRr0t.ltrans4.ltrans.o
 .rodata.HiiIsConfigHdrMatch.constprop.20.str1.1
                0x00000000000a3bb3       0x1a /tmp/ccgdRr0t.ltrans4.ltrans.o
 .rodata.HiiIsConfigHdrMatch.constprop.20.str2.2
                0x00000000000a3bcd       0x28 /tmp/ccgdRr0t.ltrans4.ltrans.o
 .rodata.HiiRemovePackages.str1.1
                0x00000000000a3bcd       0x1a /tmp/ccgdRr0t.ltrans4.ltrans.o
 .rodata.HiiUpdateForm.str1.1
                0x00000000000a3bcd       0x22 /tmp/ccgdRr0t.ltrans4.ltrans.o
 .rodata.InitializeListHead.str1.1
                0x00000000000a3bcd       0x19 /tmp/ccgdRr0t.ltrans4.ltrans.o
 .rodata.InternalBaseLibIsListValid.str1.1
                0x00000000000a3be6       0x7c /tmp/ccgdRr0t.ltrans4.ltrans.o
                                         0x91 (size before relaxing)
 .rodata.InternalHiiAppendOpCodes.str1.1
                0x00000000000a3c62       0x3a /tmp/ccgdRr0t.ltrans4.ltrans.o
 .rodata.InternalHiiCompareSubString.str1.1
                0x00000000000a3c9c       0x39 /tmp/ccgdRr0t.ltrans4.ltrans.o
                                         0x79 (size before relaxing)
 .rodata.InternalHiiCreateOpCodeExtended.str1.1
                0x00000000000a3cd5       0x25 /tmp/ccgdRr0t.ltrans4.ltrans.o
 .rodata.IsDevicePathValid.str1.1
                0x00000000000a3cfa       0x1b /tmp/ccgdRr0t.ltrans4.ltrans.o
 .rodata.IsListEmpty.str1.1
                0x00000000000a3cfa       0x26 /tmp/ccgdRr0t.ltrans4.ltrans.o
 .rodata.IsNull.str1.1
                0x00000000000a3d20       0x22 /tmp/ccgdRr0t.ltrans4.ltrans.o
 .rodata.Print.str1.1
                0x00000000000a3d42       0x78 /tmp/ccgdRr0t.ltrans4.ltrans.o
 .rodata.ReSendForm.str1.1
                0x00000000000a3dba       0x6c /tmp/ccgdRr0t.ltrans4.ltrans.o
 .rodata.RemoveEntryList.str1.1
                0x00000000000a3dba       0x15 /tmp/ccgdRr0t.ltrans4.ltrans.o
 .rodata.SetDevicePathNodeLength.str1.1
                0x00000000000a3dcf       0x47 /tmp/ccgdRr0t.ltrans4.ltrans.o
 .rodata.SetMem16.str1.1
                0x00000000000a3e16       0x74 /tmp/ccgdRr0t.ltrans4.ltrans.o
                                         0xc3 (size before relaxing)
 .rodata.StartPerformanceMeasurementEx.str1.1
                0x00000000000a3e8a       0x12 /tmp/ccgdRr0t.ltrans4.ltrans.o
 .rodata.UefiDevicePathLibCatPrint.str1.1
                0x00000000000a3e8a       0x64 /tmp/ccgdRr0t.ltrans4.ltrans.o
 .rodata.UpdateConsolePage.str1.1
                0x00000000000a3eee       0x1d /tmp/ccgdRr0t.ltrans4.ltrans.o
                                         0x29 (size before relaxing)
 .rodata.UpdateOrderPage.str1.1
                0x00000000000a3f0b       0x1d /tmp/ccgdRr0t.ltrans4.ltrans.o
                                         0x1c (size before relaxing)
 .rodata.Var_UpdateConsoleOption.str1.1
                0x00000000000a3f0b       0x85 /tmp/ccgdRr0t.ltrans4.ltrans.o
                                         0xd8 (size before relaxing)
 .rodata.WriteUnaligned16.str1.1
                0x00000000000a3f90       0x3e /tmp/ccgdRr0t.ltrans4.ltrans.o
 .rodata.ZeroMem.str1.1
                0x00000000000a3fce       0x7b /tmp/ccgdRr0t.ltrans4.ltrans.o
 .rodata.mEndOfPakageList
                0x00000000000a4049        0x4 /tmp/ccgdRr0t.ltrans4.ltrans.o
 .rodata.mHiiDefaultTypeToWidth
                0x00000000000a404d        0x8 /tmp/ccgdRr0t.ltrans4.ltrans.o
 .rodata.mUefiDevicePathLibEndDevicePath
                0x00000000000a4055        0x4 /tmp/ccgdRr0t.ltrans4.ltrans.o
 *fill*         0x00000000000a4059        0x7 
 .rodata.mUefiDevicePathLibToTextTableGeneric
                0x00000000000a4060       0x60 /tmp/ccgdRr0t.ltrans4.ltrans.o
 .rodata.str2.2
                0x00000000000a40c0       0x50 /tmp/ccgdRr0t.ltrans4.ltrans.o
 *(.got .got.*)
 *:AutoGen.obj(.data.g*Guid)

.iplt           0x00000000000a4110        0x0
 .iplt          0x00000000000a4110        0x0 /home/vsts/work/1/edk2/Build/Lumia950XL-AARCH64/DEBUG_GCC5/AARCH64/ArmPkg/Library/ArmLib/ArmBaseLib/OUTPUT/ArmBaseLib.lib(AArch64Support.obj)

.data           0x00000000000a5000    0x2ff08
 *(.data .data.* .gnu.linkonce.d.*)
 .data.BootMaintenanceManagerBin
                0x00000000000a5000      0x594 /tmp/ccgdRr0t.ltrans0.ltrans.o
 .data.BootMaintenanceManagerUiLibStrings
                0x00000000000a5594     0x1b4e /tmp/ccgdRr0t.ltrans0.ltrans.o
 .data.BootManagerUiLibStrings
                0x00000000000a70e2      0x434 /tmp/ccgdRr0t.ltrans0.ltrans.o
 .data.BootManagerVfrBin
                0x00000000000a7516       0xb3 /tmp/ccgdRr0t.ltrans0.ltrans.o
 .data.DeviceManagerUiLibStrings
                0x00000000000a75c9      0x4b8 /tmp/ccgdRr0t.ltrans0.ltrans.o
 .data.DeviceManagerVfrBin
                0x00000000000a7a81      0x12d /tmp/ccgdRr0t.ltrans0.ltrans.o
 .data.FeHiiVendorDevicePath
                0x00000000000a7bae       0x18 /tmp/ccgdRr0t.ltrans0.ltrans.o
 .data.FileExplorerLibStrings
                0x00000000000a7bc6      0x81a /tmp/ccgdRr0t.ltrans0.ltrans.o
 .data.FileExplorerVfrBin
                0x00000000000a83e0       0xf9 /tmp/ccgdRr0t.ltrans0.ltrans.o
 *fill*         0x00000000000a84d9        0x3 
 .data.gEdkiiVariableLockProtocolGuid
                0x00000000000a84dc       0x10 /tmp/ccgdRr0t.ltrans0.ltrans.o
 .data.gEfiAbsolutePointerProtocolGuid
                0x00000000000a84ec       0x10 /tmp/ccgdRr0t.ltrans0.ltrans.o
 .data.gEfiBlockIoProtocolGuid
                0x00000000000a84fc       0x10 /tmp/ccgdRr0t.ltrans0.ltrans.o
 .data.gEfiBootLogoProtocolGuid
                0x00000000000a850c       0x10 /tmp/ccgdRr0t.ltrans0.ltrans.o
 .data.gEfiComponentName2ProtocolGuid
                0x00000000000a851c       0x10 /tmp/ccgdRr0t.ltrans0.ltrans.o
 .data.gEfiComponentNameProtocolGuid
                0x00000000000a852c       0x10 /tmp/ccgdRr0t.ltrans0.ltrans.o
 .data.gEfiDiskInfoAhciInterfaceGuid
                0x00000000000a853c       0x10 /tmp/ccgdRr0t.ltrans0.ltrans.o
 .data.gEfiDiskInfoIdeInterfaceGuid
                0x00000000000a854c       0x10 /tmp/ccgdRr0t.ltrans0.ltrans.o
 .data.gEfiDiskInfoProtocolGuid
                0x00000000000a855c       0x10 /tmp/ccgdRr0t.ltrans0.ltrans.o
 .data.gEfiDiskInfoScsiInterfaceGuid
                0x00000000000a856c       0x10 /tmp/ccgdRr0t.ltrans0.ltrans.o
 .data.gEfiDiskInfoSdMmcInterfaceGuid
                0x00000000000a857c       0x10 /tmp/ccgdRr0t.ltrans0.ltrans.o
 .data.gEfiDriverHealthProtocolGuid
                0x00000000000a858c       0x10 /tmp/ccgdRr0t.ltrans0.ltrans.o
 .data.gEfiDxeServicesTableGuid
                0x00000000000a859c       0x10 /tmp/ccgdRr0t.ltrans0.ltrans.o
 .data.gEfiEventReadyToBootGuid
                0x00000000000a85ac       0x10 /tmp/ccgdRr0t.ltrans0.ltrans.o
 .data.gEfiFileInfoGuid
                0x00000000000a85bc       0x10 /tmp/ccgdRr0t.ltrans0.ltrans.o
 .data.gEfiFirmwareVolume2ProtocolGuid
                0x00000000000a85cc       0x10 /tmp/ccgdRr0t.ltrans0.ltrans.o
 .data.gEfiHiiConfigAccessProtocolGuid
                0x00000000000a85dc       0x10 /tmp/ccgdRr0t.ltrans0.ltrans.o
 .data.gEfiHiiDatabaseProtocolGuid
                0x00000000000a85ec       0x10 /tmp/ccgdRr0t.ltrans0.ltrans.o
 .data.gEfiHiiFontProtocolGuid
                0x00000000000a85fc       0x10 /tmp/ccgdRr0t.ltrans0.ltrans.o
 .data.gEfiHiiImageProtocolGuid
                0x00000000000a860c       0x10 /tmp/ccgdRr0t.ltrans0.ltrans.o
 .data.gEfiHiiStringProtocolGuid
                0x00000000000a861c       0x10 /tmp/ccgdRr0t.ltrans0.ltrans.o
 .data.gEfiHobListGuid
                0x00000000000a862c       0x10 /tmp/ccgdRr0t.ltrans0.ltrans.o
 .data.gEfiLoadFileProtocolGuid
                0x00000000000a863c       0x10 /tmp/ccgdRr0t.ltrans0.ltrans.o
 .data.gEfiLoadedImageProtocolGuid
                0x00000000000a864c       0x10 /tmp/ccgdRr0t.ltrans0.ltrans.o
 .data.gEfiMemoryTypeInformationGuid
                0x00000000000a865c       0x10 /tmp/ccgdRr0t.ltrans0.ltrans.o
 .data.gEfiNvmExpressPassThruProtocolGuid
                0x00000000000a866c       0x10 /tmp/ccgdRr0t.ltrans0.ltrans.o
 .data.gEfiRamDiskProtocolGuid
                0x00000000000a867c       0x10 /tmp/ccgdRr0t.ltrans0.ltrans.o
 .data.gEfiSerialIoProtocolGuid
                0x00000000000a868c       0x10 /tmp/ccgdRr0t.ltrans0.ltrans.o
 .data.gEfiSimpleTextInProtocolGuid
                0x00000000000a869c       0x10 /tmp/ccgdRr0t.ltrans0.ltrans.o
 .data.gEfiSimpleTextInputExProtocolGuid
                0x00000000000a86ac       0x10 /tmp/ccgdRr0t.ltrans0.ltrans.o
 .data.gEfiStatusCodeRuntimeProtocolGuid
                0x00000000000a86bc       0x10 /tmp/ccgdRr0t.ltrans0.ltrans.o
 .data.gEfiUsbIoProtocolGuid
                0x00000000000a86cc       0x10 /tmp/ccgdRr0t.ltrans0.ltrans.o
 *fill*         0x00000000000a86dc        0x4 
 .data.lv_font_dejavu_10
                0x00000000000a86e0       0x40 /tmp/ccgdRr0t.ltrans0.ltrans.o
 .data.lv_font_dejavu_10_cyrillic
                0x00000000000a8720       0x40 /tmp/ccgdRr0t.ltrans0.ltrans.o
 .data.lv_font_dejavu_10_latin_sup
                0x00000000000a8760       0x40 /tmp/ccgdRr0t.ltrans0.ltrans.o
 .data.lv_font_dejavu_20_cyrillic
                0x00000000000a87a0       0x40 /tmp/ccgdRr0t.ltrans0.ltrans.o
 .data.lv_font_dejavu_20_latin_sup
                0x00000000000a87e0       0x40 /tmp/ccgdRr0t.ltrans0.ltrans.o
 .data.lv_font_dejavu_30
                0x00000000000a8820       0x40 /tmp/ccgdRr0t.ltrans0.ltrans.o
 .data.lv_font_dejavu_30_cyrillic
                0x00000000000a8860       0x40 /tmp/ccgdRr0t.ltrans0.ltrans.o
 .data.lv_font_dejavu_30_latin_sup
                0x00000000000a88a0       0x40 /tmp/ccgdRr0t.ltrans0.ltrans.o
 .data.lv_font_dejavu_40
                0x00000000000a88e0       0x40 /tmp/ccgdRr0t.ltrans0.ltrans.o
 .data.lv_font_dejavu_40_cyrillic
                0x00000000000a8920       0x40 /tmp/ccgdRr0t.ltrans0.ltrans.o
 .data.lv_font_dejavu_40_latin_sup
                0x00000000000a8960       0x40 /tmp/ccgdRr0t.ltrans0.ltrans.o
 .data.lv_font_symbol_10
                0x00000000000a89a0       0x40 /tmp/ccgdRr0t.ltrans0.ltrans.o
 .data.lv_font_symbol_20
                0x00000000000a89e0       0x40 /tmp/ccgdRr0t.ltrans0.ltrans.o
 .data.lv_font_symbol_30
                0x00000000000a8a20       0x40 /tmp/ccgdRr0t.ltrans0.ltrans.o
 .data.lv_font_symbol_40
                0x00000000000a8a60       0x40 /tmp/ccgdRr0t.ltrans0.ltrans.o
 .data.mBmAutoCreateBootOptionGuid
                0x00000000000a8aa0       0x10 /tmp/ccgdRr0t.ltrans0.ltrans.o
 .data.mBmHardDriveBootVariableGuid
                0x00000000000a8ab0       0x10 /tmp/ccgdRr0t.ltrans0.ltrans.o
 .data.mBmHotkeyBootOption
                0x00000000000a8ac0       0x58 /tmp/ccgdRr0t.ltrans0.ltrans.o
 .data.mBmHotkeyList
                0x00000000000a8b18       0x10 /tmp/ccgdRr0t.ltrans0.ltrans.o
 .data.mBmUefiPrefix
                0x00000000000a8b28        0xc /tmp/ccgdRr0t.ltrans0.ltrans.o
 .data.mBmmHiiVendorDevicePath
                0x00000000000a8b34       0x18 /tmp/ccgdRr0t.ltrans0.ltrans.o
 .data.mBootManagerHiiVendorDevicePath
                0x00000000000a8b4c       0x18 /tmp/ccgdRr0t.ltrans0.ltrans.o
 .data.mDeviceManagerHiiVendorDevicePath
                0x00000000000a8b64       0x18 /tmp/ccgdRr0t.ltrans0.ltrans.o
 *fill*         0x00000000000a8b7c        0x4 
 .data.mNewFileQuestionId
                0x00000000000a8b80        0x8 /tmp/ccgdRr0t.ltrans0.ltrans.o
 .data.mNewFolderQuestionId
                0x00000000000a8b88        0x8 /tmp/ccgdRr0t.ltrans0.ltrans.o
 .data.mPlatformBootDescriptionHandlers
                0x00000000000a8b90       0x10 /tmp/ccgdRr0t.ltrans0.ltrans.o
 .data.vdb      0x00000000000a8ba0       0x10 /tmp/ccgdRr0t.ltrans0.ltrans.o
 .data.vdb_state
                0x00000000000a8bb0        0x1 /tmp/ccgdRr0t.ltrans0.ltrans.o
 *fill*         0x00000000000a8bb1        0x7 
 .data.DriverMenu
                0x00000000000a8bb8       0x20 /tmp/ccgdRr0t.ltrans2.ltrans.o
                0x00000000000a8bb8                DriverMenu
 .data._gPcd_BinaryPatch_PcdConOutColumn
                0x00000000000a8bd8        0x4 /tmp/ccgdRr0t.ltrans2.ltrans.o
 .data._gPcd_BinaryPatch_PcdConOutRow
                0x00000000000a8bdc        0x4 /tmp/ccgdRr0t.ltrans2.ltrans.o
 .data.gBootManagerPrivate
                0x00000000000a8be0       0x30 /tmp/ccgdRr0t.ltrans2.ltrans.o
                0x00000000000a8be0                gBootManagerPrivate
 .data.gDeviceManagerPrivate
                0x00000000000a8c10       0x38 /tmp/ccgdRr0t.ltrans2.ltrans.o
                0x00000000000a8c10                gDeviceManagerPrivate
 .data.gEfiGraphicsOutputProtocolGuid
                0x00000000000a8c48       0x10 /tmp/ccgdRr0t.ltrans2.ltrans.o
                0x00000000000a8c48                gEfiGraphicsOutputProtocolGuid
 .data.gEfiHiiConfigRoutingProtocolGuid
                0x00000000000a8c58       0x10 /tmp/ccgdRr0t.ltrans2.ltrans.o
                0x00000000000a8c58                gEfiHiiConfigRoutingProtocolGuid
 .data.gEfiHiiPlatformSetupFormsetGuid
                0x00000000000a8c68       0x10 /tmp/ccgdRr0t.ltrans2.ltrans.o
 .data.gEfiIfrBootMaintenanceGuid
                0x00000000000a8c78       0x10 /tmp/ccgdRr0t.ltrans2.ltrans.o
 .data.gEfiPciIoProtocolGuid
                0x00000000000a8c88       0x10 /tmp/ccgdRr0t.ltrans2.ltrans.o
                0x00000000000a8c88                gEfiPciIoProtocolGuid
 .data.gEfiSimpleTextOutProtocolGuid
                0x00000000000a8c98       0x10 /tmp/ccgdRr0t.ltrans2.ltrans.o
                0x00000000000a8c98                gEfiSimpleTextOutProtocolGuid
 .data.mBootManagerGuid
                0x00000000000a8ca8       0x10 /tmp/ccgdRr0t.ltrans2.ltrans.o
                0x00000000000a8ca8                mBootManagerGuid
 .data.mDeviceManagerGuid
                0x00000000000a8cb8       0x10 /tmp/ccgdRr0t.ltrans2.ltrans.o
                0x00000000000a8cb8                mDeviceManagerGuid
 .data.FileExplorerGuid
                0x00000000000a8cc8       0x10 /tmp/ccgdRr0t.ltrans3.ltrans.o
                0x00000000000a8cc8                FileExplorerGuid
 .data.gEdkiiStatusCodeDataTypeVariableGuid
                0x00000000000a8cd8       0x10 /tmp/ccgdRr0t.ltrans3.ltrans.o
                0x00000000000a8cd8                gEdkiiStatusCodeDataTypeVariableGuid
 .data.gEfiCallerIdGuid
                0x00000000000a8ce8       0x10 /tmp/ccgdRr0t.ltrans3.ltrans.o
                0x00000000000a8ce8                gEfiCallerIdGuid
 .data.gEfiDevicePathToTextProtocolGuid
                0x00000000000a8cf8       0x10 /tmp/ccgdRr0t.ltrans3.ltrans.o
                0x00000000000a8cf8                gEfiDevicePathToTextProtocolGuid
 .data.gEfiFileSystemVolumeLabelInfoIdGuid
                0x00000000000a8d08       0x10 /tmp/ccgdRr0t.ltrans3.ltrans.o
 .data.gEfiGlobalVariableGuid
                0x00000000000a8d18       0x10 /tmp/ccgdRr0t.ltrans3.ltrans.o
                0x00000000000a8d18                gEfiGlobalVariableGuid
 .data.gEfiIfrTianoGuid
                0x00000000000a8d28       0x10 /tmp/ccgdRr0t.ltrans3.ltrans.o
                0x00000000000a8d28                gEfiIfrTianoGuid
 .data.gEfiSimpleFileSystemProtocolGuid
                0x00000000000a8d38       0x10 /tmp/ccgdRr0t.ltrans3.ltrans.o
                0x00000000000a8d38                gEfiSimpleFileSystemProtocolGuid
 .data.gFileExplorerPrivate
                0x00000000000a8d48       0x58 /tmp/ccgdRr0t.ltrans3.ltrans.o
                0x00000000000a8d48                gFileExplorerPrivate
 .data.lv_btnm_def_map
                0x00000000000a8da0       0x38 /tmp/ccgdRr0t.ltrans3.ltrans.o
 .data.lv_font_dejavu_20
                0x00000000000a8dd8       0x40 /tmp/ccgdRr0t.ltrans3.ltrans.o
                0x00000000000a8dd8                lv_font_dejavu_20
 .data.mBmHotkeyLock
                0x00000000000a8e18       0x18 /tmp/ccgdRr0t.ltrans3.ltrans.o
                0x00000000000a8e18                mBmHotkeyLock
 .data.mBootMaintGuid
                0x00000000000a8e30       0x10 /tmp/ccgdRr0t.ltrans3.ltrans.o
                0x00000000000a8e30                mBootMaintGuid
 .data.mBootMaintStorageName
                0x00000000000a8e40       0x10 /tmp/ccgdRr0t.ltrans3.ltrans.o
                0x00000000000a8e40                mBootMaintStorageName
 .data.mFsOptionMenu
                0x00000000000a8e50       0x21 /tmp/ccgdRr0t.ltrans3.ltrans.o
 *fill*         0x00000000000a8e71        0x7 
 .data.tab_def  0x00000000000a8e78        0x8 /tmp/ccgdRr0t.ltrans3.ltrans.o
 .data.BootOptionMenu
                0x00000000000a8e80       0x20 /tmp/ccgdRr0t.ltrans4.ltrans.o
                0x00000000000a8e80                BootOptionMenu
 .data.ConsoleErrMenu
                0x00000000000a8ea0       0x20 /tmp/ccgdRr0t.ltrans4.ltrans.o
                0x00000000000a8ea0                ConsoleErrMenu
 .data.ConsoleInpMenu
                0x00000000000a8ec0       0x20 /tmp/ccgdRr0t.ltrans4.ltrans.o
                0x00000000000a8ec0                ConsoleInpMenu
 .data.ConsoleOutMenu
                0x00000000000a8ee0       0x20 /tmp/ccgdRr0t.ltrans4.ltrans.o
                0x00000000000a8ee0                ConsoleOutMenu
 .data.DriverOptionMenu
                0x00000000000a8f00       0x20 /tmp/ccgdRr0t.ltrans4.ltrans.o
                0x00000000000a8f00                DriverOptionMenu
 .data.TerminalMenu
                0x00000000000a8f20       0x20 /tmp/ccgdRr0t.ltrans4.ltrans.o
                0x00000000000a8f20                TerminalMenu
 .data.TerminalTypeGuid
                0x00000000000a8f40       0x50 /tmp/ccgdRr0t.ltrans4.ltrans.o
                0x00000000000a8f40                TerminalTypeGuid
 .data.font5x12
                0x00000000000a8f90      0x300 /tmp/ccgdRr0t.ltrans4.ltrans.o
 .data.gBootMaintenancePrivate
                0x00000000000a9290     0x1c60 /tmp/ccgdRr0t.ltrans4.ltrans.o
                0x00000000000a9290                gBootMaintenancePrivate
 .data.gEdkiiFormBrowserEx2ProtocolGuid
                0x00000000000aaef0       0x10 /tmp/ccgdRr0t.ltrans4.ltrans.o
                0x00000000000aaef0                gEdkiiFormBrowserEx2ProtocolGuid
 .data.gEfiDebugPortProtocolGuid
                0x00000000000aaf00       0x10 /tmp/ccgdRr0t.ltrans4.ltrans.o
 .data.gEfiDevicePathProtocolGuid
                0x00000000000aaf10       0x10 /tmp/ccgdRr0t.ltrans4.ltrans.o
                0x00000000000aaf10                gEfiDevicePathProtocolGuid
 .data.gEfiFormBrowser2ProtocolGuid
                0x00000000000aaf20       0x10 /tmp/ccgdRr0t.ltrans4.ltrans.o
                0x00000000000aaf20                gEfiFormBrowser2ProtocolGuid
 .data.gEfiPcAnsiGuid
                0x00000000000aaf30       0x10 /tmp/ccgdRr0t.ltrans4.ltrans.o
 .data.gEfiPersistentVirtualCdGuid
                0x00000000000aaf40       0x10 /tmp/ccgdRr0t.ltrans4.ltrans.o
 .data.gEfiPersistentVirtualDiskGuid
                0x00000000000aaf50       0x10 /tmp/ccgdRr0t.ltrans4.ltrans.o
 .data.gEfiSasDevicePathGuid
                0x00000000000aaf60       0x10 /tmp/ccgdRr0t.ltrans4.ltrans.o
 .data.gEfiUartDevicePathGuid
                0x00000000000aaf70       0x10 /tmp/ccgdRr0t.ltrans4.ltrans.o
 .data.gEfiVT100Guid
                0x00000000000aaf80       0x10 /tmp/ccgdRr0t.ltrans4.ltrans.o
 .data.gEfiVT100PlusGuid
                0x00000000000aaf90       0x10 /tmp/ccgdRr0t.ltrans4.ltrans.o
 .data.gEfiVTUTF8Guid
                0x00000000000aafa0       0x10 /tmp/ccgdRr0t.ltrans4.ltrans.o
 .data.gEfiVirtualCdGuid
                0x00000000000aafb0       0x10 /tmp/ccgdRr0t.ltrans4.ltrans.o
 .data.gEfiVirtualDiskGuid
                0x00000000000aafc0       0x10 /tmp/ccgdRr0t.ltrans4.ltrans.o
 .data.gPcdProtocolGuid
                0x00000000000aafd0       0x10 /tmp/ccgdRr0t.ltrans4.ltrans.o
 .data.gPerformanceExProtocolGuid
                0x00000000000aafe0       0x10 /tmp/ccgdRr0t.ltrans4.ltrans.o
 .data.gPerformanceProtocolGuid
                0x00000000000aaff0       0x10 /tmp/ccgdRr0t.ltrans4.ltrans.o
 *(.bss .bss.*)
 .bss.LastX     0x00000000000ab000        0x8 /tmp/ccgdRr0t.ltrans0.ltrans.o
 .bss.LastY     0x00000000000ab008        0x8 /tmp/ccgdRr0t.ltrans0.ltrans.o
 .bss.gDS       0x00000000000ab010        0x8 /tmp/ccgdRr0t.ltrans0.ltrans.o
 .bss.gHiiFont  0x00000000000ab018        0x8 /tmp/ccgdRr0t.ltrans0.ltrans.o
 .bss.gHiiImage
                0x00000000000ab020        0x8 /tmp/ccgdRr0t.ltrans0.ltrans.o
 .bss.gHiiVendorDevicePath
                0x00000000000ab028        0x8 /tmp/ccgdRr0t.ltrans0.ltrans.o
 .bss.gImageHandle
                0x00000000000ab030        0x8 /tmp/ccgdRr0t.ltrans0.ltrans.o
 .bss.inv_buf   0x00000000000ab038      0x140 /tmp/ccgdRr0t.ltrans0.ltrans.o
 .bss.lv_style_scr
                0x00000000000ab178       0x50 /tmp/ccgdRr0t.ltrans0.ltrans.o
 .bss.lv_style_transp_fit
                0x00000000000ab1c8       0x50 /tmp/ccgdRr0t.ltrans0.ltrans.o
 .bss.mAllMenuInit
                0x00000000000ab218        0x1 /tmp/ccgdRr0t.ltrans0.ltrans.o
 .bss.mBmModeInitialized
                0x00000000000ab219        0x1 /tmp/ccgdRr0t.ltrans0.ltrans.o
 .bss.mBmmModeInitialized
                0x00000000000ab21a        0x1 /tmp/ccgdRr0t.ltrans0.ltrans.o
 *fill*         0x00000000000ab21b        0x5 
 .bss.mGop      0x00000000000ab220        0x8 /tmp/ccgdRr0t.ltrans0.ltrans.o
 .bss.mHobList  0x00000000000ab228        0x8 /tmp/ccgdRr0t.ltrans0.ltrans.o
 .bss.mLibEndOpCodeHandle
                0x00000000000ab230        0x8 /tmp/ccgdRr0t.ltrans0.ltrans.o
 .bss.mLibStartOpCodeHandle
                0x00000000000ab238        0x8 /tmp/ccgdRr0t.ltrans0.ltrans.o
 .bss.mNewFileName
                0x00000000000ab240       0x28 /tmp/ccgdRr0t.ltrans0.ltrans.o
 .bss.mNewFolderName
                0x00000000000ab268       0x28 /tmp/ccgdRr0t.ltrans0.ltrans.o
 .bss.mPointer  0x00000000000ab290        0x8 /tmp/ccgdRr0t.ltrans0.ltrans.o
 .bss.mRamDisk  0x00000000000ab298        0x8 /tmp/ccgdRr0t.ltrans0.ltrans.o
 .bss.mScanCode
                0x00000000000ab2a0        0x2 /tmp/ccgdRr0t.ltrans0.ltrans.o
 *fill*         0x00000000000ab2a2        0x6 
 .bss.mSidebuttonInputDrv
                0x00000000000ab2a8       0x18 /tmp/ccgdRr0t.ltrans0.ltrans.o
 .bss.mTimerEvent
                0x00000000000ab2c0        0x8 /tmp/ccgdRr0t.ltrans0.ltrans.o
 .bss.mTouchInputDrv
                0x00000000000ab2c8       0x18 /tmp/ccgdRr0t.ltrans0.ltrans.o
 .bss.px_num    0x00000000000ab2e0        0x4 /tmp/ccgdRr0t.ltrans0.ltrans.o
 *fill*         0x00000000000ab2e4        0x4 
 .bss.scr_ll    0x00000000000ab2e8       0x18 /tmp/ccgdRr0t.ltrans0.ltrans.o
 .bss.style_sb.17608
                0x00000000000ab300       0x50 /tmp/ccgdRr0t.ltrans0.ltrans.o
 .bss.style_txt.17592
                0x00000000000ab350       0x50 /tmp/ccgdRr0t.ltrans0.ltrans.o
 .bss.style_txt.17598
                0x00000000000ab3a0       0x50 /tmp/ccgdRr0t.ltrans0.ltrans.o
 .bss.sys_layer
                0x00000000000ab3f0        0x8 /tmp/ccgdRr0t.ltrans0.ltrans.o
 .bss.vdb_buf   0x00000000000ab3f8    0x1fa40 /tmp/ccgdRr0t.ltrans0.ltrans.o
 .bss.work_mem_int
                0x00000000000cae38     0x8000 /tmp/ccgdRr0t.ltrans0.ltrans.o
 .bss.ancestor_design.lto_priv.155
                0x00000000000d2e38        0x8 /tmp/ccgdRr0t.ltrans1.ltrans.o
 .bss.ancestor_signal.lto_priv.159
                0x00000000000d2e40        0x8 /tmp/ccgdRr0t.ltrans1.ltrans.o
 .bss.ancestor_signal.lto_priv.160
                0x00000000000d2e48        0x8 /tmp/ccgdRr0t.ltrans1.ltrans.o
 .bss.ancestor_signal.lto_priv.161
                0x00000000000d2e50        0x8 /tmp/ccgdRr0t.ltrans1.ltrans.o
 .bss.anim_list_changed
                0x00000000000d2e58        0x1 /tmp/ccgdRr0t.ltrans1.ltrans.o
 *fill*         0x00000000000d2e59        0x7 
 .bss.anim_ll.lto_priv.187
                0x00000000000d2e60       0x18 /tmp/ccgdRr0t.ltrans1.ltrans.o
                0x00000000000d2e60                anim_ll.lto_priv.187
 .bss.busy_time.1334
                0x00000000000d2e78        0x4 /tmp/ccgdRr0t.ltrans1.ltrans.o
 *fill*         0x00000000000d2e7c        0x4 
 .bss.file_ll.lto_priv.190
                0x00000000000d2e80       0x18 /tmp/ccgdRr0t.ltrans1.ltrans.o
                0x00000000000d2e80                file_ll.lto_priv.190
 .bss.handler_start.1333
                0x00000000000d2e98        0x4 /tmp/ccgdRr0t.ltrans1.ltrans.o
 .bss.idle_period_start.1332
                0x00000000000d2e9c        0x4 /tmp/ccgdRr0t.ltrans1.ltrans.o
 .bss.indev_list.lto_priv.186
                0x00000000000d2ea0        0x8 /tmp/ccgdRr0t.ltrans1.ltrans.o
                0x00000000000d2ea0                indev_list.lto_priv.186
 .bss.inited.lto_priv.191
                0x00000000000d2ea8        0x1 /tmp/ccgdRr0t.ltrans1.ltrans.o
                0x00000000000d2ea8                inited.lto_priv.191
 *fill*         0x00000000000d2ea9        0x3 
 .bss.last_task_run.lto_priv.188
                0x00000000000d2eac        0x4 /tmp/ccgdRr0t.ltrans1.ltrans.o
                0x00000000000d2eac                last_task_run.lto_priv.188
 .bss.lv_style_pretty_color
                0x00000000000d2eb0       0x50 /tmp/ccgdRr0t.ltrans1.ltrans.o
                0x00000000000d2eb0                lv_style_pretty_color
 .bss.lv_task_run.lto_priv.193
                0x00000000000d2f00        0x1 /tmp/ccgdRr0t.ltrans1.ltrans.o
                0x00000000000d2f00                lv_task_run.lto_priv.193
 *fill*         0x00000000000d2f01        0x7 
 .bss.page_scrl_signal
                0x00000000000d2f08        0x8 /tmp/ccgdRr0t.ltrans1.ltrans.o
 .bss.page_signal
                0x00000000000d2f10        0x8 /tmp/ccgdRr0t.ltrans1.ltrans.o
 .bss.task_act  0x00000000000d2f18        0x8 /tmp/ccgdRr0t.ltrans1.ltrans.o
 .bss.task_deleted
                0x00000000000d2f20        0x1 /tmp/ccgdRr0t.ltrans1.ltrans.o
 .bss.task_handler_mutex.1331
                0x00000000000d2f21        0x1 /tmp/ccgdRr0t.ltrans1.ltrans.o
 *fill*         0x00000000000d2f22        0x6 
 .bss.work_mem.lto_priv.194
                0x00000000000d2f28        0x8 /tmp/ccgdRr0t.ltrans1.ltrans.o
                0x00000000000d2f28                work_mem.lto_priv.194
 .bss.ancestor_design.lto_priv.156
                0x00000000000d2f30        0x8 /tmp/ccgdRr0t.ltrans2.ltrans.o
                0x00000000000d2f30                ancestor_design.lto_priv.156
 .bss.ancestor_signal.lto_priv.148
                0x00000000000d2f38        0x8 /tmp/ccgdRr0t.ltrans2.ltrans.o
                0x00000000000d2f38                ancestor_signal.lto_priv.148
 .bss.ancestor_signal.lto_priv.149
                0x00000000000d2f40        0x8 /tmp/ccgdRr0t.ltrans2.ltrans.o
                0x00000000000d2f40                ancestor_signal.lto_priv.149
 .bss.decoder_custom
                0x00000000000d2f48        0x1 /tmp/ccgdRr0t.ltrans2.ltrans.o
 *fill*         0x00000000000d2f49        0x3 
 .bss.decoder_header
                0x00000000000d2f4c        0x4 /tmp/ccgdRr0t.ltrans2.ltrans.o
 .bss.decoder_index_map
                0x00000000000d2f50      0x400 /tmp/ccgdRr0t.ltrans2.ltrans.o
 .bss.decoder_src
                0x00000000000d3350        0x8 /tmp/ccgdRr0t.ltrans2.ltrans.o
 .bss.decoder_src_type
                0x00000000000d3358        0x1 /tmp/ccgdRr0t.ltrans2.ltrans.o
 *fill*         0x00000000000d3359        0x7 
 .bss.decoder_style
                0x00000000000d3360        0x8 /tmp/ccgdRr0t.ltrans2.ltrans.o
 .bss.gHiiConfigRouting
                0x00000000000d3368        0x8 /tmp/ccgdRr0t.ltrans2.ltrans.o
                0x00000000000d3368                gHiiConfigRouting
 .bss.gHiiDriverList
                0x00000000000d3370        0x8 /tmp/ccgdRr0t.ltrans2.ltrans.o
 .bss.indev_act.lto_priv.151
                0x00000000000d3378        0x8 /tmp/ccgdRr0t.ltrans2.ltrans.o
                0x00000000000d3378                indev_act.lto_priv.151
 .bss.ink_act_value
                0x00000000000d3380        0x2 /tmp/ccgdRr0t.ltrans2.ltrans.o
 .bss.ink_bg_state
                0x00000000000d3382        0x1 /tmp/ccgdRr0t.ltrans2.ltrans.o
 *fill*         0x00000000000d3383        0x5 
 .bss.ink_obj   0x00000000000d3388        0x8 /tmp/ccgdRr0t.ltrans2.ltrans.o
 .bss.ink_playback
                0x00000000000d3390        0x1 /tmp/ccgdRr0t.ltrans2.ltrans.o
 *fill*         0x00000000000d3391        0x1 
 .bss.ink_point
                0x00000000000d3392        0x4 /tmp/ccgdRr0t.ltrans2.ltrans.o
 .bss.ink_ready
                0x00000000000d3396        0x1 /tmp/ccgdRr0t.ltrans2.ltrans.o
 .bss.ink_top_state
                0x00000000000d3397        0x1 /tmp/ccgdRr0t.ltrans2.ltrans.o
 .bss.inv_buf_p.lto_priv.184
                0x00000000000d3398        0x2 /tmp/ccgdRr0t.ltrans2.ltrans.o
                0x00000000000d3398                inv_buf_p.lto_priv.184
 *fill*         0x00000000000d339a        0x2 
 .bss.mBmBootHorizontalResolution
                0x00000000000d339c        0x4 /tmp/ccgdRr0t.ltrans2.ltrans.o
                0x00000000000d339c                mBmBootHorizontalResolution
 .bss.mBmBootTextModeColumn
                0x00000000000d33a0        0x4 /tmp/ccgdRr0t.ltrans2.ltrans.o
                0x00000000000d33a0                mBmBootTextModeColumn
 .bss.mBmBootTextModeRow
                0x00000000000d33a4        0x4 /tmp/ccgdRr0t.ltrans2.ltrans.o
                0x00000000000d33a4                mBmBootTextModeRow
 .bss.mBmBootVerticalResolution
                0x00000000000d33a8        0x4 /tmp/ccgdRr0t.ltrans2.ltrans.o
                0x00000000000d33a8                mBmBootVerticalResolution
 .bss.mBmSetupHorizontalResolution
                0x00000000000d33ac        0x4 /tmp/ccgdRr0t.ltrans2.ltrans.o
                0x00000000000d33ac                mBmSetupHorizontalResolution
 .bss.mBmSetupTextModeColumn
                0x00000000000d33b0        0x4 /tmp/ccgdRr0t.ltrans2.ltrans.o
                0x00000000000d33b0                mBmSetupTextModeColumn
 .bss.mBmSetupTextModeRow
                0x00000000000d33b4        0x4 /tmp/ccgdRr0t.ltrans2.ltrans.o
                0x00000000000d33b4                mBmSetupTextModeRow
 .bss.mBmSetupVerticalResolution
                0x00000000000d33b8        0x4 /tmp/ccgdRr0t.ltrans2.ltrans.o
                0x00000000000d33b8                mBmSetupVerticalResolution
 .bss.mBmmBootHorizontalResolution
                0x00000000000d33bc        0x4 /tmp/ccgdRr0t.ltrans2.ltrans.o
                0x00000000000d33bc                mBmmBootHorizontalResolution
 .bss.mBmmBootTextModeColumn
                0x00000000000d33c0        0x4 /tmp/ccgdRr0t.ltrans2.ltrans.o
                0x00000000000d33c0                mBmmBootTextModeColumn
 .bss.mBmmBootTextModeRow
                0x00000000000d33c4        0x4 /tmp/ccgdRr0t.ltrans2.ltrans.o
                0x00000000000d33c4                mBmmBootTextModeRow
 .bss.mBmmBootVerticalResolution
                0x00000000000d33c8        0x4 /tmp/ccgdRr0t.ltrans2.ltrans.o
                0x00000000000d33c8                mBmmBootVerticalResolution
 .bss.mBmmSetupHorizontalResolution
                0x00000000000d33cc        0x4 /tmp/ccgdRr0t.ltrans2.ltrans.o
                0x00000000000d33cc                mBmmSetupHorizontalResolution
 .bss.mBmmSetupTextModeColumn
                0x00000000000d33d0        0x4 /tmp/ccgdRr0t.ltrans2.ltrans.o
                0x00000000000d33d0                mBmmSetupTextModeColumn
 .bss.mBmmSetupTextModeRow
                0x00000000000d33d4        0x4 /tmp/ccgdRr0t.ltrans2.ltrans.o
                0x00000000000d33d4                mBmmSetupTextModeRow
 .bss.mBmmSetupVerticalResolution
                0x00000000000d33d8        0x4 /tmp/ccgdRr0t.ltrans2.ltrans.o
                0x00000000000d33d8                mBmmSetupVerticalResolution
 .bss.mFirstEnterBMMForm
                0x00000000000d33dc        0x1 /tmp/ccgdRr0t.ltrans2.ltrans.o
 *fill*         0x00000000000d33dd        0x1 
 .bss.mKeyInput
                0x00000000000d33de        0x2 /tmp/ccgdRr0t.ltrans2.ltrans.o
 .bss.mMacDeviceList
                0x00000000000d33e0       0x18 /tmp/ccgdRr0t.ltrans2.ltrans.o
 .bss.mSelectedMacAddrString
                0x00000000000d33f8        0x8 /tmp/ccgdRr0t.ltrans2.ltrans.o
 .bss.top_layer.lto_priv.183
                0x00000000000d3400        0x8 /tmp/ccgdRr0t.ltrans2.ltrans.o
                0x00000000000d3400                top_layer.lto_priv.183
 .bss._font     0x00000000000d3408        0x8 /tmp/ccgdRr0t.ltrans3.ltrans.o
 .bss._hue      0x00000000000d3410        0x2 /tmp/ccgdRr0t.ltrans3.ltrans.o
 *fill*         0x00000000000d3412        0x6 
 .bss.act_scr.lto_priv.150
                0x00000000000d3418        0x8 /tmp/ccgdRr0t.ltrans3.ltrans.o
                0x00000000000d3418                act_scr.lto_priv.150
 .bss.active.lto_priv.147
                0x00000000000d3420        0x8 /tmp/ccgdRr0t.ltrans3.ltrans.o
                0x00000000000d3420                active.lto_priv.147
 .bss.ancestor_design_f.lto_priv.162
                0x00000000000d3428        0x8 /tmp/ccgdRr0t.ltrans3.ltrans.o
                0x00000000000d3428                ancestor_design_f.lto_priv.162
 .bss.ancestor_signal.lto_priv.121
                0x00000000000d3430        0x8 /tmp/ccgdRr0t.ltrans3.ltrans.o
                0x00000000000d3430                ancestor_signal.lto_priv.121
 .bss.ancestor_signal.lto_priv.122
                0x00000000000d3438        0x8 /tmp/ccgdRr0t.ltrans3.ltrans.o
                0x00000000000d3438                ancestor_signal.lto_priv.122
 .bss.ancestor_signal.lto_priv.123
                0x00000000000d3440        0x8 /tmp/ccgdRr0t.ltrans3.ltrans.o
                0x00000000000d3440                ancestor_signal.lto_priv.123
 .bss.arc.2041  0x00000000000d3448       0x50 /tmp/ccgdRr0t.ltrans3.ltrans.o
 .bss.bar_bg.2011
                0x00000000000d3498       0x50 /tmp/ccgdRr0t.ltrans3.ltrans.o
 .bss.bar_indic.2012
                0x00000000000d34e8       0x50 /tmp/ccgdRr0t.ltrans3.ltrans.o
 .bss.bg.1967   0x00000000000d3538       0x50 /tmp/ccgdRr0t.ltrans3.ltrans.o
 .bss.bg.2069   0x00000000000d3588       0x50 /tmp/ccgdRr0t.ltrans3.ltrans.o
 .bss.bg.2112   0x00000000000d35d8       0x50 /tmp/ccgdRr0t.ltrans3.ltrans.o
 .bss.btn_bg.2123
                0x00000000000d3628       0x50 /tmp/ccgdRr0t.ltrans3.ltrans.o
 .bss.current_theme.lto_priv.152
                0x00000000000d3678        0x8 /tmp/ccgdRr0t.ltrans3.ltrans.o
                0x00000000000d3678                current_theme.lto_priv.152
 .bss.decoder_file.lto_priv.135
                0x00000000000d3680       0x10 /tmp/ccgdRr0t.ltrans3.ltrans.o
                0x00000000000d3680                decoder_file.lto_priv.135
 .bss.def       0x00000000000d3690       0x50 /tmp/ccgdRr0t.ltrans3.ltrans.o
 .bss.disp_list
                0x00000000000d36e0        0x8 /tmp/ccgdRr0t.ltrans3.ltrans.o
 .bss.drv_ll.lto_priv.192
                0x00000000000d36e8       0x18 /tmp/ccgdRr0t.ltrans3.ltrans.o
                0x00000000000d36e8                drv_ll.lto_priv.192
 .bss.gBS       0x00000000000d3700        0x8 /tmp/ccgdRr0t.ltrans3.ltrans.o
                0x00000000000d3700                gBS
 .bss.gHiiDatabase
                0x00000000000d3708        0x8 /tmp/ccgdRr0t.ltrans3.ltrans.o
                0x00000000000d3708                gHiiDatabase
 .bss.gHiiString
                0x00000000000d3710        0x8 /tmp/ccgdRr0t.ltrans3.ltrans.o
                0x00000000000d3710                gHiiString
 .bss.gRT       0x00000000000d3718        0x8 /tmp/ccgdRr0t.ltrans3.ltrans.o
                0x00000000000d3718                gRT
 .bss.gST       0x00000000000d3720        0x8 /tmp/ccgdRr0t.ltrans3.ltrans.o
                0x00000000000d3720                gST
 .bss.gauge.2035
                0x00000000000d3728       0x50 /tmp/ccgdRr0t.ltrans3.ltrans.o
 .bss.header.2138
                0x00000000000d3778       0x50 /tmp/ccgdRr0t.ltrans3.ltrans.o
 .bss.high_days.2052
                0x00000000000d37c8       0x50 /tmp/ccgdRr0t.ltrans3.ltrans.o
 .bss.hint.1995
                0x00000000000d3818       0x50 /tmp/ccgdRr0t.ltrans3.ltrans.o
 .bss.img_dark.2000
                0x00000000000d3868       0x50 /tmp/ccgdRr0t.ltrans3.ltrans.o
 .bss.img_light.1999
                0x00000000000d38b8       0x50 /tmp/ccgdRr0t.ltrans3.ltrans.o
 .bss.ina.1987  0x00000000000d3908       0x50 /tmp/ccgdRr0t.ltrans3.ltrans.o
 .bss.ina.2064  0x00000000000d3958       0x50 /tmp/ccgdRr0t.ltrans3.ltrans.o
 .bss.ina.2074  0x00000000000d39a8       0x50 /tmp/ccgdRr0t.ltrans3.ltrans.o
 .bss.ina.2105  0x00000000000d39f8       0x50 /tmp/ccgdRr0t.ltrans3.ltrans.o
 .bss.ina_days.2051
                0x00000000000d3a48       0x50 /tmp/ccgdRr0t.ltrans3.ltrans.o
 .bss.indic.2122
                0x00000000000d3a98       0x50 /tmp/ccgdRr0t.ltrans3.ltrans.o
 .bss.knob.2016
                0x00000000000d3ae8       0x50 /tmp/ccgdRr0t.ltrans3.ltrans.o
 .bss.led.2007  0x00000000000d3b38       0x50 /tmp/ccgdRr0t.ltrans3.ltrans.o
 .bss.list_bg.2100
                0x00000000000d3b88       0x50 /tmp/ccgdRr0t.ltrans3.ltrans.o
 .bss.lmeter.2030
                0x00000000000d3bd8       0x50 /tmp/ccgdRr0t.ltrans3.ltrans.o
 .bss.lv_style_btn_ina
                0x00000000000d3c28       0x50 /tmp/ccgdRr0t.ltrans3.ltrans.o
                0x00000000000d3c28                lv_style_btn_ina
 .bss.lv_style_btn_pr
                0x00000000000d3c78       0x50 /tmp/ccgdRr0t.ltrans3.ltrans.o
                0x00000000000d3c78                lv_style_btn_pr
 .bss.lv_style_btn_rel
                0x00000000000d3cc8       0x50 /tmp/ccgdRr0t.ltrans3.ltrans.o
                0x00000000000d3cc8                lv_style_btn_rel
 .bss.lv_style_btn_tgl_pr
                0x00000000000d3d18       0x50 /tmp/ccgdRr0t.ltrans3.ltrans.o
                0x00000000000d3d18                lv_style_btn_tgl_pr
 .bss.lv_style_btn_tgl_rel
                0x00000000000d3d68       0x50 /tmp/ccgdRr0t.ltrans3.ltrans.o
                0x00000000000d3d68                lv_style_btn_tgl_rel
 .bss.lv_style_plain
                0x00000000000d3db8       0x50 /tmp/ccgdRr0t.ltrans3.ltrans.o
                0x00000000000d3db8                lv_style_plain
 .bss.lv_style_plain_color
                0x00000000000d3e08       0x50 /tmp/ccgdRr0t.ltrans3.ltrans.o
                0x00000000000d3e08                lv_style_plain_color
 .bss.lv_style_pretty
                0x00000000000d3e58       0x50 /tmp/ccgdRr0t.ltrans3.ltrans.o
                0x00000000000d3e58                lv_style_pretty
 .bss.lv_style_transp
                0x00000000000d3ea8       0x50 /tmp/ccgdRr0t.ltrans3.ltrans.o
                0x00000000000d3ea8                lv_style_transp
 .bss.lv_style_transp_tight
                0x00000000000d3ef8       0x50 /tmp/ccgdRr0t.ltrans3.ltrans.o
                0x00000000000d3ef8                lv_style_transp_tight
 .bss.lv_task_ll.lto_priv.165
                0x00000000000d3f48       0x18 /tmp/ccgdRr0t.ltrans3.ltrans.o
                0x00000000000d3f48                lv_task_ll.lto_priv.165
 .bss.mDispDrv  0x00000000000d3f60       0x20 /tmp/ccgdRr0t.ltrans3.ltrans.o
                0x00000000000d3f60                mDispDrv
 .bss.mPerformance
                0x00000000000d3f80        0x8 /tmp/ccgdRr0t.ltrans3.ltrans.o
                0x00000000000d3f80                mPerformance
 .bss.mPerformanceEx
                0x00000000000d3f88        0x8 /tmp/ccgdRr0t.ltrans3.ltrans.o
                0x00000000000d3f88                mPerformanceEx
 .bss.mQuestionIdUpdate
                0x00000000000d3f90        0x2 /tmp/ccgdRr0t.ltrans3.ltrans.o
                0x00000000000d3f90                mQuestionIdUpdate
 *fill*         0x00000000000d3f92        0x6 
 .bss.mReportStatusCodeLibStatusCodeProtocol
                0x00000000000d3f98        0x8 /tmp/ccgdRr0t.ltrans3.ltrans.o
                0x00000000000d3f98                mReportStatusCodeLibStatusCodeProtocol
 .bss.oneline.2094
                0x00000000000d3fa0       0x50 /tmp/ccgdRr0t.ltrans3.ltrans.o
 .bss.panel.1968
                0x00000000000d3ff0       0x50 /tmp/ccgdRr0t.ltrans3.ltrans.o
 .bss.pr.1984   0x00000000000d4040       0x50 /tmp/ccgdRr0t.ltrans3.ltrans.o
 .bss.pr.2061   0x00000000000d4090       0x50 /tmp/ccgdRr0t.ltrans3.ltrans.o
 .bss.pr.2071   0x00000000000d40e0       0x50 /tmp/ccgdRr0t.ltrans3.ltrans.o
 .bss.pr.2086   0x00000000000d4130       0x50 /tmp/ccgdRr0t.ltrans3.ltrans.o
 .bss.pr.2102   0x00000000000d4180       0x50 /tmp/ccgdRr0t.ltrans3.ltrans.o
 .bss.pr.2125   0x00000000000d41d0       0x50 /tmp/ccgdRr0t.ltrans3.ltrans.o
 .bss.pr.2139   0x00000000000d4220       0x50 /tmp/ccgdRr0t.ltrans3.ltrans.o
 .bss.prim.1993
                0x00000000000d4270       0x50 /tmp/ccgdRr0t.ltrans3.ltrans.o
 .bss.rel.1983  0x00000000000d42c0       0x50 /tmp/ccgdRr0t.ltrans3.ltrans.o
 .bss.rel.2060  0x00000000000d4310       0x50 /tmp/ccgdRr0t.ltrans3.ltrans.o
 .bss.rel.2070  0x00000000000d4360       0x50 /tmp/ccgdRr0t.ltrans3.ltrans.o
 .bss.rel.2082  0x00000000000d43b0       0x50 /tmp/ccgdRr0t.ltrans3.ltrans.o
 .bss.rel.2087  0x00000000000d4400       0x50 /tmp/ccgdRr0t.ltrans3.ltrans.o
 .bss.rel.2101  0x00000000000d4450       0x50 /tmp/ccgdRr0t.ltrans3.ltrans.o
 .bss.rel.2124  0x00000000000d44a0       0x50 /tmp/ccgdRr0t.ltrans3.ltrans.o
 .bss.roller_bg.2117
                0x00000000000d44f0       0x50 /tmp/ccgdRr0t.ltrans3.ltrans.o
 .bss.roller_sel.2118
                0x00000000000d4540       0x50 /tmp/ccgdRr0t.ltrans3.ltrans.o
 .bss.sb        0x00000000000d4590       0x50 /tmp/ccgdRr0t.ltrans3.ltrans.o
 .bss.sec.1994  0x00000000000d45e0       0x50 /tmp/ccgdRr0t.ltrans3.ltrans.o
 .bss.sel.2113  0x00000000000d4630       0x50 /tmp/ccgdRr0t.ltrans3.ltrans.o
 .bss.sw_bg.2020
                0x00000000000d4680       0x50 /tmp/ccgdRr0t.ltrans3.ltrans.o
 .bss.sw_indic.2021
                0x00000000000d46d0       0x50 /tmp/ccgdRr0t.ltrans3.ltrans.o
 .bss.sw_knob_off.2022
                0x00000000000d4720       0x50 /tmp/ccgdRr0t.ltrans3.ltrans.o
 .bss.sw_knob_on.2023
                0x00000000000d4770       0x50 /tmp/ccgdRr0t.ltrans3.ltrans.o
 .bss.sys_time.lto_priv.167
                0x00000000000d47c0        0x4 /tmp/ccgdRr0t.ltrans3.ltrans.o
                0x00000000000d47c0                sys_time.lto_priv.167
 .bss.task_created.lto_priv.164
                0x00000000000d47c4        0x1 /tmp/ccgdRr0t.ltrans3.ltrans.o
                0x00000000000d47c4                task_created.lto_priv.164
 *fill*         0x00000000000d47c5        0x3 
 .bss.tgl_pr.1986
                0x00000000000d47c8       0x50 /tmp/ccgdRr0t.ltrans3.ltrans.o
 .bss.tgl_pr.2063
                0x00000000000d4818       0x50 /tmp/ccgdRr0t.ltrans3.ltrans.o
 .bss.tgl_pr.2073
                0x00000000000d4868       0x50 /tmp/ccgdRr0t.ltrans3.ltrans.o
 .bss.tgl_pr.2104
                0x00000000000d48b8       0x50 /tmp/ccgdRr0t.ltrans3.ltrans.o
 .bss.tgl_pr.2127
                0x00000000000d4908       0x50 /tmp/ccgdRr0t.ltrans3.ltrans.o
 .bss.tgl_rel.1985
                0x00000000000d4958       0x50 /tmp/ccgdRr0t.ltrans3.ltrans.o
 .bss.tgl_rel.2062
                0x00000000000d49a8       0x50 /tmp/ccgdRr0t.ltrans3.ltrans.o
 .bss.tgl_rel.2072
                0x00000000000d49f8       0x50 /tmp/ccgdRr0t.ltrans3.ltrans.o
 .bss.tgl_rel.2103
                0x00000000000d4a48       0x50 /tmp/ccgdRr0t.ltrans3.ltrans.o
 .bss.tgl_rel.2126
                0x00000000000d4a98       0x50 /tmp/ccgdRr0t.ltrans3.ltrans.o
 .bss.theme     0x00000000000d4ae8      0x310 /tmp/ccgdRr0t.ltrans3.ltrans.o
 .bss.tick_irq_flag.lto_priv.166
                0x00000000000d4df8        0x1 /tmp/ccgdRr0t.ltrans3.ltrans.o
                0x00000000000d4df8                tick_irq_flag.lto_priv.166
 *fill*         0x00000000000d4df9        0x7 
 .bss.today_box.2054
                0x00000000000d4e00       0x50 /tmp/ccgdRr0t.ltrans3.ltrans.o
 .bss.week_box.2053
                0x00000000000d4e50       0x50 /tmp/ccgdRr0t.ltrans3.ltrans.o
 .bss.zero_mem.lto_priv.163
                0x00000000000d4ea0        0x4 /tmp/ccgdRr0t.ltrans3.ltrans.o
                0x00000000000d4ea0                zero_mem.lto_priv.163
 *fill*         0x00000000000d4ea4        0x4 
 .bss.mEndOpCodeHandle
                0x00000000000d4ea8        0x8 /tmp/ccgdRr0t.ltrans4.ltrans.o
                0x00000000000d4ea8                mEndOpCodeHandle
 .bss.mPcd      0x00000000000d4eb0        0x8 /tmp/ccgdRr0t.ltrans4.ltrans.o
 .bss.mStartLabel
                0x00000000000d4eb8        0x8 /tmp/ccgdRr0t.ltrans4.ltrans.o
                0x00000000000d4eb8                mStartLabel
 .bss.mStartOpCodeHandle
                0x00000000000d4ec0        0x8 /tmp/ccgdRr0t.ltrans4.ltrans.o
                0x00000000000d4ec0                mStartOpCodeHandle
 .bss.mUefiFormBrowser2
                0x00000000000d4ec8        0x8 /tmp/ccgdRr0t.ltrans4.ltrans.o
 .bss.m_Color   0x00000000000d4ed0       0x10 /tmp/ccgdRr0t.ltrans4.ltrans.o
                0x00000000000d4ed0                m_Color
 .bss.m_Initialized
                0x00000000000d4ee0        0x1 /tmp/ccgdRr0t.ltrans4.ltrans.o
                0x00000000000d4ee0                m_Initialized
 *fill*         0x00000000000d4ee1        0x7 
 .bss.m_MaxPosition
                0x00000000000d4ee8       0x10 /tmp/ccgdRr0t.ltrans4.ltrans.o
                0x00000000000d4ee8                m_MaxPosition
 .bss.m_Position
                0x00000000000d4ef8       0x10 /tmp/ccgdRr0t.ltrans4.ltrans.o
                0x00000000000d4ef8                m_Position

.igot.plt       0x00000000000d4f08        0x0
 .igot.plt      0x00000000000d4f08        0x0 /home/vsts/work/1/edk2/Build/Lumia950XL-AARCH64/DEBUG_GCC5/AARCH64/ArmPkg/Library/ArmLib/ArmBaseLib/OUTPUT/ArmBaseLib.lib(AArch64Support.obj)

.eh_frame
 *(.eh_frame)

.rela           0x00000000000d4f08        0x0
 *(.rela .rela.*)
 .rela.iplt     0x00000000000d4f08        0x0 /home/vsts/work/1/edk2/Build/Lumia950XL-AARCH64/DEBUG_GCC5/AARCH64/ArmPkg/Library/ArmLib/ArmBaseLib/OUTPUT/ArmBaseLib.lib(AArch64Support.obj)

.hii
 *(.hii)

.build-id       0x00000000000d4f08       0x24
 *(.note.gnu.build-id)
 .note.gnu.build-id
                0x00000000000d4f08       0x24 /home/vsts/work/1/edk2/ArmPkg/Library/GccLto/liblto-aarch64.a

/DISCARD/
 *(.note.GNU-stack)
 *(.gnu_debuglink)
 *(.interp)
 *(.dynsym)
 *(.dynstr)
 *(.dynamic)
 *(.hash .gnu.hash)
 *(.comment)
 *(COMMON)
                0x0000000000000228                PECOFF_HEADER_SIZE = 0x228
OUTPUT(/home/vsts/work/1/edk2/Build/Lumia950XL-AARCH64/DEBUG_GCC5/AARCH64/Lumia950XLPkg/Application/BdsMenuApp/BdsMenuApp/DEBUG/UiApp.dll elf64-littleaarch64)

.debug_info     0x0000000000000000    0x63d98
 .debug_info    0x0000000000000000    0x2550c /tmp/ccgdRr0t.ltrans0.ltrans.o
 .debug_info    0x000000000002550c     0xfd5b /tmp/ccgdRr0t.ltrans1.ltrans.o
 .debug_info    0x0000000000035267    0x11fdb /tmp/ccgdRr0t.ltrans2.ltrans.o
 .debug_info    0x0000000000047242     0xc013 /tmp/ccgdRr0t.ltrans3.ltrans.o
 .debug_info    0x0000000000053255    0x10b43 /tmp/ccgdRr0t.ltrans4.ltrans.o

.debug_abbrev   0x0000000000000000     0x2909
 .debug_abbrev  0x0000000000000000      0xa56 /tmp/ccgdRr0t.ltrans0.ltrans.o
 .debug_abbrev  0x0000000000000a56      0x860 /tmp/ccgdRr0t.ltrans1.ltrans.o
 .debug_abbrev  0x00000000000012b6      0x859 /tmp/ccgdRr0t.ltrans2.ltrans.o
 .debug_abbrev  0x0000000000001b0f      0x639 /tmp/ccgdRr0t.ltrans3.ltrans.o
 .debug_abbrev  0x0000000000002148      0x7c1 /tmp/ccgdRr0t.ltrans4.ltrans.o

.debug_loc      0x0000000000000000    0x4f291
 .debug_loc     0x0000000000000000    0x187ca /tmp/ccgdRr0t.ltrans0.ltrans.o
 .debug_loc     0x00000000000187ca     0xf8ca /tmp/ccgdRr0t.ltrans1.ltrans.o
 .debug_loc     0x0000000000028094    0x108bd /tmp/ccgdRr0t.ltrans2.ltrans.o
 .debug_loc     0x0000000000038951     0x67a8 /tmp/ccgdRr0t.ltrans3.ltrans.o
 .debug_loc     0x000000000003f0f9    0x10198 /tmp/ccgdRr0t.ltrans4.ltrans.o

.debug_aranges  0x0000000000000000     0x2050
 .debug_aranges
                0x0000000000000000      0x990 /tmp/ccgdRr0t.ltrans0.ltrans.o
 .debug_aranges
                0x0000000000000990      0x6f0 /tmp/ccgdRr0t.ltrans1.ltrans.o
 .debug_aranges
                0x0000000000001080      0x370 /tmp/ccgdRr0t.ltrans2.ltrans.o
 .debug_aranges
                0x00000000000013f0      0x270 /tmp/ccgdRr0t.ltrans3.ltrans.o
 .debug_aranges
                0x0000000000001660      0x9f0 /tmp/ccgdRr0t.ltrans4.ltrans.o

.debug_ranges   0x0000000000000000     0xc330
 .debug_ranges  0x0000000000000000     0x4870 /tmp/ccgdRr0t.ltrans0.ltrans.o
 .debug_ranges  0x0000000000004870     0x3350 /tmp/ccgdRr0t.ltrans1.ltrans.o
 .debug_ranges  0x0000000000007bc0     0x21f0 /tmp/ccgdRr0t.ltrans2.ltrans.o
 .debug_ranges  0x0000000000009db0     0x1370 /tmp/ccgdRr0t.ltrans3.ltrans.o
 .debug_ranges  0x000000000000b120     0x1210 /tmp/ccgdRr0t.ltrans4.ltrans.o

.debug_line     0x0000000000000000     0xfea0
 .debug_line    0x0000000000000000     0x55bd /tmp/ccgdRr0t.ltrans0.ltrans.o
 .debug_line    0x00000000000055bd     0x3199 /tmp/ccgdRr0t.ltrans1.ltrans.o
 .debug_line    0x0000000000008756     0x2ccb /tmp/ccgdRr0t.ltrans2.ltrans.o
 .debug_line    0x000000000000b421     0x2363 /tmp/ccgdRr0t.ltrans3.ltrans.o
 .debug_line    0x000000000000d784     0x271c /tmp/ccgdRr0t.ltrans4.ltrans.o

.debug_str      0x0000000000000000    0x11149
 .debug_str     0x0000000000000000     0xa10d /tmp/ccgdRr0t.ltrans0.ltrans.o
                                       0xb3d6 (size before relaxing)
 .debug_str     0x000000000000a10d     0x1c31 /tmp/ccgdRr0t.ltrans1.ltrans.o
                                       0x2cd4 (size before relaxing)
 .debug_str     0x000000000000bd3e     0x1fa1 /tmp/ccgdRr0t.ltrans2.ltrans.o
                                       0x582b (size before relaxing)
 .debug_str     0x000000000000dcdf     0x1488 /tmp/ccgdRr0t.ltrans3.ltrans.o
                                       0x4660 (size before relaxing)
 .debug_str     0x000000000000f167     0x1fe2 /tmp/ccgdRr0t.ltrans4.ltrans.o
                                       0x5908 (size before relaxing)

.debug_frame    0x0000000000000000     0x6980
 .debug_frame   0x0000000000000000     0x1f68 /tmp/ccgdRr0t.ltrans0.ltrans.o
 .debug_frame   0x0000000000001f68     0x1528 /tmp/ccgdRr0t.ltrans1.ltrans.o
 .debug_frame   0x0000000000003490      0xd38 /tmp/ccgdRr0t.ltrans2.ltrans.o
 .debug_frame   0x00000000000041c8      0x868 /tmp/ccgdRr0t.ltrans3.ltrans.o
 .debug_frame   0x0000000000004a30     0x1f50 /tmp/ccgdRr0t.ltrans4.ltrans.o
